
ExaminationsProjektPingis.elf:     file format elf32-littlearm

Sections:
Idx Name          Size      VMA       LMA       File off  Algn
  0 .text         00009e1c  00080000  00080000  00008000  2**3
                  CONTENTS, ALLOC, LOAD, READONLY, CODE
  1 .ARM.exidx    00000008  00089e1c  00089e1c  00011e1c  2**2
                  CONTENTS, ALLOC, LOAD, READONLY, DATA
  2 .relocate     00000908  20070000  00089e24  00018000  2**3
                  CONTENTS, ALLOC, LOAD, DATA
  3 .bss          0000a4f4  20070908  0008a730  00018908  2**3
                  ALLOC
  4 .stack        00002004  2007adfc  00094c24  00018908  2**0
                  ALLOC
  5 .ARM.attributes 00000029  00000000  00000000  00018908  2**0
                  CONTENTS, READONLY
  6 .comment      00000071  00000000  00000000  00018931  2**0
                  CONTENTS, READONLY
  7 .debug_info   0003e4a7  00000000  00000000  000189a2  2**0
                  CONTENTS, READONLY, DEBUGGING
  8 .debug_abbrev 0000b7bf  00000000  00000000  00056e49  2**0
                  CONTENTS, READONLY, DEBUGGING
  9 .debug_loc    00015b4f  00000000  00000000  00062608  2**0
                  CONTENTS, READONLY, DEBUGGING
 10 .debug_aranges 00001b68  00000000  00000000  00078158  2**3
                  CONTENTS, READONLY, DEBUGGING
 11 .debug_ranges 00001510  00000000  00000000  00079cc0  2**0
                  CONTENTS, READONLY, DEBUGGING
 12 .debug_macro  0001bff2  00000000  00000000  0007b1d0  2**0
                  CONTENTS, READONLY, DEBUGGING
 13 .debug_line   000243dc  00000000  00000000  000971c2  2**0
                  CONTENTS, READONLY, DEBUGGING
 14 .debug_str    0006a861  00000000  00000000  000bb59e  2**0
                  CONTENTS, READONLY, DEBUGGING
 15 .debug_frame  00003aac  00000000  00000000  00125e00  2**2
                  CONTENTS, READONLY, DEBUGGING

Disassembly of section .text:

00080000 <_sfixed>:
   80000:	2007ce00 	.word	0x2007ce00
   80004:	00083741 	.word	0x00083741
   80008:	0008373d 	.word	0x0008373d
   8000c:	0008373d 	.word	0x0008373d
   80010:	0008373d 	.word	0x0008373d
   80014:	0008373d 	.word	0x0008373d
   80018:	0008373d 	.word	0x0008373d
	...
   8002c:	000810c5 	.word	0x000810c5
   80030:	0008373d 	.word	0x0008373d
   80034:	00000000 	.word	0x00000000
   80038:	00081155 	.word	0x00081155
   8003c:	00081191 	.word	0x00081191
   80040:	0008373d 	.word	0x0008373d
   80044:	0008373d 	.word	0x0008373d
   80048:	0008373d 	.word	0x0008373d
   8004c:	0008373d 	.word	0x0008373d
   80050:	0008373d 	.word	0x0008373d
   80054:	0008373d 	.word	0x0008373d
   80058:	0008373d 	.word	0x0008373d
   8005c:	0008373d 	.word	0x0008373d
   80060:	0008373d 	.word	0x0008373d
   80064:	0008373d 	.word	0x0008373d
   80068:	00000000 	.word	0x00000000
   8006c:	00083509 	.word	0x00083509
   80070:	00083525 	.word	0x00083525
   80074:	00083541 	.word	0x00083541
   80078:	0008355d 	.word	0x0008355d
	...
   80084:	0008373d 	.word	0x0008373d
   80088:	0008373d 	.word	0x0008373d
   8008c:	0008373d 	.word	0x0008373d
   80090:	0008373d 	.word	0x0008373d
   80094:	0008373d 	.word	0x0008373d
   80098:	0008373d 	.word	0x0008373d
   8009c:	0008373d 	.word	0x0008373d
   800a0:	0008373d 	.word	0x0008373d
   800a4:	00000000 	.word	0x00000000
   800a8:	0008373d 	.word	0x0008373d
   800ac:	0008373d 	.word	0x0008373d
   800b0:	0008373d 	.word	0x0008373d
   800b4:	0008373d 	.word	0x0008373d
   800b8:	0008373d 	.word	0x0008373d
   800bc:	0008373d 	.word	0x0008373d
   800c0:	0008373d 	.word	0x0008373d
   800c4:	0008373d 	.word	0x0008373d
   800c8:	0008373d 	.word	0x0008373d
   800cc:	0008373d 	.word	0x0008373d
   800d0:	0008373d 	.word	0x0008373d
   800d4:	0008373d 	.word	0x0008373d
   800d8:	0008373d 	.word	0x0008373d
   800dc:	0008373d 	.word	0x0008373d
   800e0:	0008373d 	.word	0x0008373d
   800e4:	0008373d 	.word	0x0008373d
   800e8:	0008373d 	.word	0x0008373d
   800ec:	0008373d 	.word	0x0008373d
   800f0:	0008373d 	.word	0x0008373d

000800f4 <deregister_tm_clones>:
   800f4:	b508      	push	{r3, lr}
   800f6:	4805      	ldr	r0, [pc, #20]	; (8010c <deregister_tm_clones+0x18>)
   800f8:	4b05      	ldr	r3, [pc, #20]	; (80110 <deregister_tm_clones+0x1c>)
   800fa:	1a19      	subs	r1, r3, r0
   800fc:	2906      	cmp	r1, #6
   800fe:	d800      	bhi.n	80102 <deregister_tm_clones+0xe>
   80100:	bd08      	pop	{r3, pc}
   80102:	4a04      	ldr	r2, [pc, #16]	; (80114 <deregister_tm_clones+0x20>)
   80104:	2a00      	cmp	r2, #0
   80106:	d0fb      	beq.n	80100 <deregister_tm_clones+0xc>
   80108:	4790      	blx	r2
   8010a:	e7f9      	b.n	80100 <deregister_tm_clones+0xc>
   8010c:	00089e24 	.word	0x00089e24
   80110:	00089e27 	.word	0x00089e27
   80114:	00000000 	.word	0x00000000

00080118 <register_tm_clones>:
   80118:	b508      	push	{r3, lr}
   8011a:	4807      	ldr	r0, [pc, #28]	; (80138 <register_tm_clones+0x20>)
   8011c:	4b07      	ldr	r3, [pc, #28]	; (8013c <register_tm_clones+0x24>)
   8011e:	1a19      	subs	r1, r3, r0
   80120:	108a      	asrs	r2, r1, #2
   80122:	eb02 73d2 	add.w	r3, r2, r2, lsr #31
   80126:	1059      	asrs	r1, r3, #1
   80128:	d100      	bne.n	8012c <register_tm_clones+0x14>
   8012a:	bd08      	pop	{r3, pc}
   8012c:	4a04      	ldr	r2, [pc, #16]	; (80140 <register_tm_clones+0x28>)
   8012e:	2a00      	cmp	r2, #0
   80130:	d0fb      	beq.n	8012a <register_tm_clones+0x12>
   80132:	4790      	blx	r2
   80134:	e7f9      	b.n	8012a <register_tm_clones+0x12>
   80136:	bf00      	nop
   80138:	00089e24 	.word	0x00089e24
   8013c:	00089e24 	.word	0x00089e24
   80140:	00000000 	.word	0x00000000

00080144 <__do_global_dtors_aux>:
   80144:	b510      	push	{r4, lr}
   80146:	4c06      	ldr	r4, [pc, #24]	; (80160 <__do_global_dtors_aux+0x1c>)
   80148:	7823      	ldrb	r3, [r4, #0]
   8014a:	b943      	cbnz	r3, 8015e <__do_global_dtors_aux+0x1a>
   8014c:	f7ff ffd2 	bl	800f4 <deregister_tm_clones>
   80150:	4804      	ldr	r0, [pc, #16]	; (80164 <__do_global_dtors_aux+0x20>)
   80152:	b110      	cbz	r0, 8015a <__do_global_dtors_aux+0x16>
   80154:	4804      	ldr	r0, [pc, #16]	; (80168 <__do_global_dtors_aux+0x24>)
   80156:	f3af 8000 	nop.w
   8015a:	2101      	movs	r1, #1
   8015c:	7021      	strb	r1, [r4, #0]
   8015e:	bd10      	pop	{r4, pc}
   80160:	20070908 	.word	0x20070908
   80164:	00000000 	.word	0x00000000
   80168:	00089e24 	.word	0x00089e24

0008016c <frame_dummy>:
   8016c:	b508      	push	{r3, lr}
   8016e:	4b08      	ldr	r3, [pc, #32]	; (80190 <frame_dummy+0x24>)
   80170:	b11b      	cbz	r3, 8017a <frame_dummy+0xe>
   80172:	4808      	ldr	r0, [pc, #32]	; (80194 <frame_dummy+0x28>)
   80174:	4908      	ldr	r1, [pc, #32]	; (80198 <frame_dummy+0x2c>)
   80176:	f3af 8000 	nop.w
   8017a:	4808      	ldr	r0, [pc, #32]	; (8019c <frame_dummy+0x30>)
   8017c:	6801      	ldr	r1, [r0, #0]
   8017e:	b111      	cbz	r1, 80186 <frame_dummy+0x1a>
   80180:	4a07      	ldr	r2, [pc, #28]	; (801a0 <frame_dummy+0x34>)
   80182:	b102      	cbz	r2, 80186 <frame_dummy+0x1a>
   80184:	4790      	blx	r2
   80186:	e8bd 4008 	ldmia.w	sp!, {r3, lr}
   8018a:	f7ff bfc5 	b.w	80118 <register_tm_clones>
   8018e:	bf00      	nop
   80190:	00000000 	.word	0x00000000
   80194:	00089e24 	.word	0x00089e24
   80198:	2007090c 	.word	0x2007090c
   8019c:	00089e24 	.word	0x00089e24
   801a0:	00000000 	.word	0x00000000

000801a4 <setupADC>:
*  Author: Ali
*/
#include <asf.h>
#include "ADCFunctions.h"

void setupADC(void){
   801a4:	b538      	push	{r3, r4, r5, lr}
	pmc_enable_periph_clk(ID_TC0);
   801a6:	f04f 001b 	mov.w	r0, #27
   801aa:	f243 65b9 	movw	r5, #14009	; 0x36b9
   801ae:	f2c0 0508 	movt	r5, #8
   801b2:	47a8      	blx	r5
	tc_init(TC0,0,0);		 /* TC0, channel 0, TCLK1 och capturemode */
   801b4:	f04f 0400 	mov.w	r4, #0
   801b8:	f2c4 0408 	movt	r4, #16392	; 0x4008
   801bc:	4620      	mov	r0, r4
   801be:	f04f 0100 	mov.w	r1, #0
   801c2:	460a      	mov	r2, r1
   801c4:	f642 6371 	movw	r3, #11889	; 0x2e71
   801c8:	f2c0 0308 	movt	r3, #8
   801cc:	4798      	blx	r3
	tc_set_block_mode(TC0,0);
   801ce:	4620      	mov	r0, r4
   801d0:	f04f 0100 	mov.w	r1, #0
   801d4:	f642 628d 	movw	r2, #11917	; 0x2e8d
   801d8:	f2c0 0208 	movt	r2, #8
   801dc:	4790      	blx	r2
	tc_stop(TC0,0);			/* making sure the timer does not run  */
   801de:	4620      	mov	r0, r4
   801e0:	f04f 0100 	mov.w	r1, #0
   801e4:	f642 6495 	movw	r4, #11925	; 0x2e95
   801e8:	f2c0 0408 	movt	r4, #8
   801ec:	47a0      	blx	r4
	
	pmc_enable_periph_clk(ID_ADC);
   801ee:	f04f 0025 	mov.w	r0, #37	; 0x25
   801f2:	47a8      	blx	r5
	adc_init(ADC, sysclk_get_main_hz(), 20000000, 0);
   801f4:	f04f 0400 	mov.w	r4, #0
   801f8:	f2c4 040c 	movt	r4, #16396	; 0x400c
   801fc:	4620      	mov	r0, r4
   801fe:	f44f 41f4 	mov.w	r1, #31232	; 0x7a00
   80202:	f6c0 2103 	movt	r1, #2563	; 0xa03
   80206:	f44f 5234 	mov.w	r2, #11520	; 0x2d00
   8020a:	f2c0 1231 	movt	r2, #305	; 0x131
   8020e:	f04f 0300 	mov.w	r3, #0
   80212:	f240 3529 	movw	r5, #809	; 0x329
   80216:	f2c0 0508 	movt	r5, #8
   8021a:	47a8      	blx	r5
	adc_configure_timing(ADC, 0, ADC_SETTLING_TIME_3, 1);
   8021c:	4620      	mov	r0, r4
   8021e:	f04f 0100 	mov.w	r1, #0
   80222:	f44f 1240 	mov.w	r2, #3145728	; 0x300000
   80226:	f04f 0301 	mov.w	r3, #1
   8022a:	f240 3589 	movw	r5, #905	; 0x389
   8022e:	f2c0 0508 	movt	r5, #8
   80232:	47a8      	blx	r5
	adc_set_resolution(ADC, ADC_MR_LOWRES_BITS_10);
   80234:	4620      	mov	r0, r4
   80236:	f04f 0110 	mov.w	r1, #16
   8023a:	f240 3369 	movw	r3, #873	; 0x369
   8023e:	f2c0 0308 	movt	r3, #8
   80242:	4798      	blx	r3
	adc_enable_channel(ADC, A8);
   80244:	4620      	mov	r0, r4
   80246:	f04f 010a 	mov.w	r1, #10
   8024a:	f240 32b1 	movw	r2, #945	; 0x3b1
   8024e:	f2c0 0208 	movt	r2, #8
   80252:	4790      	blx	r2
	adc_enable_interrupt(ADC, ADC_IER_DRDY);
   80254:	4620      	mov	r0, r4
   80256:	f04f 7180 	mov.w	r1, #16777216	; 0x1000000
   8025a:	f240 33d1 	movw	r3, #977	; 0x3d1
   8025e:	f2c0 0308 	movt	r3, #8
   80262:	4798      	blx	r3
	adc_configure_trigger(ADC, ADC_TRIG_SW, 0);
   80264:	4620      	mov	r0, r4
   80266:	f04f 0100 	mov.w	r1, #0
   8026a:	460a      	mov	r2, r1
   8026c:	f240 3379 	movw	r3, #889	; 0x379
   80270:	f2c0 0308 	movt	r3, #8
   80274:	4798      	blx	r3
   80276:	bd38      	pop	{r3, r4, r5, pc}

00080278 <readADC>:
	
}

uint32_t readADC(uint8_t pin){
   80278:	b538      	push	{r3, r4, r5, lr}
   8027a:	4605      	mov	r5, r0
	uint32_t adcValue;
	
	adc_start(ADC);
   8027c:	f04f 0400 	mov.w	r4, #0
   80280:	f2c4 040c 	movt	r4, #16396	; 0x400c
   80284:	4620      	mov	r0, r4
   80286:	f240 33a9 	movw	r3, #937	; 0x3a9
   8028a:	f2c0 0308 	movt	r3, #8
   8028e:	4798      	blx	r3
	adcValue = adc_get_channel_value(ADC, pin);
   80290:	4620      	mov	r0, r4
   80292:	4629      	mov	r1, r5
   80294:	f240 32bd 	movw	r2, #957	; 0x3bd
   80298:	f2c0 0208 	movt	r2, #8
   8029c:	4790      	blx	r2
	return adcValue;
   8029e:	bd38      	pop	{r3, r4, r5, pc}

000802a0 <_read>:
int __attribute__((weak))
_read (int file, char * ptr, int len); // Remove GCC compiler warning

int __attribute__((weak))
_read (int file, char * ptr, int len)
{
   802a0:	e92d 43f8 	stmdb	sp!, {r3, r4, r5, r6, r7, r8, r9, lr}
   802a4:	460c      	mov	r4, r1
   802a6:	4690      	mov	r8, r2
	int nChars = 0;

	if (file != 0) {
   802a8:	bb48      	cbnz	r0, 802fe <_read+0x5e>
		return -1;
	}

	for (; len > 0; --len) {
   802aa:	2a00      	cmp	r2, #0
   802ac:	dd2b      	ble.n	80306 <_read+0x66>

int __attribute__((weak))
_read (int file, char * ptr, int len); // Remove GCC compiler warning

int __attribute__((weak))
_read (int file, char * ptr, int len)
   802ae:	188f      	adds	r7, r1, r2
	if (file != 0) {
		return -1;
	}

	for (; len > 0; --len) {
		ptr_get(stdio_base, ptr);
   802b0:	f64a 46f4 	movw	r6, #44276	; 0xacf4
   802b4:	f2c2 0607 	movt	r6, #8199	; 0x2007
   802b8:	f64a 35fc 	movw	r5, #44028	; 0xabfc
   802bc:	f2c2 0507 	movt	r5, #8199	; 0x2007
   802c0:	ea6f 0901 	mvn.w	r9, r1
   802c4:	eb07 0009 	add.w	r0, r7, r9
   802c8:	f000 0901 	and.w	r9, r0, #1
   802cc:	6830      	ldr	r0, [r6, #0]
   802ce:	682b      	ldr	r3, [r5, #0]
   802d0:	4798      	blx	r3
		ptr++;
   802d2:	f104 0401 	add.w	r4, r4, #1

	if (file != 0) {
		return -1;
	}

	for (; len > 0; --len) {
   802d6:	42bc      	cmp	r4, r7
   802d8:	d119      	bne.n	8030e <_read+0x6e>
   802da:	e00d      	b.n	802f8 <_read+0x58>
		ptr_get(stdio_base, ptr);
   802dc:	6830      	ldr	r0, [r6, #0]
   802de:	682b      	ldr	r3, [r5, #0]
   802e0:	4621      	mov	r1, r4
   802e2:	4798      	blx	r3
		ptr++;
   802e4:	f104 0401 	add.w	r4, r4, #1
   802e8:	4621      	mov	r1, r4
	if (file != 0) {
		return -1;
	}

	for (; len > 0; --len) {
		ptr_get(stdio_base, ptr);
   802ea:	6830      	ldr	r0, [r6, #0]
   802ec:	682a      	ldr	r2, [r5, #0]
   802ee:	4790      	blx	r2
		ptr++;
   802f0:	f104 0401 	add.w	r4, r4, #1

	if (file != 0) {
		return -1;
	}

	for (; len > 0; --len) {
   802f4:	42bc      	cmp	r4, r7
   802f6:	d1f1      	bne.n	802dc <_read+0x3c>
		ptr_get(stdio_base, ptr);
		ptr++;
		nChars++;
   802f8:	4640      	mov	r0, r8
   802fa:	e8bd 83f8 	ldmia.w	sp!, {r3, r4, r5, r6, r7, r8, r9, pc}
_read (int file, char * ptr, int len)
{
	int nChars = 0;

	if (file != 0) {
		return -1;
   802fe:	f04f 30ff 	mov.w	r0, #4294967295
   80302:	e8bd 83f8 	ldmia.w	sp!, {r3, r4, r5, r6, r7, r8, r9, pc}
	}

	for (; len > 0; --len) {
   80306:	f04f 0000 	mov.w	r0, #0
		ptr_get(stdio_base, ptr);
		ptr++;
		nChars++;
	}
	return nChars;
}
   8030a:	e8bd 83f8 	ldmia.w	sp!, {r3, r4, r5, r6, r7, r8, r9, pc}
   8030e:	f1b9 0f00 	cmp.w	r9, #0
   80312:	d0e3      	beq.n	802dc <_read+0x3c>
	if (file != 0) {
		return -1;
	}

	for (; len > 0; --len) {
		ptr_get(stdio_base, ptr);
   80314:	6830      	ldr	r0, [r6, #0]
   80316:	682a      	ldr	r2, [r5, #0]
   80318:	4621      	mov	r1, r4
   8031a:	4790      	blx	r2
		ptr++;
   8031c:	f104 0401 	add.w	r4, r4, #1

	if (file != 0) {
		return -1;
	}

	for (; len > 0; --len) {
   80320:	42bc      	cmp	r4, r7
   80322:	d1db      	bne.n	802dc <_read+0x3c>
   80324:	e7e8      	b.n	802f8 <_read+0x58>
   80326:	bf00      	nop

00080328 <adc_init>:
 *
 * \return 0 on success.
 */
uint32_t adc_init(Adc *p_adc, const uint32_t ul_mck,
		const uint32_t ul_adc_clock, const enum adc_startup_time startup)
{
   80328:	b430      	push	{r4, r5}
	uint32_t ul_prescal;

	/*  Reset the controller. */
	p_adc->ADC_CR = ADC_CR_SWRST;
   8032a:	f04f 0401 	mov.w	r4, #1
   8032e:	6004      	str	r4, [r0, #0]

	/* Reset Mode Register. */
	p_adc->ADC_MR = 0;
   80330:	f04f 0400 	mov.w	r4, #0
   80334:	6044      	str	r4, [r0, #4]

	/* Reset PDC transfer. */
	p_adc->ADC_PTCR = (ADC_PTCR_RXTDIS | ADC_PTCR_TXTDIS);
   80336:	f240 2502 	movw	r5, #514	; 0x202
   8033a:	f8c0 5120 	str.w	r5, [r0, #288]	; 0x120
	p_adc->ADC_RCR = 0;
   8033e:	f8c0 4104 	str.w	r4, [r0, #260]	; 0x104
	p_adc->ADC_RNCR = 0;
   80342:	f8c0 4114 	str.w	r4, [r0, #276]	; 0x114

	ul_prescal = ul_mck / (2 * ul_adc_clock) - 1;
	p_adc->ADC_MR |= ADC_MR_PRESCAL(ul_prescal) | startup;
   80346:	6845      	ldr	r5, [r0, #4]
   80348:	432b      	orrs	r3, r5
	/* Reset PDC transfer. */
	p_adc->ADC_PTCR = (ADC_PTCR_RXTDIS | ADC_PTCR_TXTDIS);
	p_adc->ADC_RCR = 0;
	p_adc->ADC_RNCR = 0;

	ul_prescal = ul_mck / (2 * ul_adc_clock) - 1;
   8034a:	ea4f 0242 	mov.w	r2, r2, lsl #1
   8034e:	fbb1 f1f2 	udiv	r1, r1, r2
   80352:	f101 32ff 	add.w	r2, r1, #4294967295
	p_adc->ADC_MR |= ADC_MR_PRESCAL(ul_prescal) | startup;
   80356:	ea4f 6102 	mov.w	r1, r2, lsl #24
   8035a:	ea43 4311 	orr.w	r3, r3, r1, lsr #16
   8035e:	6043      	str	r3, [r0, #4]
	return 0;
}
   80360:	4620      	mov	r0, r4
   80362:	bc30      	pop	{r4, r5}
   80364:	4770      	bx	lr
   80366:	bf00      	nop

00080368 <adc_set_resolution>:
		p_adc->ADC_MR &= ~ADC_MR_LOWRES;
		p_adc->ADC_EMR |= resolution;
		break;
	}
#else
	p_adc->ADC_MR &= ~ADC_MR_LOWRES;
   80368:	6843      	ldr	r3, [r0, #4]
   8036a:	f023 0210 	bic.w	r2, r3, #16
   8036e:	6042      	str	r2, [r0, #4]
	p_adc->ADC_MR |= resolution;
   80370:	6843      	ldr	r3, [r0, #4]
   80372:	4319      	orrs	r1, r3
   80374:	6041      	str	r1, [r0, #4]
   80376:	4770      	bx	lr

00080378 <adc_configure_trigger>:
 *
 */
void adc_configure_trigger(Adc *p_adc, const enum adc_trigger_t trigger,
		uint8_t uc_freerun)
{
	p_adc->ADC_MR |= trigger | ((uc_freerun << 7) & ADC_MR_FREERUN);
   80378:	6843      	ldr	r3, [r0, #4]
   8037a:	4319      	orrs	r1, r3
   8037c:	ea4f 12c2 	mov.w	r2, r2, lsl #7
   80380:	b2d3      	uxtb	r3, r2
   80382:	4319      	orrs	r1, r3
   80384:	6041      	str	r1, [r0, #4]
   80386:	4770      	bx	lr

00080388 <adc_configure_timing>:
 * \param uc_settling Analog settling time = (uc_settling + 1) / ADC clock.
 * \param uc_transfer Data transfer time = (uc_transfer * 2 + 3) / ADC clock.
 */
void adc_configure_timing(Adc *p_adc, const uint8_t uc_tracking,
		const enum adc_settling_time_t settling,const uint8_t uc_transfer)
{
   80388:	b410      	push	{r4}
	p_adc->ADC_MR |= ADC_MR_TRANSFER(uc_transfer)
   8038a:	6844      	ldr	r4, [r0, #4]
			| settling | ADC_MR_TRACKTIM(uc_tracking);
   8038c:	4322      	orrs	r2, r4
   8038e:	ea4f 6101 	mov.w	r1, r1, lsl #24
   80392:	f001 6470 	and.w	r4, r1, #251658240	; 0xf000000
   80396:	4322      	orrs	r2, r4
 * \param uc_transfer Data transfer time = (uc_transfer * 2 + 3) / ADC clock.
 */
void adc_configure_timing(Adc *p_adc, const uint8_t uc_tracking,
		const enum adc_settling_time_t settling,const uint8_t uc_transfer)
{
	p_adc->ADC_MR |= ADC_MR_TRANSFER(uc_transfer)
   80398:	ea4f 7303 	mov.w	r3, r3, lsl #28
   8039c:	f003 5140 	and.w	r1, r3, #805306368	; 0x30000000
   803a0:	430a      	orrs	r2, r1
   803a2:	6042      	str	r2, [r0, #4]
			| settling | ADC_MR_TRACKTIM(uc_tracking);
}
   803a4:	bc10      	pop	{r4}
   803a6:	4770      	bx	lr

000803a8 <adc_start>:
 * \param p_adc Pointer to an ADC instance.
 */

void adc_start(Adc *p_adc)
{
	p_adc->ADC_CR = ADC_CR_START;
   803a8:	f04f 0302 	mov.w	r3, #2
   803ac:	6003      	str	r3, [r0, #0]
   803ae:	4770      	bx	lr

000803b0 <adc_enable_channel>:
 * \param p_adc Pointer to an ADC instance.
 * \param adc_ch ADC channel number.
 */
void adc_enable_channel(Adc *p_adc, const enum adc_channel_num_t adc_ch)
{
	p_adc->ADC_CHER = 1 << adc_ch;
   803b0:	f04f 0301 	mov.w	r3, #1
   803b4:	fa03 f101 	lsl.w	r1, r3, r1
   803b8:	6101      	str	r1, [r0, #16]
   803ba:	4770      	bx	lr

000803bc <adc_get_channel_value>:
 */
uint32_t adc_get_channel_value(const Adc *p_adc, const enum adc_channel_num_t adc_ch)
{
	uint32_t ul_data = 0;

	if (15 >= adc_ch) {
   803bc:	290f      	cmp	r1, #15
   803be:	d804      	bhi.n	803ca <adc_get_channel_value+0xe>
		ul_data = *(p_adc->ADC_CDR + adc_ch);
   803c0:	f101 0114 	add.w	r1, r1, #20
   803c4:	f850 0021 	ldr.w	r0, [r0, r1, lsl #2]
   803c8:	4770      	bx	lr
 *
 * \return ADC value of the specified channel.
 */
uint32_t adc_get_channel_value(const Adc *p_adc, const enum adc_channel_num_t adc_ch)
{
	uint32_t ul_data = 0;
   803ca:	f04f 0000 	mov.w	r0, #0
	if (15 >= adc_ch) {
		ul_data = *(p_adc->ADC_CDR + adc_ch);
	}

	return ul_data;
}
   803ce:	4770      	bx	lr

000803d0 <adc_enable_interrupt>:
 * \param p_adc Pointer to an ADC instance.
 * \param ul_source Interrupts to be enabled.
 */
void adc_enable_interrupt(Adc *p_adc, const uint32_t ul_source)
{
	p_adc->ADC_IER = ul_source;
   803d0:	6241      	str	r1, [r0, #36]	; 0x24
   803d2:	4770      	bx	lr

000803d4 <usart_serial_getchar>:
 * \param p_usart   Base address of the USART instance.
 * \param data   Data to read
 *
 */
static inline void usart_serial_getchar(usart_if p_usart, uint8_t *data)
{
   803d4:	b5f0      	push	{r4, r5, r6, r7, lr}
   803d6:	b083      	sub	sp, #12
   803d8:	4604      	mov	r4, r0
   803da:	460d      	mov	r5, r1
	uint32_t val = 0;
   803dc:	f04f 0300 	mov.w	r3, #0
   803e0:	9301      	str	r3, [sp, #4]

	/* Avoid Cppcheck Warning */
	UNUSED(val);

#ifdef UART
	if (UART == (Uart*)p_usart) {
   803e2:	f44f 6000 	mov.w	r0, #2048	; 0x800
   803e6:	f2c4 000e 	movt	r0, #16398	; 0x400e
   803ea:	4284      	cmp	r4, r0
   803ec:	d10d      	bne.n	8040a <usart_serial_getchar+0x36>
		while (uart_read((Uart*)p_usart, data));
   803ee:	f44f 6600 	mov.w	r6, #2048	; 0x800
   803f2:	f2c4 060e 	movt	r6, #16398	; 0x400e
   803f6:	f642 67fd 	movw	r7, #12029	; 0x2efd
   803fa:	f2c0 0708 	movt	r7, #8
   803fe:	4630      	mov	r0, r6
   80400:	4629      	mov	r1, r5
   80402:	47b8      	blx	r7
   80404:	2800      	cmp	r0, #0
   80406:	d1fa      	bne.n	803fe <usart_serial_getchar+0x2a>
   80408:	e02b      	b.n	80462 <usart_serial_getchar+0x8e>
		while (usart_read(p_usart, &val));
		*data = (uint8_t)(val & 0xFF);
	}
#else
# ifdef USART0
	if (USART0 == p_usart) {
   8040a:	f44f 4100 	mov.w	r1, #32768	; 0x8000
   8040e:	f2c4 0109 	movt	r1, #16393	; 0x4009
   80412:	428c      	cmp	r4, r1
   80414:	d10f      	bne.n	80436 <usart_serial_getchar+0x62>
		while (usart_read(p_usart, &val));
   80416:	f44f 4600 	mov.w	r6, #32768	; 0x8000
   8041a:	f2c4 0609 	movt	r6, #16393	; 0x4009
   8041e:	f642 7735 	movw	r7, #12085	; 0x2f35
   80422:	f2c0 0708 	movt	r7, #8
   80426:	4630      	mov	r0, r6
   80428:	a901      	add	r1, sp, #4
   8042a:	47b8      	blx	r7
   8042c:	2800      	cmp	r0, #0
   8042e:	d1fa      	bne.n	80426 <usart_serial_getchar+0x52>
		*data = (uint8_t)(val & 0xFF);
   80430:	9801      	ldr	r0, [sp, #4]
   80432:	7028      	strb	r0, [r5, #0]
   80434:	e02b      	b.n	8048e <usart_serial_getchar+0xba>
	}
# endif
# ifdef USART1
	if (USART1 == p_usart) {
   80436:	f44f 4240 	mov.w	r2, #49152	; 0xc000
   8043a:	f2c4 0209 	movt	r2, #16393	; 0x4009
   8043e:	4294      	cmp	r4, r2
   80440:	d10f      	bne.n	80462 <usart_serial_getchar+0x8e>
		while (usart_read(p_usart, &val));
   80442:	f44f 4440 	mov.w	r4, #49152	; 0xc000
   80446:	f2c4 0409 	movt	r4, #16393	; 0x4009
   8044a:	f642 7635 	movw	r6, #12085	; 0x2f35
   8044e:	f2c0 0608 	movt	r6, #8
   80452:	4620      	mov	r0, r4
   80454:	a901      	add	r1, sp, #4
   80456:	47b0      	blx	r6
   80458:	2800      	cmp	r0, #0
   8045a:	d1fa      	bne.n	80452 <usart_serial_getchar+0x7e>
		*data = (uint8_t)(val & 0xFF);
   8045c:	9b01      	ldr	r3, [sp, #4]
   8045e:	702b      	strb	r3, [r5, #0]
   80460:	e02a      	b.n	804b8 <usart_serial_getchar+0xe4>
	}
# endif
# ifdef USART2
	if (USART2 == p_usart) {
   80462:	f04f 0100 	mov.w	r1, #0
   80466:	f2c4 010a 	movt	r1, #16394	; 0x400a
   8046a:	428c      	cmp	r4, r1
   8046c:	d10f      	bne.n	8048e <usart_serial_getchar+0xba>
		while (usart_read(p_usart, &val));
   8046e:	f04f 0400 	mov.w	r4, #0
   80472:	f2c4 040a 	movt	r4, #16394	; 0x400a
   80476:	f642 7635 	movw	r6, #12085	; 0x2f35
   8047a:	f2c0 0608 	movt	r6, #8
   8047e:	4620      	mov	r0, r4
   80480:	a901      	add	r1, sp, #4
   80482:	47b0      	blx	r6
   80484:	2800      	cmp	r0, #0
   80486:	d1fa      	bne.n	8047e <usart_serial_getchar+0xaa>
		*data = (uint8_t)(val & 0xFF);
   80488:	9801      	ldr	r0, [sp, #4]
   8048a:	7028      	strb	r0, [r5, #0]
   8048c:	e014      	b.n	804b8 <usart_serial_getchar+0xe4>
	}
# endif
# ifdef USART3
	if (USART3 == p_usart) {
   8048e:	f44f 4280 	mov.w	r2, #16384	; 0x4000
   80492:	f2c4 020a 	movt	r2, #16394	; 0x400a
   80496:	4294      	cmp	r4, r2
   80498:	d10e      	bne.n	804b8 <usart_serial_getchar+0xe4>
		while (usart_read(p_usart, &val));
   8049a:	f44f 4480 	mov.w	r4, #16384	; 0x4000
   8049e:	f2c4 040a 	movt	r4, #16394	; 0x400a
   804a2:	f642 7635 	movw	r6, #12085	; 0x2f35
   804a6:	f2c0 0608 	movt	r6, #8
   804aa:	4620      	mov	r0, r4
   804ac:	a901      	add	r1, sp, #4
   804ae:	47b0      	blx	r6
   804b0:	2800      	cmp	r0, #0
   804b2:	d1fa      	bne.n	804aa <usart_serial_getchar+0xd6>
		*data = (uint8_t)(val & 0xFF);
   804b4:	9b01      	ldr	r3, [sp, #4]
   804b6:	702b      	strb	r3, [r5, #0]
		*data = (uint8_t)(val & 0xFF);
	}
# endif
#endif /* ifdef USART */

}
   804b8:	b003      	add	sp, #12
   804ba:	bdf0      	pop	{r4, r5, r6, r7, pc}

000804bc <usart_serial_putchar>:
 *   \retval 1  The character was written.
 *   \retval 0  The function timed out before the USART transmitter became
 * ready to send.
 */
static inline int usart_serial_putchar(usart_if p_usart, const uint8_t c)
{
   804bc:	b570      	push	{r4, r5, r6, lr}
   804be:	460c      	mov	r4, r1
#ifdef UART
	if (UART == (Uart*)p_usart) {
   804c0:	f44f 6300 	mov.w	r3, #2048	; 0x800
   804c4:	f2c4 030e 	movt	r3, #16398	; 0x400e
   804c8:	4298      	cmp	r0, r3
   804ca:	d10f      	bne.n	804ec <usart_serial_putchar+0x30>
		while (uart_write((Uart*)p_usart, c)!=0);
   804cc:	f44f 6500 	mov.w	r5, #2048	; 0x800
   804d0:	f2c4 050e 	movt	r5, #16398	; 0x400e
   804d4:	f642 66e5 	movw	r6, #12005	; 0x2ee5
   804d8:	f2c0 0608 	movt	r6, #8
   804dc:	4628      	mov	r0, r5
   804de:	4621      	mov	r1, r4
   804e0:	47b0      	blx	r6
   804e2:	2800      	cmp	r0, #0
   804e4:	d1fa      	bne.n	804dc <usart_serial_putchar+0x20>
		return 1;
   804e6:	f04f 0001 	mov.w	r0, #1
   804ea:	bd70      	pop	{r4, r5, r6, pc}
		while (usart_write(p_usart, c)!=0);
		return 1;
	}
#else
# ifdef USART0
	if (USART0 == p_usart) {
   804ec:	f44f 4100 	mov.w	r1, #32768	; 0x8000
   804f0:	f2c4 0109 	movt	r1, #16393	; 0x4009
   804f4:	4288      	cmp	r0, r1
   804f6:	d10f      	bne.n	80518 <usart_serial_putchar+0x5c>
		while (usart_write(p_usart, c)!=0);
   804f8:	f44f 4500 	mov.w	r5, #32768	; 0x8000
   804fc:	f2c4 0509 	movt	r5, #16393	; 0x4009
   80500:	f642 7615 	movw	r6, #12053	; 0x2f15
   80504:	f2c0 0608 	movt	r6, #8
   80508:	4628      	mov	r0, r5
   8050a:	4621      	mov	r1, r4
   8050c:	47b0      	blx	r6
   8050e:	2800      	cmp	r0, #0
   80510:	d1fa      	bne.n	80508 <usart_serial_putchar+0x4c>
		return 1;
   80512:	f04f 0001 	mov.w	r0, #1
   80516:	bd70      	pop	{r4, r5, r6, pc}
	}
# endif
# ifdef USART1
	if (USART1 == p_usart) {
   80518:	f44f 4240 	mov.w	r2, #49152	; 0xc000
   8051c:	f2c4 0209 	movt	r2, #16393	; 0x4009
   80520:	4290      	cmp	r0, r2
   80522:	d10f      	bne.n	80544 <usart_serial_putchar+0x88>
		while (usart_write(p_usart, c)!=0);
   80524:	f44f 4540 	mov.w	r5, #49152	; 0xc000
   80528:	f2c4 0509 	movt	r5, #16393	; 0x4009
   8052c:	f642 7615 	movw	r6, #12053	; 0x2f15
   80530:	f2c0 0608 	movt	r6, #8
   80534:	4628      	mov	r0, r5
   80536:	4621      	mov	r1, r4
   80538:	47b0      	blx	r6
   8053a:	2800      	cmp	r0, #0
   8053c:	d1fa      	bne.n	80534 <usart_serial_putchar+0x78>
		return 1;
   8053e:	f04f 0001 	mov.w	r0, #1
   80542:	bd70      	pop	{r4, r5, r6, pc}
	}
# endif
# ifdef USART2
	if (USART2 == p_usart) {
   80544:	f04f 0300 	mov.w	r3, #0
   80548:	f2c4 030a 	movt	r3, #16394	; 0x400a
   8054c:	4298      	cmp	r0, r3
   8054e:	d10f      	bne.n	80570 <usart_serial_putchar+0xb4>
		while (usart_write(p_usart, c)!=0);
   80550:	f04f 0500 	mov.w	r5, #0
   80554:	f2c4 050a 	movt	r5, #16394	; 0x400a
   80558:	f642 7615 	movw	r6, #12053	; 0x2f15
   8055c:	f2c0 0608 	movt	r6, #8
   80560:	4628      	mov	r0, r5
   80562:	4621      	mov	r1, r4
   80564:	47b0      	blx	r6
   80566:	2800      	cmp	r0, #0
   80568:	d1fa      	bne.n	80560 <usart_serial_putchar+0xa4>
		return 1;
   8056a:	f04f 0001 	mov.w	r0, #1
   8056e:	bd70      	pop	{r4, r5, r6, pc}
	}
# endif
# ifdef USART3
	if (USART3 == p_usart) {
   80570:	f44f 4180 	mov.w	r1, #16384	; 0x4000
   80574:	f2c4 010a 	movt	r1, #16394	; 0x400a
   80578:	4288      	cmp	r0, r1
   8057a:	d10f      	bne.n	8059c <usart_serial_putchar+0xe0>
		while (usart_write(p_usart, c)!=0);
   8057c:	f44f 4580 	mov.w	r5, #16384	; 0x4000
   80580:	f2c4 050a 	movt	r5, #16394	; 0x400a
   80584:	f642 7615 	movw	r6, #12053	; 0x2f15
   80588:	f2c0 0608 	movt	r6, #8
   8058c:	4628      	mov	r0, r5
   8058e:	4621      	mov	r1, r4
   80590:	47b0      	blx	r6
   80592:	2800      	cmp	r0, #0
   80594:	d1fa      	bne.n	8058c <usart_serial_putchar+0xd0>
		return 1;
   80596:	f04f 0001 	mov.w	r0, #1
   8059a:	bd70      	pop	{r4, r5, r6, pc}
		return 1;
	}
# endif
#endif /* ifdef USART */

	return 0;
   8059c:	f04f 0000 	mov.w	r0, #0
}
   805a0:	bd70      	pop	{r4, r5, r6, pc}
   805a2:	bf00      	nop

000805a4 <setupUART>:
#include <asf.h>
#include "BluetoothUART.h"



void setupUART(void){
   805a4:	b530      	push	{r4, r5, lr}
   805a6:	b085      	sub	sp, #20
	pio_configure(PINS_UART_PIO, PINS_UART_TYPE, PINS_UART_MASK, PIO_DEFAULT);
   805a8:	f44f 6460 	mov.w	r4, #3584	; 0xe00
   805ac:	f2c4 040e 	movt	r4, #16398	; 0x400e
   805b0:	4620      	mov	r0, r4
   805b2:	f04f 6100 	mov.w	r1, #134217728	; 0x8000000
   805b6:	f44f 7240 	mov.w	r2, #768	; 0x300
   805ba:	f04f 0300 	mov.w	r3, #0
   805be:	f243 154d 	movw	r5, #12621	; 0x314d
   805c2:	f2c0 0508 	movt	r5, #8
   805c6:	47a8      	blx	r5
	pmc_enable_periph_clk(ID_UART);
   805c8:	f04f 0008 	mov.w	r0, #8
   805cc:	f243 63b9 	movw	r3, #14009	; 0x36b9
   805d0:	f2c0 0308 	movt	r3, #8
   805d4:	4798      	blx	r3
	
	const sam_uart_opt_t uart0_settings = { sysclk_get_cpu_hz(), CONF_UART_BAUDRATE, UART_MR_PAR_NO };
   805d6:	f44f 403d 	mov.w	r0, #48384	; 0xbd00
   805da:	f2c0 5001 	movt	r0, #1281	; 0x501
   805de:	9001      	str	r0, [sp, #4]
   805e0:	f44f 31e1 	mov.w	r1, #115200	; 0x1c200
   805e4:	9102      	str	r1, [sp, #8]
   805e6:	f44f 6200 	mov.w	r2, #2048	; 0x800
   805ea:	9203      	str	r2, [sp, #12]
		ioport_port_mask_t mask, ioport_mode_t mode)
{
	Pio *base = arch_ioport_port_to_base(port);

	if (mode & IOPORT_MODE_PULLUP) {
		base->PIO_PUER = mask;
   805ec:	f44f 7380 	mov.w	r3, #256	; 0x100
   805f0:	6663      	str	r3, [r4, #100]	; 0x64
#endif

	if (mode & IOPORT_MODE_OPEN_DRAIN) {
		base->PIO_MDER = mask;
	} else {
		base->PIO_MDDR = mask;
   805f2:	6563      	str	r3, [r4, #84]	; 0x54
	}

	if (mode & (IOPORT_MODE_GLITCH_FILTER | IOPORT_MODE_DEBOUNCE)) {
		base->PIO_IFER = mask;
	} else {
		base->PIO_IFDR = mask;
   805f4:	6263      	str	r3, [r4, #36]	; 0x24
#else
		base->PIO_IFSCER = mask;
#endif
	} else {
#if SAM3U || SAM3XA
		base->PIO_SCIFSR = mask;
   805f6:	f8c4 3080 	str.w	r3, [r4, #128]	; 0x80

#if !defined(IOPORT_MODE_MUX_BIT1)
	if (mode & IOPORT_MODE_MUX_BIT0) {
		base->PIO_ABSR |= mask;
	} else {
		base->PIO_ABSR &= ~mask;
   805fa:	6f20      	ldr	r0, [r4, #112]	; 0x70
   805fc:	f420 7180 	bic.w	r1, r0, #256	; 0x100
   80600:	6721      	str	r1, [r4, #112]	; 0x70
	ioport_set_pin_mode(PIO_PA8_IDX, IOPORT_MODE_PULLUP);
	uart_init(UART, &uart0_settings);	
   80602:	f44f 6000 	mov.w	r0, #2048	; 0x800
   80606:	f2c4 000e 	movt	r0, #16398	; 0x400e
   8060a:	a901      	add	r1, sp, #4
   8060c:	f642 62a1 	movw	r2, #11937	; 0x2ea1
   80610:	f2c0 0208 	movt	r2, #8
   80614:	4790      	blx	r2
}
   80616:	b005      	add	sp, #20
   80618:	bd30      	pop	{r4, r5, pc}
   8061a:	bf00      	nop

0008061c <setupSTDIO>:

void setupSTDIO(void){
   8061c:	b530      	push	{r4, r5, lr}
   8061e:	b085      	sub	sp, #20
 * \param opt         Options needed to set up RS232 communication (see \ref usart_options_t).
 *
 */
static inline void stdio_serial_init(volatile void *usart, const usart_serial_options_t *opt)
{
	stdio_base = (void *)usart;
   80620:	f44f 6400 	mov.w	r4, #2048	; 0x800
   80624:	f2c4 040e 	movt	r4, #16398	; 0x400e
   80628:	f64a 43f4 	movw	r3, #44276	; 0xacf4
   8062c:	f2c2 0307 	movt	r3, #8199	; 0x2007
   80630:	601c      	str	r4, [r3, #0]
	ptr_put = (int (*)(void volatile*,char))&usart_serial_putchar;
   80632:	f64a 40f0 	movw	r0, #44272	; 0xacf0
   80636:	f2c2 0007 	movt	r0, #8199	; 0x2007
   8063a:	f240 42bd 	movw	r2, #1213	; 0x4bd
   8063e:	f2c0 0208 	movt	r2, #8
   80642:	6002      	str	r2, [r0, #0]
	ptr_get = (void (*)(void volatile*,char*))&usart_serial_getchar;
   80644:	f64a 31fc 	movw	r1, #44028	; 0xabfc
   80648:	f2c2 0107 	movt	r1, #8199	; 0x2007
   8064c:	f240 35d5 	movw	r5, #981	; 0x3d5
   80650:	f2c0 0508 	movt	r5, #8
   80654:	600d      	str	r5, [r1, #0]
static inline void usart_serial_init(usart_if p_usart,
		usart_serial_options_t *opt)
{
#if (!SAM4L)
	sam_uart_opt_t uart_settings;
	uart_settings.ul_mck = sysclk_get_peripheral_hz();
   80656:	f44f 433d 	mov.w	r3, #48384	; 0xbd00
   8065a:	f2c0 5301 	movt	r3, #1281	; 0x501
   8065e:	9301      	str	r3, [sp, #4]
	uart_settings.ul_baudrate = opt->baudrate;
   80660:	f44f 30e1 	mov.w	r0, #115200	; 0x1c200
   80664:	9002      	str	r0, [sp, #8]
	uart_settings.ul_mode = opt->paritytype;
   80666:	f44f 6200 	mov.w	r2, #2048	; 0x800
   8066a:	9203      	str	r2, [sp, #12]
 *
 * \param ul_id Id (number) of the peripheral clock.
 */
static inline void sysclk_enable_peripheral_clock(uint32_t ul_id)
{
	pmc_enable_periph_clk(ul_id);
   8066c:	f04f 0008 	mov.w	r0, #8
   80670:	f243 61b9 	movw	r1, #14009	; 0x36b9
   80674:	f2c0 0108 	movt	r1, #8
   80678:	4788      	blx	r1
	
#ifdef UART
	if (UART == (Uart*)p_usart) {
		sysclk_enable_peripheral_clock(ID_UART);
		/* Configure UART */
		uart_init((Uart*)p_usart, &uart_settings);
   8067a:	4620      	mov	r0, r4
   8067c:	a901      	add	r1, sp, #4
   8067e:	f642 64a1 	movw	r4, #11937	; 0x2ea1
   80682:	f2c0 0408 	movt	r4, #8
   80686:	47a0      	blx	r4
	fdevopen((int (*)(char, FILE*))(_write),(int (*)(FILE*))(_read));
#  endif
#  if UC3 || SAM
	// For AVR32 and SAM GCC
	// Specify that stdout and stdin should not be buffered.
	setbuf(stdout, NULL);
   80688:	f240 0518 	movw	r5, #24
   8068c:	f2c2 0507 	movt	r5, #8199	; 0x2007
   80690:	682b      	ldr	r3, [r5, #0]
   80692:	6898      	ldr	r0, [r3, #8]
   80694:	f04f 0100 	mov.w	r1, #0
   80698:	f244 54b3 	movw	r4, #17843	; 0x45b3
   8069c:	f2c0 0408 	movt	r4, #8
   806a0:	47a0      	blx	r4
	setbuf(stdin, NULL);
   806a2:	6828      	ldr	r0, [r5, #0]
   806a4:	6840      	ldr	r0, [r0, #4]
   806a6:	f04f 0100 	mov.w	r1, #0
   806aa:	47a0      	blx	r4
	const usart_serial_options_t uart_serial_options = { .baudrate = CONF_UART_BAUDRATE, .paritytype = CONF_UART_PARITY };
	stdio_serial_init(CONF_UART, &uart_serial_options);	
	/* Stdout shall not be buffered */
	#if defined(__GNUC__)
	setbuf(stdout, NULL);
   806ac:	682a      	ldr	r2, [r5, #0]
   806ae:	6890      	ldr	r0, [r2, #8]
   806b0:	f04f 0100 	mov.w	r1, #0
   806b4:	47a0      	blx	r4
	/* Redan i fallet IAR's Normal DLIB default
	konfiguration:
	* sänder en tecken åtgången
	*/
	#endif	
}
   806b6:	b005      	add	sp, #20
   806b8:	bd30      	pop	{r4, r5, pc}
   806ba:	bf00      	nop

000806bc <readByte>:
void sendByte(uint8_t value){
	waitTXReady();
	uart_write(CONF_UART, value);
}

uint8_t readByte(void){
   806bc:	b500      	push	{lr}
   806be:	b083      	sub	sp, #12
	uint8_t value;
	uart_read(CONF_UART, &value);
   806c0:	f44f 6000 	mov.w	r0, #2048	; 0x800
   806c4:	f2c4 000e 	movt	r0, #16398	; 0x400e
   806c8:	f10d 0107 	add.w	r1, sp, #7
   806cc:	f642 63fd 	movw	r3, #12029	; 0x2efd
   806d0:	f2c0 0308 	movt	r3, #8
   806d4:	4798      	blx	r3
	
	return value;
}
   806d6:	f89d 0007 	ldrb.w	r0, [sp, #7]
   806da:	b003      	add	sp, #12
   806dc:	bd00      	pop	{pc}
   806de:	bf00      	nop

000806e0 <isRXReady>:

uint32_t isRXReady(void){
	return UART->UART_SR & UART_SR_RXRDY;
   806e0:	f44f 6300 	mov.w	r3, #2048	; 0x800
   806e4:	f2c4 030e 	movt	r3, #16398	; 0x400e
   806e8:	6958      	ldr	r0, [r3, #20]
}
   806ea:	f000 0001 	and.w	r0, r0, #1
   806ee:	4770      	bx	lr

000806f0 <waitRXReady>:
	while (!(UART->UART_SR & UART_SR_TXRDY));
	return 1;
}

uint32_t waitRXReady(void){
	while (!(UART->UART_SR & UART_SR_RXRDY));
   806f0:	f44f 6200 	mov.w	r2, #2048	; 0x800
   806f4:	f2c4 020e 	movt	r2, #16398	; 0x400e
   806f8:	6953      	ldr	r3, [r2, #20]
   806fa:	f013 0f01 	tst.w	r3, #1
   806fe:	d0fb      	beq.n	806f8 <waitRXReady+0x8>
	return 1;
}
   80700:	f04f 0001 	mov.w	r0, #1
   80704:	4770      	bx	lr
   80706:	bf00      	nop

00080708 <readDouble>:

double readDouble(void){
   80708:	b500      	push	{lr}
   8070a:	b085      	sub	sp, #20
	double result = 0.0;
	char str[10] ={0};
   8070c:	f04f 0300 	mov.w	r3, #0
   80710:	9301      	str	r3, [sp, #4]
   80712:	9302      	str	r3, [sp, #8]
   80714:	f8ad 300c 	strh.w	r3, [sp, #12]
	scanf("%s", str);
   80718:	f649 207c 	movw	r0, #39548	; 0x9a7c
   8071c:	f2c0 0008 	movt	r0, #8
   80720:	a901      	add	r1, sp, #4
   80722:	f244 5251 	movw	r2, #17745	; 0x4551
   80726:	f2c0 0208 	movt	r2, #8
   8072a:	4790      	blx	r2
	result = atof(str);
   8072c:	a801      	add	r0, sp, #4
   8072e:	f244 4191 	movw	r1, #17553	; 0x4491
   80732:	f2c0 0108 	movt	r1, #8
   80736:	4788      	blx	r1

	return result;
   80738:	b005      	add	sp, #20
   8073a:	bd00      	pop	{pc}

0008073c <calcuateMovingAvrage>:
#include "FilterFunctins.h"


static uint32_t position = 0;

uint32_t calcuateMovingAvrage(uint32_t elements[], uint32_t newElement, uint32_t size){
   8073c:	b470      	push	{r4, r5, r6}
	elements[position] = newElement;
   8073e:	f640 1324 	movw	r3, #2340	; 0x924
   80742:	f2c2 0307 	movt	r3, #8199	; 0x2007
   80746:	681c      	ldr	r4, [r3, #0]
   80748:	f840 1024 	str.w	r1, [r0, r4, lsl #2]
	position = (position + 1) % size;
   8074c:	f104 0401 	add.w	r4, r4, #1
   80750:	fbb4 f1f2 	udiv	r1, r4, r2
   80754:	fb02 4411 	mls	r4, r2, r1, r4
   80758:	601c      	str	r4, [r3, #0]
	
	int32_t movingAvrage = 0;
	
	for(uint32_t i = 0; i < size; i++){
   8075a:	b1ba      	cbz	r2, 8078c <calcuateMovingAvrage+0x50>
   8075c:	4603      	mov	r3, r0
#include "FilterFunctins.h"


static uint32_t position = 0;

uint32_t calcuateMovingAvrage(uint32_t elements[], uint32_t newElement, uint32_t size){
   8075e:	eb00 0682 	add.w	r6, r0, r2, lsl #2
   80762:	1a30      	subs	r0, r6, r0
   80764:	f1a0 0004 	sub.w	r0, r0, #4
   80768:	f3c0 0180 	ubfx	r1, r0, #2, #1
	position = (position + 1) % size;
	
	int32_t movingAvrage = 0;
	
	for(uint32_t i = 0; i < size; i++){
		movingAvrage = movingAvrage + elements[i];
   8076c:	f853 0b04 	ldr.w	r0, [r3], #4
	elements[position] = newElement;
	position = (position + 1) % size;
	
	int32_t movingAvrage = 0;
	
	for(uint32_t i = 0; i < size; i++){
   80770:	42b3      	cmp	r3, r6
   80772:	d111      	bne.n	80798 <calcuateMovingAvrage+0x5c>
   80774:	e00c      	b.n	80790 <calcuateMovingAvrage+0x54>
		movingAvrage = movingAvrage + elements[i];
   80776:	4619      	mov	r1, r3
   80778:	f851 5b04 	ldr.w	r5, [r1], #4
   8077c:	182c      	adds	r4, r5, r0
   8077e:	685d      	ldr	r5, [r3, #4]
   80780:	f101 0304 	add.w	r3, r1, #4
   80784:	1928      	adds	r0, r5, r4
	elements[position] = newElement;
	position = (position + 1) % size;
	
	int32_t movingAvrage = 0;
	
	for(uint32_t i = 0; i < size; i++){
   80786:	42b3      	cmp	r3, r6
   80788:	d1f5      	bne.n	80776 <calcuateMovingAvrage+0x3a>
   8078a:	e001      	b.n	80790 <calcuateMovingAvrage+0x54>

uint32_t calcuateMovingAvrage(uint32_t elements[], uint32_t newElement, uint32_t size){
	elements[position] = newElement;
	position = (position + 1) % size;
	
	int32_t movingAvrage = 0;
   8078c:	f04f 0000 	mov.w	r0, #0
		movingAvrage = movingAvrage + elements[i];
	}
	movingAvrage = movingAvrage / size;
	
	return movingAvrage;
}
   80790:	fbb0 f0f2 	udiv	r0, r0, r2
   80794:	bc70      	pop	{r4, r5, r6}
   80796:	4770      	bx	lr
   80798:	2900      	cmp	r1, #0
   8079a:	d0ec      	beq.n	80776 <calcuateMovingAvrage+0x3a>
	position = (position + 1) % size;
	
	int32_t movingAvrage = 0;
	
	for(uint32_t i = 0; i < size; i++){
		movingAvrage = movingAvrage + elements[i];
   8079c:	f853 1b04 	ldr.w	r1, [r3], #4
   807a0:	1808      	adds	r0, r1, r0
	elements[position] = newElement;
	position = (position + 1) % size;
	
	int32_t movingAvrage = 0;
	
	for(uint32_t i = 0; i < size; i++){
   807a2:	42b3      	cmp	r3, r6
   807a4:	d1e7      	bne.n	80776 <calcuateMovingAvrage+0x3a>
   807a6:	e7f3      	b.n	80790 <calcuateMovingAvrage+0x54>

000807a8 <calculateControlSignal>:
 *  Author: Ali
 */ 
#include <asf.h>
#include "PIDFunctions.h"

int32_t calculateControlSignal(int32_t errorValue, int32_t sumOfErrorValues, double sampleTimeSec, int32_t previousErrorValue, double KP, double KI, double KD, int32_t u0){
   807a8:	e92d 4ff0 	stmdb	sp!, {r4, r5, r6, r7, r8, r9, sl, fp, lr}
   807ac:	b083      	sub	sp, #12
   807ae:	4688      	mov	r8, r1
   807b0:	4614      	mov	r4, r2
   807b2:	461d      	mov	r5, r3
	
	double controllerP;
	double controllerI;
	double controllerD;
	
	controllerP = ((double)errorValue);
   807b4:	f643 69b5 	movw	r9, #16053	; 0x3eb5
   807b8:	f2c0 0908 	movt	r9, #8
   807bc:	47c8      	blx	r9
   807be:	4606      	mov	r6, r0
   807c0:	460f      	mov	r7, r1
	controllerI = ((double)sumOfErrorValues * (sampleTimeSec/KI));
   807c2:	4640      	mov	r0, r8
   807c4:	47c8      	blx	r9
   807c6:	e9cd 0100 	strd	r0, r1, [sp]
   807ca:	f244 1ad5 	movw	sl, #16853	; 0x41d5
   807ce:	f2c0 0a08 	movt	sl, #8
   807d2:	4620      	mov	r0, r4
   807d4:	4629      	mov	r1, r5
   807d6:	e9dd 2310 	ldrd	r2, r3, [sp, #64]	; 0x40
   807da:	47d0      	blx	sl
   807dc:	4602      	mov	r2, r0
   807de:	460b      	mov	r3, r1
   807e0:	f643 7881 	movw	r8, #16257	; 0x3f81
   807e4:	f2c0 0808 	movt	r8, #8
   807e8:	e9dd 0100 	ldrd	r0, r1, [sp]
   807ec:	47c0      	blx	r8
   807ee:	4602      	mov	r2, r0
   807f0:	460b      	mov	r3, r1
	controllerD = ((double)errorValue - (double)previousErrorValue) * (KD / sampleTimeSec);
	
	controlSignal = KP * (controllerP + controllerI + controllerD);	
   807f2:	f643 4b1d 	movw	fp, #15389	; 0x3c1d
   807f6:	f2c0 0b08 	movt	fp, #8
   807fa:	4630      	mov	r0, r6
   807fc:	4639      	mov	r1, r7
   807fe:	47d8      	blx	fp
   80800:	e9cd 0100 	strd	r0, r1, [sp]
	double controllerI;
	double controllerD;
	
	controllerP = ((double)errorValue);
	controllerI = ((double)sumOfErrorValues * (sampleTimeSec/KI));
	controllerD = ((double)errorValue - (double)previousErrorValue) * (KD / sampleTimeSec);
   80804:	980c      	ldr	r0, [sp, #48]	; 0x30
   80806:	47c8      	blx	r9
   80808:	4602      	mov	r2, r0
   8080a:	460b      	mov	r3, r1
   8080c:	4630      	mov	r0, r6
   8080e:	4639      	mov	r1, r7
   80810:	f643 4619 	movw	r6, #15385	; 0x3c19
   80814:	f2c0 0608 	movt	r6, #8
   80818:	47b0      	blx	r6
   8081a:	4606      	mov	r6, r0
   8081c:	460f      	mov	r7, r1
   8081e:	e9dd 0112 	ldrd	r0, r1, [sp, #72]	; 0x48
   80822:	4622      	mov	r2, r4
   80824:	462b      	mov	r3, r5
   80826:	47d0      	blx	sl
   80828:	4602      	mov	r2, r0
   8082a:	460b      	mov	r3, r1
   8082c:	4630      	mov	r0, r6
   8082e:	4639      	mov	r1, r7
   80830:	47c0      	blx	r8
   80832:	4602      	mov	r2, r0
   80834:	460b      	mov	r3, r1
	
	controlSignal = KP * (controllerP + controllerI + controllerD);	
   80836:	e9dd 0100 	ldrd	r0, r1, [sp]
   8083a:	47d8      	blx	fp
   8083c:	e9dd 230e 	ldrd	r2, r3, [sp, #56]	; 0x38
   80840:	47c0      	blx	r8
   80842:	f244 33a5 	movw	r3, #17317	; 0x43a5
   80846:	f2c0 0308 	movt	r3, #8
   8084a:	4798      	blx	r3

	controlSignal = controlSignal + u0;
	return controlSignal;
}
   8084c:	9914      	ldr	r1, [sp, #80]	; 0x50
   8084e:	1840      	adds	r0, r0, r1
   80850:	b003      	add	sp, #12
   80852:	e8bd 8ff0 	ldmia.w	sp!, {r4, r5, r6, r7, r8, r9, sl, fp, pc}
   80856:	bf00      	nop

00080858 <setupPWM>:
pwm_channel_t pwm_pin8_instance; 
pwm_channel_t pwm_pin9_instance; 
pwm_channel_t pwm_pin34_instance; 
pwm_channel_t pwm_pin36_instance; 

void setupPWM(void){
   80858:	b500      	push	{lr}
   8085a:	b085      	sub	sp, #20
	pmc_enable_periph_clk(ID_PWM);
   8085c:	f04f 0024 	mov.w	r0, #36	; 0x24
   80860:	f243 63b9 	movw	r3, #14009	; 0x36b9
   80864:	f2c0 0308 	movt	r3, #8
   80868:	4798      	blx	r3
	
	
	pwm_clock_t clock_setting = {
   8086a:	f244 2040 	movw	r0, #16960	; 0x4240
   8086e:	f2c0 000f 	movt	r0, #15
   80872:	9001      	str	r0, [sp, #4]
   80874:	f04f 0100 	mov.w	r1, #0
   80878:	9102      	str	r1, [sp, #8]
   8087a:	f44f 423d 	mov.w	r2, #48384	; 0xbd00
   8087e:	f2c0 5201 	movt	r2, #1281	; 0x501
   80882:	9203      	str	r2, [sp, #12]
		.ul_clka = 1000 * 1000,
		.ul_clkb = 0,
		.ul_mck = sysclk_get_cpu_hz()
	};
	pwm_init(PWM, &clock_setting);
   80884:	f44f 4080 	mov.w	r0, #16384	; 0x4000
   80888:	f2c4 0009 	movt	r0, #16393	; 0x4009
   8088c:	a901      	add	r1, sp, #4
   8088e:	f642 43c1 	movw	r3, #11457	; 0x2cc1
   80892:	f2c0 0308 	movt	r3, #8
   80896:	4798      	blx	r3
	
	
}
   80898:	b005      	add	sp, #20
   8089a:	bd00      	pop	{pc}

0008089c <enablePWMPin34>:
	pwm_channel_init(PWM, &pwm_pin9_instance);
	pio_set_peripheral(PIOC, PIO_PERIPH_B, PIO_PC21B_PWML4);
	pwm_channel_enable(PWM, PWM_CHANNEL_4);
}

void enablePWMPin34(void){
   8089c:	b538      	push	{r3, r4, r5, lr}
	//PWM on Arduino pin 34
	pwm_channel_disable(PWM, PWM_CHANNEL_0);
   8089e:	f44f 4480 	mov.w	r4, #16384	; 0x4000
   808a2:	f2c4 0409 	movt	r4, #16393	; 0x4009
   808a6:	4620      	mov	r0, r4
   808a8:	f04f 0100 	mov.w	r1, #0
   808ac:	f642 6365 	movw	r3, #11877	; 0x2e65
   808b0:	f2c0 0308 	movt	r3, #8
   808b4:	4798      	blx	r3
	pwm_pin34_instance.ul_prescaler = PWM_CMR_CPRE_CLKA;
   808b6:	f64a 41a0 	movw	r1, #44192	; 0xaca0
   808ba:	f2c2 0107 	movt	r1, #8199	; 0x2007
   808be:	f04f 000b 	mov.w	r0, #11
   808c2:	6048      	str	r0, [r1, #4]
	pwm_pin34_instance.ul_period = 100;
   808c4:	f04f 0264 	mov.w	r2, #100	; 0x64
   808c8:	610a      	str	r2, [r1, #16]
	pwm_pin34_instance.ul_duty = 0;
   808ca:	f04f 0500 	mov.w	r5, #0
   808ce:	60cd      	str	r5, [r1, #12]
	pwm_pin34_instance.channel = PWM_CHANNEL_0;
   808d0:	600d      	str	r5, [r1, #0]
	pwm_channel_init(PWM, &pwm_pin34_instance);
   808d2:	4620      	mov	r0, r4
   808d4:	f642 530d 	movw	r3, #11533	; 0x2d0d
   808d8:	f2c0 0308 	movt	r3, #8
   808dc:	4798      	blx	r3
	pio_set_peripheral(PIOC, PIO_PERIPH_B, PIO_PC2B_PWML0);
   808de:	f44f 5090 	mov.w	r0, #4608	; 0x1200
   808e2:	f2c4 000e 	movt	r0, #16398	; 0x400e
   808e6:	f04f 5180 	mov.w	r1, #268435456	; 0x10000000
   808ea:	f04f 0204 	mov.w	r2, #4
   808ee:	f243 037d 	movw	r3, #12413	; 0x307d
   808f2:	f2c0 0308 	movt	r3, #8
   808f6:	4798      	blx	r3
	pwm_channel_enable(PWM, PWM_CHANNEL_0);
   808f8:	4620      	mov	r0, r4
   808fa:	4629      	mov	r1, r5
   808fc:	f642 6259 	movw	r2, #11865	; 0x2e59
   80900:	f2c0 0208 	movt	r2, #8
   80904:	4790      	blx	r2
   80906:	bd38      	pop	{r3, r4, r5, pc}

00080908 <changeDutyCycle>:
	pwm_channel_init(PWM, &pwm_pin36_instance);
	pio_set_peripheral(PIOC, PIO_PERIPH_B, PIO_PC4B_PWML1);
	pwm_channel_enable(PWM, PWM_CHANNEL_1);
}

void changeDutyCycle(uint32_t pin, uint32_t dutyCycle){
   80908:	b508      	push	{r3, lr}
   8090a:	460a      	mov	r2, r1
	if(dutyCycle <= 100 && dutyCycle >=0){
   8090c:	2964      	cmp	r1, #100	; 0x64
   8090e:	d868      	bhi.n	809e2 <changeDutyCycle+0xda>
		switch(pin){
   80910:	f1a0 0006 	sub.w	r0, r0, #6
   80914:	281e      	cmp	r0, #30
   80916:	d864      	bhi.n	809e2 <changeDutyCycle+0xda>
   80918:	e8df f000 	tbb	[pc, r0]
   8091c:	3a2c1e10 	.word	0x3a2c1e10
   80920:	63636363 	.word	0x63636363
   80924:	63636363 	.word	0x63636363
   80928:	63636363 	.word	0x63636363
   8092c:	63636363 	.word	0x63636363
   80930:	63636363 	.word	0x63636363
   80934:	63636363 	.word	0x63636363
   80938:	6348      	.short	0x6348
   8093a:	56          	.byte	0x56
   8093b:	00          	.byte	0x00
			case 6:
			pwm_channel_update_duty(PWM, &pwm_pin6_instance, dutyCycle);
   8093c:	f44f 4080 	mov.w	r0, #16384	; 0x4000
   80940:	f2c4 0009 	movt	r0, #16393	; 0x4009
   80944:	f64a 41c8 	movw	r1, #44232	; 0xacc8
   80948:	f2c2 0107 	movt	r1, #8199	; 0x2007
   8094c:	f642 6335 	movw	r3, #11829	; 0x2e35
   80950:	f2c0 0308 	movt	r3, #8
   80954:	4798      	blx	r3
			break;
   80956:	bd08      	pop	{r3, pc}
			case 7:
			pwm_channel_update_duty(PWM, &pwm_pin7_instance, dutyCycle);
   80958:	f44f 4080 	mov.w	r0, #16384	; 0x4000
   8095c:	f2c4 0009 	movt	r0, #16393	; 0x4009
   80960:	f64a 4178 	movw	r1, #44152	; 0xac78
   80964:	f2c2 0107 	movt	r1, #8199	; 0x2007
   80968:	f642 6335 	movw	r3, #11829	; 0x2e35
   8096c:	f2c0 0308 	movt	r3, #8
   80970:	4798      	blx	r3
			break;
   80972:	bd08      	pop	{r3, pc}
			case 8:
			pwm_channel_update_duty(PWM, &pwm_pin8_instance, dutyCycle);
   80974:	f44f 4080 	mov.w	r0, #16384	; 0x4000
   80978:	f2c4 0009 	movt	r0, #16393	; 0x4009
   8097c:	f64a 4150 	movw	r1, #44112	; 0xac50
   80980:	f2c2 0107 	movt	r1, #8199	; 0x2007
   80984:	f642 6335 	movw	r3, #11829	; 0x2e35
   80988:	f2c0 0308 	movt	r3, #8
   8098c:	4798      	blx	r3
			break;
   8098e:	bd08      	pop	{r3, pc}
			case 9:
			pwm_channel_update_duty(PWM, &pwm_pin9_instance, dutyCycle);
   80990:	f44f 4080 	mov.w	r0, #16384	; 0x4000
   80994:	f2c4 0009 	movt	r0, #16393	; 0x4009
   80998:	f64a 4128 	movw	r1, #44072	; 0xac28
   8099c:	f2c2 0107 	movt	r1, #8199	; 0x2007
   809a0:	f642 6335 	movw	r3, #11829	; 0x2e35
   809a4:	f2c0 0308 	movt	r3, #8
   809a8:	4798      	blx	r3
			break;
   809aa:	bd08      	pop	{r3, pc}
			case 34:
			pwm_channel_update_duty(PWM, &pwm_pin34_instance, dutyCycle);
   809ac:	f44f 4080 	mov.w	r0, #16384	; 0x4000
   809b0:	f2c4 0009 	movt	r0, #16393	; 0x4009
   809b4:	f64a 41a0 	movw	r1, #44192	; 0xaca0
   809b8:	f2c2 0107 	movt	r1, #8199	; 0x2007
   809bc:	f642 6335 	movw	r3, #11829	; 0x2e35
   809c0:	f2c0 0308 	movt	r3, #8
   809c4:	4798      	blx	r3
			break;
   809c6:	bd08      	pop	{r3, pc}
			case 36:
			pwm_channel_update_duty(PWM, &pwm_pin36_instance, dutyCycle);
   809c8:	f44f 4080 	mov.w	r0, #16384	; 0x4000
   809cc:	f2c4 0009 	movt	r0, #16393	; 0x4009
   809d0:	f64a 4100 	movw	r1, #44032	; 0xac00
   809d4:	f2c2 0107 	movt	r1, #8199	; 0x2007
   809d8:	f642 6335 	movw	r3, #11829	; 0x2e35
   809dc:	f2c0 0308 	movt	r3, #8
   809e0:	4798      	blx	r3
   809e2:	bd08      	pop	{r3, pc}

000809e4 <setupRTOS>:
#include "TaskSend.h"
#include "TaskReceive.h"
#include "TaskController.h"


void setupRTOS(void){
   809e4:	b510      	push	{r4, lr}
   809e6:	b084      	sub	sp, #16
	
	if (xTaskCreate(taskController, (const signed char * const) "taskController", 1024, NULL, 3, NULL) != pdPASS){
   809e8:	f04f 0303 	mov.w	r3, #3
   809ec:	9300      	str	r3, [sp, #0]
   809ee:	f04f 0300 	mov.w	r3, #0
   809f2:	9301      	str	r3, [sp, #4]
   809f4:	9302      	str	r3, [sp, #8]
   809f6:	9303      	str	r3, [sp, #12]
   809f8:	f640 20c5 	movw	r0, #2757	; 0xac5
   809fc:	f2c0 0008 	movt	r0, #8
   80a00:	f649 2180 	movw	r1, #39552	; 0x9a80
   80a04:	f2c0 0108 	movt	r1, #8
   80a08:	f44f 6280 	mov.w	r2, #1024	; 0x400
   80a0c:	f641 24d1 	movw	r4, #6865	; 0x1ad1
   80a10:	f2c0 0408 	movt	r4, #8
   80a14:	47a0      	blx	r4
   80a16:	2801      	cmp	r0, #1
   80a18:	d008      	beq.n	80a2c <setupRTOS+0x48>
		printf("Failed to create task\n");
   80a1a:	f649 2090 	movw	r0, #39568	; 0x9a90
   80a1e:	f2c0 0008 	movt	r0, #8
   80a22:	f244 5111 	movw	r1, #17681	; 0x4511
   80a26:	f2c0 0108 	movt	r1, #8
   80a2a:	4788      	blx	r1
	}

	if (xTaskCreate(taskSend, (const signed char * const) "taskSend", 1024, NULL, 2, NULL) != pdPASS){
   80a2c:	f04f 0002 	mov.w	r0, #2
   80a30:	9000      	str	r0, [sp, #0]
   80a32:	f04f 0300 	mov.w	r3, #0
   80a36:	9301      	str	r3, [sp, #4]
   80a38:	9302      	str	r3, [sp, #8]
   80a3a:	9303      	str	r3, [sp, #12]
   80a3c:	f640 7075 	movw	r0, #3957	; 0xf75
   80a40:	f2c0 0008 	movt	r0, #8
   80a44:	f649 21a8 	movw	r1, #39592	; 0x9aa8
   80a48:	f2c0 0108 	movt	r1, #8
   80a4c:	f44f 6280 	mov.w	r2, #1024	; 0x400
   80a50:	f641 24d1 	movw	r4, #6865	; 0x1ad1
   80a54:	f2c0 0408 	movt	r4, #8
   80a58:	47a0      	blx	r4
   80a5a:	2801      	cmp	r0, #1
   80a5c:	d008      	beq.n	80a70 <setupRTOS+0x8c>
		printf("Failed to create task\n");
   80a5e:	f649 2090 	movw	r0, #39568	; 0x9a90
   80a62:	f2c0 0008 	movt	r0, #8
   80a66:	f244 5211 	movw	r2, #17681	; 0x4511
   80a6a:	f2c0 0208 	movt	r2, #8
   80a6e:	4790      	blx	r2
	}
	
	if (xTaskCreate(taskReceive, (const signed char * const) "taskReceive", 1024, NULL, 1, NULL) != pdPASS){
   80a70:	f04f 0301 	mov.w	r3, #1
   80a74:	9300      	str	r3, [sp, #0]
   80a76:	f04f 0300 	mov.w	r3, #0
   80a7a:	9301      	str	r3, [sp, #4]
   80a7c:	9302      	str	r3, [sp, #8]
   80a7e:	9303      	str	r3, [sp, #12]
   80a80:	f640 506d 	movw	r0, #3437	; 0xd6d
   80a84:	f2c0 0008 	movt	r0, #8
   80a88:	f649 21b4 	movw	r1, #39604	; 0x9ab4
   80a8c:	f2c0 0108 	movt	r1, #8
   80a90:	f44f 6280 	mov.w	r2, #1024	; 0x400
   80a94:	f641 24d1 	movw	r4, #6865	; 0x1ad1
   80a98:	f2c0 0408 	movt	r4, #8
   80a9c:	47a0      	blx	r4
   80a9e:	2801      	cmp	r0, #1
   80aa0:	d008      	beq.n	80ab4 <setupRTOS+0xd0>
		printf("Failed to create task\n");
   80aa2:	f649 2090 	movw	r0, #39568	; 0x9a90
   80aa6:	f2c0 0008 	movt	r0, #8
   80aaa:	f244 5111 	movw	r1, #17681	; 0x4511
   80aae:	f2c0 0108 	movt	r1, #8
   80ab2:	4788      	blx	r1
	}	
	vTaskStartScheduler();
   80ab4:	f641 5071 	movw	r0, #7537	; 0x1d71
   80ab8:	f2c0 0008 	movt	r0, #8
   80abc:	4780      	blx	r0
   80abe:	b004      	add	sp, #16
   80ac0:	bd10      	pop	{r4, pc}
   80ac2:	bf00      	nop

00080ac4 <taskController>:

static uint32_t distanceValues[WINDOW_SIZE] = {0};

static uint8_t statusControllerReady = 0;

void taskController(void *p){
   80ac4:	e92d 4ff0 	stmdb	sp!, {r4, r5, r6, r7, r8, r9, sl, fp, lr}
   80ac8:	b08d      	sub	sp, #52	; 0x34
	portTickType xLastWakeTime;
	portTickType xSampleTime;
	xLastWakeTime = xTaskGetTickCount();
   80aca:	f641 630d 	movw	r3, #7693	; 0x1e0d
   80ace:	f2c0 0308 	movt	r3, #8
   80ad2:	4798      	blx	r3
   80ad4:	ac0c      	add	r4, sp, #48	; 0x30
   80ad6:	f844 0d04 	str.w	r0, [r4, #-4]!
	for(;;){
		xSampleTime = (portTickType)sampleTimeMilli;
		vTaskDelayUntil(&xLastWakeTime, xSampleTime);
   80ada:	f240 0704 	movw	r7, #4
   80ade:	f2c2 0707 	movt	r7, #8199	; 0x2007
   80ae2:	f242 16ad 	movw	r6, #8621	; 0x21ad
   80ae6:	f2c0 0608 	movt	r6, #8
		if(statusControllerReady == 1){
   80aea:	f640 1548 	movw	r5, #2376	; 0x948
   80aee:	f2c2 0507 	movt	r5, #8199	; 0x2007
			int32_t controlSignal = 0;
			/*int32_t actualValue = readADC(A8);*/
			int32_t actualValue = calcuateMovingAvrage(distanceValues, readADC(A8), WINDOW_SIZE);
   80af2:	f240 2a79 	movw	sl, #633	; 0x279
   80af6:	f2c0 0a08 	movt	sl, #8
	portTickType xLastWakeTime;
	portTickType xSampleTime;
	xLastWakeTime = xTaskGetTickCount();
	for(;;){
		xSampleTime = (portTickType)sampleTimeMilli;
		vTaskDelayUntil(&xLastWakeTime, xSampleTime);
   80afa:	4620      	mov	r0, r4
   80afc:	6839      	ldr	r1, [r7, #0]
   80afe:	47b0      	blx	r6
		if(statusControllerReady == 1){
   80b00:	7828      	ldrb	r0, [r5, #0]
   80b02:	2801      	cmp	r0, #1
   80b04:	d1f9      	bne.n	80afa <taskController+0x36>
			int32_t controlSignal = 0;
			/*int32_t actualValue = readADC(A8);*/
			int32_t actualValue = calcuateMovingAvrage(distanceValues, readADC(A8), WINDOW_SIZE);
   80b06:	f04f 000a 	mov.w	r0, #10
   80b0a:	47d0      	blx	sl
   80b0c:	4601      	mov	r1, r0
   80b0e:	f640 1028 	movw	r0, #2344	; 0x928
   80b12:	f2c2 0007 	movt	r0, #8199	; 0x2007
   80b16:	f04f 0204 	mov.w	r2, #4
   80b1a:	f240 733d 	movw	r3, #1853	; 0x73d
   80b1e:	f2c0 0308 	movt	r3, #8
   80b22:	4798      	blx	r3
   80b24:	4681      	mov	r9, r0
			int32_t errorValue = setpoint - actualValue;
   80b26:	f240 0100 	movw	r1, #0
   80b2a:	f2c2 0107 	movt	r1, #8199	; 0x2007
   80b2e:	680a      	ldr	r2, [r1, #0]
   80b30:	ebc0 0802 	rsb	r8, r0, r2
			sumOfErrorValues = sumOfErrorValues + errorValue;
   80b34:	f640 105c 	movw	r0, #2396	; 0x95c
   80b38:	f2c2 0007 	movt	r0, #8199	; 0x2007
   80b3c:	6803      	ldr	r3, [r0, #0]
   80b3e:	eb08 0e03 	add.w	lr, r8, r3
   80b42:	f8c0 e000 	str.w	lr, [r0]
			
			
			
			if(errorValue < 0){
   80b46:	f1b8 0f00 	cmp.w	r8, #0
   80b4a:	da06      	bge.n	80b5a <taskController+0x96>
				controlSignal = u0;
   80b4c:	f640 1238 	movw	r2, #2360	; 0x938
   80b50:	f2c2 0207 	movt	r2, #8199	; 0x2007
   80b54:	f8d2 b000 	ldr.w	fp, [r2]
   80b58:	e038      	b.n	80bcc <taskController+0x108>
			}
			else{
				controlSignal = calculateControlSignal(errorValue, sumOfErrorValues, sampleTimeSec, previousErrorValue, kp, ki, kd, u0);
   80b5a:	f640 1168 	movw	r1, #2408	; 0x968
   80b5e:	f2c2 0107 	movt	r1, #8199	; 0x2007
   80b62:	e9d1 2300 	ldrd	r2, r3, [r1]
   80b66:	f640 1058 	movw	r0, #2392	; 0x958
   80b6a:	f2c2 0007 	movt	r0, #8199	; 0x2007
   80b6e:	6801      	ldr	r1, [r0, #0]
   80b70:	9100      	str	r1, [sp, #0]
   80b72:	f640 1060 	movw	r0, #2400	; 0x960
   80b76:	f2c2 0007 	movt	r0, #8199	; 0x2007
   80b7a:	c803      	ldmia	r0, {r0, r1}
   80b7c:	e9cd 0102 	strd	r0, r1, [sp, #8]
   80b80:	f640 1150 	movw	r1, #2384	; 0x950
   80b84:	f2c2 0107 	movt	r1, #8199	; 0x2007
   80b88:	e9d1 0100 	ldrd	r0, r1, [r1]
   80b8c:	e9cd 0104 	strd	r0, r1, [sp, #16]
   80b90:	f640 1140 	movw	r1, #2368	; 0x940
   80b94:	f2c2 0107 	movt	r1, #8199	; 0x2007
   80b98:	e9d1 0100 	ldrd	r0, r1, [r1]
   80b9c:	e9cd 0106 	strd	r0, r1, [sp, #24]
   80ba0:	f640 1138 	movw	r1, #2360	; 0x938
   80ba4:	f2c2 0107 	movt	r1, #8199	; 0x2007
   80ba8:	6808      	ldr	r0, [r1, #0]
   80baa:	9008      	str	r0, [sp, #32]
   80bac:	4640      	mov	r0, r8
   80bae:	4671      	mov	r1, lr
   80bb0:	f240 7ca9 	movw	ip, #1961	; 0x7a9
   80bb4:	f2c0 0c08 	movt	ip, #8
   80bb8:	47e0      	blx	ip
				if (controlSignal > 100){
   80bba:	2864      	cmp	r0, #100	; 0x64
   80bbc:	dc04      	bgt.n	80bc8 <taskController+0x104>
   80bbe:	ea80 7be0 	eor.w	fp, r0, r0, asr #31
   80bc2:	ebab 7be0 	sub.w	fp, fp, r0, asr #31
   80bc6:	e001      	b.n	80bcc <taskController+0x108>
					controlSignal = 100;
   80bc8:	f04f 0b64 	mov.w	fp, #100	; 0x64
				else if(controlSignal < 0){
					controlSignal = -1 * controlSignal;
				}
			}
			
			previousErrorValue = errorValue;
   80bcc:	f640 1358 	movw	r3, #2392	; 0x958
   80bd0:	f2c2 0307 	movt	r3, #8199	; 0x2007
   80bd4:	f8c3 8000 	str.w	r8, [r3]
 			
			changeDutyCycle(34, controlSignal);
   80bd8:	f04f 0022 	mov.w	r0, #34	; 0x22
   80bdc:	4659      	mov	r1, fp
   80bde:	f640 1209 	movw	r2, #2313	; 0x909
   80be2:	f2c0 0208 	movt	r2, #8
   80be6:	4790      	blx	r2
			setInfo(controlSignal, actualValue);
   80be8:	4658      	mov	r0, fp
   80bea:	4649      	mov	r1, r9
   80bec:	f640 7341 	movw	r3, #3905	; 0xf41
   80bf0:	f2c0 0308 	movt	r3, #8
   80bf4:	4798      	blx	r3
   80bf6:	e780      	b.n	80afa <taskController+0x36>

00080bf8 <setSetpoint>:
	}
}

void setSetpoint(uint32_t newSetpoint){

	switch(newSetpoint){
   80bf8:	f1a0 0014 	sub.w	r0, r0, #20
   80bfc:	2814      	cmp	r0, #20
   80bfe:	d856      	bhi.n	80cae <setSetpoint+0xb6>
   80c00:	e8df f000 	tbb	[pc, r0]
   80c04:	5555550b 	.word	0x5555550b
   80c08:	55551a55 	.word	0x55551a55
   80c0c:	55295555 	.word	0x55295555
   80c10:	38555555 	.word	0x38555555
   80c14:	55555555 	.word	0x55555555
   80c18:	47          	.byte	0x47
   80c19:	00          	.byte	0x00
		case 20:
			setpoint = DISTANCE_20;
   80c1a:	f240 0300 	movw	r3, #0
   80c1e:	f2c2 0307 	movt	r3, #8199	; 0x2007
   80c22:	f240 12d1 	movw	r2, #465	; 0x1d1
   80c26:	601a      	str	r2, [r3, #0]
			u0 = 54;
   80c28:	f640 1038 	movw	r0, #2360	; 0x938
   80c2c:	f2c2 0007 	movt	r0, #8199	; 0x2007
   80c30:	f04f 0136 	mov.w	r1, #54	; 0x36
   80c34:	6001      	str	r1, [r0, #0]
		break;
   80c36:	4770      	bx	lr
		case 25:
			setpoint =  DISTANCE_25;
   80c38:	f240 0300 	movw	r3, #0
   80c3c:	f2c2 0307 	movt	r3, #8199	; 0x2007
   80c40:	f240 12a9 	movw	r2, #425	; 0x1a9
   80c44:	601a      	str	r2, [r3, #0]
			u0 = 45;
   80c46:	f640 1038 	movw	r0, #2360	; 0x938
   80c4a:	f2c2 0007 	movt	r0, #8199	; 0x2007
   80c4e:	f04f 012d 	mov.w	r1, #45	; 0x2d
   80c52:	6001      	str	r1, [r0, #0]
		break;
   80c54:	4770      	bx	lr
		case 30:
			setpoint = DISTANCE_30;
   80c56:	f240 0300 	movw	r3, #0
   80c5a:	f2c2 0307 	movt	r3, #8199	; 0x2007
   80c5e:	f240 129f 	movw	r2, #415	; 0x19f
   80c62:	601a      	str	r2, [r3, #0]
			u0 = 39;
   80c64:	f640 1038 	movw	r0, #2360	; 0x938
   80c68:	f2c2 0007 	movt	r0, #8199	; 0x2007
   80c6c:	f04f 0127 	mov.w	r1, #39	; 0x27
   80c70:	6001      	str	r1, [r0, #0]
		break;
   80c72:	4770      	bx	lr
		case 35:
			setpoint = DISTANCE_35;
   80c74:	f240 0300 	movw	r3, #0
   80c78:	f2c2 0307 	movt	r3, #8199	; 0x2007
   80c7c:	f44f 72c8 	mov.w	r2, #400	; 0x190
   80c80:	601a      	str	r2, [r3, #0]
			u0 = 32;
   80c82:	f640 1038 	movw	r0, #2360	; 0x938
   80c86:	f2c2 0007 	movt	r0, #8199	; 0x2007
   80c8a:	f04f 0120 	mov.w	r1, #32
   80c8e:	6001      	str	r1, [r0, #0]
		break;
   80c90:	4770      	bx	lr
		case 40:
			setpoint = DISTANCE_40;
   80c92:	f240 0300 	movw	r3, #0
   80c96:	f2c2 0307 	movt	r3, #8199	; 0x2007
   80c9a:	f44f 72c3 	mov.w	r2, #390	; 0x186
   80c9e:	601a      	str	r2, [r3, #0]
			u0 = 27;
   80ca0:	f640 1038 	movw	r0, #2360	; 0x938
   80ca4:	f2c2 0007 	movt	r0, #8199	; 0x2007
   80ca8:	f04f 011b 	mov.w	r1, #27
   80cac:	6001      	str	r1, [r0, #0]
   80cae:	4770      	bx	lr

00080cb0 <setControllerReady>:
		break;
	}
}

void setControllerReady(void){
	statusControllerReady = 1; 
   80cb0:	f640 1348 	movw	r3, #2376	; 0x948
   80cb4:	f2c2 0307 	movt	r3, #8199	; 0x2007
   80cb8:	f04f 0201 	mov.w	r2, #1
   80cbc:	701a      	strb	r2, [r3, #0]
   80cbe:	4770      	bx	lr

00080cc0 <stopController>:
}

void stopController(void){
   80cc0:	b508      	push	{r3, lr}
	statusControllerReady = 0;
   80cc2:	f04f 0100 	mov.w	r1, #0
   80cc6:	f640 1348 	movw	r3, #2376	; 0x948
   80cca:	f2c2 0307 	movt	r3, #8199	; 0x2007
   80cce:	7019      	strb	r1, [r3, #0]
	previousErrorValue = 0;
   80cd0:	f640 1058 	movw	r0, #2392	; 0x958
   80cd4:	f2c2 0007 	movt	r0, #8199	; 0x2007
   80cd8:	6001      	str	r1, [r0, #0]
	sumOfErrorValues = 0;
   80cda:	f640 125c 	movw	r2, #2396	; 0x95c
   80cde:	f2c2 0207 	movt	r2, #8199	; 0x2007
   80ce2:	6011      	str	r1, [r2, #0]
	changeDutyCycle(34, 0);
   80ce4:	f04f 0022 	mov.w	r0, #34	; 0x22
   80ce8:	f640 1309 	movw	r3, #2313	; 0x909
   80cec:	f2c0 0308 	movt	r3, #8
   80cf0:	4798      	blx	r3
   80cf2:	bd08      	pop	{r3, pc}

00080cf4 <setParameters>:
}

void setParameters(uint8_t newSetpoint,	uint8_t newSampleTime, double newKp, double newKi, double newKd){
   80cf4:	b570      	push	{r4, r5, r6, lr}
   80cf6:	460e      	mov	r6, r1
   80cf8:	4614      	mov	r4, r2
   80cfa:	461d      	mov	r5, r3
	setSetpoint(newSetpoint);
   80cfc:	f640 33f9 	movw	r3, #3065	; 0xbf9
   80d00:	f2c0 0308 	movt	r3, #8
   80d04:	4798      	blx	r3
	sampleTimeMilli = newSampleTime;
   80d06:	f240 0004 	movw	r0, #4
   80d0a:	f2c2 0007 	movt	r0, #8199	; 0x2007
   80d0e:	6006      	str	r6, [r0, #0]
	sampleTimeSec = (double)newSampleTime / 1000;
   80d10:	4630      	mov	r0, r6
   80d12:	f643 6195 	movw	r1, #16021	; 0x3e95
   80d16:	f2c0 0108 	movt	r1, #8
   80d1a:	4788      	blx	r1
   80d1c:	f04f 0200 	mov.w	r2, #0
   80d20:	f44f 4380 	mov.w	r3, #16384	; 0x4000
   80d24:	f2c4 038f 	movt	r3, #16527	; 0x408f
   80d28:	f244 16d5 	movw	r6, #16853	; 0x41d5
   80d2c:	f2c0 0608 	movt	r6, #8
   80d30:	47b0      	blx	r6
   80d32:	f640 1268 	movw	r2, #2408	; 0x968
   80d36:	f2c2 0207 	movt	r2, #8199	; 0x2007
   80d3a:	e9c2 0100 	strd	r0, r1, [r2]
	kp = newKp; 
   80d3e:	f640 1360 	movw	r3, #2400	; 0x960
   80d42:	f2c2 0307 	movt	r3, #8199	; 0x2007
   80d46:	e9c3 4500 	strd	r4, r5, [r3]
	ki = newKi;
   80d4a:	f640 1050 	movw	r0, #2384	; 0x950
   80d4e:	f2c2 0007 	movt	r0, #8199	; 0x2007
   80d52:	e9dd 2304 	ldrd	r2, r3, [sp, #16]
   80d56:	e9c0 2300 	strd	r2, r3, [r0]
	kd = newKd;
   80d5a:	f640 1140 	movw	r1, #2368	; 0x940
   80d5e:	f2c2 0107 	movt	r1, #8199	; 0x2007
   80d62:	e9dd 2306 	ldrd	r2, r3, [sp, #24]
   80d66:	e9c1 2300 	strd	r2, r3, [r1]
   80d6a:	bd70      	pop	{r4, r5, r6, pc}

00080d6c <taskReceive>:
#define HEADER_READY 100
#define HEADER_STOP 101
#define HEADER_SET_PARAMETERS 102
#define HEADER_CHANGE_DUTY 103

void taskReceive(void *p){
   80d6c:	e92d 4ff0 	stmdb	sp!, {r4, r5, r6, r7, r8, r9, sl, fp, lr}
   80d70:	b087      	sub	sp, #28
	
	for(;;){
		if (isRXReady()){
   80d72:	f240 66e1 	movw	r6, #1761	; 0x6e1
   80d76:	f2c0 0608 	movt	r6, #8
			uint8_t header = readByte();
   80d7a:	f240 67bd 	movw	r7, #1725	; 0x6bd
   80d7e:	f2c0 0708 	movt	r7, #8
					break;
				}
				case HEADER_CHANGE_DUTY:
				{
					uint8_t duty;
					waitRXReady();
   80d82:	f240 68f1 	movw	r8, #1777	; 0x6f1
   80d86:	f2c0 0808 	movt	r8, #8
#define HEADER_CHANGE_DUTY 103

void taskReceive(void *p){
	
	for(;;){
		if (isRXReady()){
   80d8a:	47b0      	blx	r6
   80d8c:	2800      	cmp	r0, #0
   80d8e:	d0fc      	beq.n	80d8a <taskReceive+0x1e>
			uint8_t header = readByte();
   80d90:	47b8      	blx	r7
			
			switch(header){
   80d92:	f1a0 0064 	sub.w	r0, r0, #100	; 0x64
   80d96:	2803      	cmp	r0, #3
   80d98:	d8f7      	bhi.n	80d8a <taskReceive+0x1e>
   80d9a:	e8df f000 	tbb	[pc, r0]
   80d9e:	0d02      	.short	0x0d02
   80da0:	3a18      	.short	0x3a18
				case HEADER_READY:
				{
					setControllerReady();
   80da2:	f640 42b1 	movw	r2, #3249	; 0xcb1
   80da6:	f2c0 0208 	movt	r2, #8
   80daa:	4790      	blx	r2
					setSendReady();
   80dac:	f640 6529 	movw	r5, #3625	; 0xe29
   80db0:	f2c0 0508 	movt	r5, #8
   80db4:	47a8      	blx	r5
					break;
   80db6:	e7e8      	b.n	80d8a <taskReceive+0x1e>
				}
				break;
				case HEADER_STOP:
				{
					stopController();
   80db8:	f640 40c1 	movw	r0, #3265	; 0xcc1
   80dbc:	f2c0 0008 	movt	r0, #8
   80dc0:	4780      	blx	r0
					stopSending();
   80dc2:	f640 6139 	movw	r1, #3641	; 0xe39
   80dc6:	f2c0 0108 	movt	r1, #8
   80dca:	4788      	blx	r1
					break;
   80dcc:	e7dd      	b.n	80d8a <taskReceive+0x1e>
					uint8_t newSetpoint;
					uint8_t newSampleTime;
					double newKp;
					double newKi;
					double newKd;
					waitRXReady();
   80dce:	47c0      	blx	r8
					newSetpoint = readByte();
   80dd0:	47b8      	blx	r7
   80dd2:	4683      	mov	fp, r0
					waitRXReady();
   80dd4:	47c0      	blx	r8
					newSampleTime = readByte();
   80dd6:	47b8      	blx	r7
   80dd8:	4682      	mov	sl, r0
					waitRXReady();
   80dda:	47c0      	blx	r8
					newKp = readDouble();
   80ddc:	f240 7909 	movw	r9, #1801	; 0x709
   80de0:	f2c0 0908 	movt	r9, #8
   80de4:	47c8      	blx	r9
   80de6:	e9cd 0104 	strd	r0, r1, [sp, #16]
					waitRXReady();
   80dea:	47c0      	blx	r8
					newKi =  readDouble();
   80dec:	47c8      	blx	r9
   80dee:	4604      	mov	r4, r0
   80df0:	460d      	mov	r5, r1
					waitRXReady();
   80df2:	47c0      	blx	r8
					newKd = readDouble();
   80df4:	47c8      	blx	r9
					
					setParameters(newSetpoint, newSampleTime, newKp, newKi, newKd);
   80df6:	e9cd 4500 	strd	r4, r5, [sp]
   80dfa:	e9cd 0102 	strd	r0, r1, [sp, #8]
   80dfe:	4658      	mov	r0, fp
   80e00:	4651      	mov	r1, sl
   80e02:	e9dd 2304 	ldrd	r2, r3, [sp, #16]
   80e06:	f640 44f5 	movw	r4, #3317	; 0xcf5
   80e0a:	f2c0 0408 	movt	r4, #8
   80e0e:	47a0      	blx	r4
					break;
   80e10:	e7bb      	b.n	80d8a <taskReceive+0x1e>
				}
				case HEADER_CHANGE_DUTY:
				{
					uint8_t duty;
					waitRXReady();
   80e12:	47c0      	blx	r8
					duty = readByte();
   80e14:	47b8      	blx	r7
   80e16:	4601      	mov	r1, r0
					
					changeDutyCycle(34, duty);
   80e18:	f04f 0022 	mov.w	r0, #34	; 0x22
   80e1c:	f640 1309 	movw	r3, #2313	; 0x909
   80e20:	f2c0 0308 	movt	r3, #8
   80e24:	4798      	blx	r3
					break;
   80e26:	e7b0      	b.n	80d8a <taskReceive+0x1e>

00080e28 <setSendReady>:
		
	}
}

void setSendReady(void){
	statusSendReady = 1;
   80e28:	f640 1370 	movw	r3, #2416	; 0x970
   80e2c:	f2c2 0307 	movt	r3, #8199	; 0x2007
   80e30:	f04f 0201 	mov.w	r2, #1
   80e34:	701a      	strb	r2, [r3, #0]
   80e36:	4770      	bx	lr

00080e38 <stopSending>:
}

void stopSending(void){
	statusSendReady = 0;
   80e38:	f640 1370 	movw	r3, #2416	; 0x970
   80e3c:	f2c2 0307 	movt	r3, #8199	; 0x2007
   80e40:	f04f 0200 	mov.w	r2, #0
   80e44:	701a      	strb	r2, [r3, #0]
   80e46:	4770      	bx	lr

00080e48 <ShiftControlSignalBuffer>:
	}
	//return 0;
}

void ShiftControlSignalBuffer(void)
{
   80e48:	f640 13c0 	movw	r3, #2496	; 0x9c0
   80e4c:	f2c2 0307 	movt	r3, #8199	; 0x2007
		}
	}
	//return 0;
}

void ShiftControlSignalBuffer(void)
   80e50:	f103 0148 	add.w	r1, r3, #72	; 0x48
{
	for(int i = 0; i<SIZE-1; i++)
	{
		circBuffertControlSignal[i] = circBuffertControlSignal[i+1];
   80e54:	f853 2f04 	ldr.w	r2, [r3, #4]!
   80e58:	f843 2c04 	str.w	r2, [r3, #-4]
   80e5c:	6858      	ldr	r0, [r3, #4]
   80e5e:	f843 0b04 	str.w	r0, [r3], #4
	//return 0;
}

void ShiftControlSignalBuffer(void)
{
	for(int i = 0; i<SIZE-1; i++)
   80e62:	428b      	cmp	r3, r1
   80e64:	d1f6      	bne.n	80e54 <ShiftControlSignalBuffer+0xc>
	{
		circBuffertControlSignal[i] = circBuffertControlSignal[i+1];
	}
}
   80e66:	4770      	bx	lr

00080e68 <findVacantPositionControlSignal>:
	circBuffertControlSignal[findVacantPositionControlSignal()] = controlSignal;
	circBuffertActualValue[findVacantPositionActualValue()] = actualValue;
}

int32_t findVacantPositionControlSignal(void)
{
   80e68:	b508      	push	{r3, lr}
	for(int i = 0; i<SIZE; i++)
	{
		if(circBuffertControlSignal[i] == 0)
   80e6a:	f640 13c0 	movw	r3, #2496	; 0x9c0
   80e6e:	f2c2 0307 	movt	r3, #8199	; 0x2007
   80e72:	6818      	ldr	r0, [r3, #0]
   80e74:	b1f0      	cbz	r0, 80eb4 <findVacantPositionControlSignal+0x4c>
		{
			return i;
		}
		if(circBuffertControlSignal[SIZE] != 0)
   80e76:	f640 11c0 	movw	r1, #2496	; 0x9c0
   80e7a:	f2c2 0107 	movt	r1, #8199	; 0x2007
   80e7e:	6cca      	ldr	r2, [r1, #76]	; 0x4c
   80e80:	b97a      	cbnz	r2, 80ea2 <findVacantPositionControlSignal+0x3a>
   80e82:	f640 13c0 	movw	r3, #2496	; 0x9c0
   80e86:	f2c2 0307 	movt	r3, #8199	; 0x2007
	circBuffertActualValue[findVacantPositionActualValue()] = actualValue;
}

int32_t findVacantPositionControlSignal(void)
{
	for(int i = 0; i<SIZE; i++)
   80e8a:	f04f 0001 	mov.w	r0, #1
	{
		if(circBuffertControlSignal[i] == 0)
   80e8e:	f853 1f04 	ldr.w	r1, [r3, #4]!
   80e92:	b189      	cbz	r1, 80eb8 <findVacantPositionControlSignal+0x50>
	circBuffertActualValue[findVacantPositionActualValue()] = actualValue;
}

int32_t findVacantPositionControlSignal(void)
{
	for(int i = 0; i<SIZE; i++)
   80e94:	f100 0201 	add.w	r2, r0, #1
   80e98:	4610      	mov	r0, r2
	{
		if(circBuffertControlSignal[i] == 0)
   80e9a:	f853 1f04 	ldr.w	r1, [r3, #4]!
   80e9e:	b961      	cbnz	r1, 80eba <findVacantPositionControlSignal+0x52>
   80ea0:	bd08      	pop	{r3, pc}
		{
			return i;
		}
		if(circBuffertControlSignal[SIZE] != 0)
		{
			ShiftControlSignalBuffer();
   80ea2:	f640 6049 	movw	r0, #3657	; 0xe49
   80ea6:	f2c0 0008 	movt	r0, #8
   80eaa:	4780      	blx	r0
			return SIZE;
   80eac:	f04f 0013 	mov.w	r0, #19
   80eb0:	bd08      	pop	{r3, pc}
   80eb2:	bd08      	pop	{r3, pc}
	circBuffertActualValue[findVacantPositionActualValue()] = actualValue;
}

int32_t findVacantPositionControlSignal(void)
{
	for(int i = 0; i<SIZE; i++)
   80eb4:	f04f 0000 	mov.w	r0, #0
			ShiftControlSignalBuffer();
			return SIZE;
		}
	}
	//return 0;
}
   80eb8:	bd08      	pop	{r3, pc}
	circBuffertActualValue[findVacantPositionActualValue()] = actualValue;
}

int32_t findVacantPositionControlSignal(void)
{
	for(int i = 0; i<SIZE; i++)
   80eba:	f102 0001 	add.w	r0, r2, #1
   80ebe:	2813      	cmp	r0, #19
   80ec0:	d1e5      	bne.n	80e8e <findVacantPositionControlSignal+0x26>
   80ec2:	e7f6      	b.n	80eb2 <findVacantPositionControlSignal+0x4a>

00080ec4 <ShiftActualValueBuffer>:
		circBuffertControlSignal[i] = circBuffertControlSignal[i+1];
	}
}

void ShiftActualValueBuffer(void)
{
   80ec4:	f640 1374 	movw	r3, #2420	; 0x974
   80ec8:	f2c2 0307 	movt	r3, #8199	; 0x2007
	{
		circBuffertControlSignal[i] = circBuffertControlSignal[i+1];
	}
}

void ShiftActualValueBuffer(void)
   80ecc:	f103 0148 	add.w	r1, r3, #72	; 0x48
{
	for(int i = 0; i<SIZE-1; i++)
	{
		circBuffertActualValue[i] = circBuffertActualValue[i+1];
   80ed0:	f853 2f04 	ldr.w	r2, [r3, #4]!
   80ed4:	f843 2c04 	str.w	r2, [r3, #-4]
   80ed8:	6858      	ldr	r0, [r3, #4]
   80eda:	f843 0b04 	str.w	r0, [r3], #4
	}
}

void ShiftActualValueBuffer(void)
{
	for(int i = 0; i<SIZE-1; i++)
   80ede:	428b      	cmp	r3, r1
   80ee0:	d1f6      	bne.n	80ed0 <ShiftActualValueBuffer+0xc>
	{
		circBuffertActualValue[i] = circBuffertActualValue[i+1];
	}
}
   80ee2:	4770      	bx	lr

00080ee4 <findVacantPositionActualValue>:
	}
	//return 0;
}

int32_t findVacantPositionActualValue(void)
{
   80ee4:	b508      	push	{r3, lr}
	for(int i = 0; i<SIZE; i++)
	{
		if(circBuffertActualValue[i] == 0)
   80ee6:	f640 1374 	movw	r3, #2420	; 0x974
   80eea:	f2c2 0307 	movt	r3, #8199	; 0x2007
   80eee:	6818      	ldr	r0, [r3, #0]
   80ef0:	b1f0      	cbz	r0, 80f30 <findVacantPositionActualValue+0x4c>
		{
			return i;
		}
		if(circBuffertActualValue[SIZE] != 0)
   80ef2:	f640 1174 	movw	r1, #2420	; 0x974
   80ef6:	f2c2 0107 	movt	r1, #8199	; 0x2007
   80efa:	6cca      	ldr	r2, [r1, #76]	; 0x4c
   80efc:	b97a      	cbnz	r2, 80f1e <findVacantPositionActualValue+0x3a>
   80efe:	f640 1374 	movw	r3, #2420	; 0x974
   80f02:	f2c2 0307 	movt	r3, #8199	; 0x2007
	//return 0;
}

int32_t findVacantPositionActualValue(void)
{
	for(int i = 0; i<SIZE; i++)
   80f06:	f04f 0001 	mov.w	r0, #1
	{
		if(circBuffertActualValue[i] == 0)
   80f0a:	f853 1f04 	ldr.w	r1, [r3, #4]!
   80f0e:	b189      	cbz	r1, 80f34 <findVacantPositionActualValue+0x50>
	//return 0;
}

int32_t findVacantPositionActualValue(void)
{
	for(int i = 0; i<SIZE; i++)
   80f10:	f100 0201 	add.w	r2, r0, #1
   80f14:	4610      	mov	r0, r2
	{
		if(circBuffertActualValue[i] == 0)
   80f16:	f853 1f04 	ldr.w	r1, [r3, #4]!
   80f1a:	b961      	cbnz	r1, 80f36 <findVacantPositionActualValue+0x52>
   80f1c:	bd08      	pop	{r3, pc}
		{
			return i;
		}
		if(circBuffertActualValue[SIZE] != 0)
		{
			ShiftActualValueBuffer();
   80f1e:	f640 60c5 	movw	r0, #3781	; 0xec5
   80f22:	f2c0 0008 	movt	r0, #8
   80f26:	4780      	blx	r0
			return SIZE;
   80f28:	f04f 0013 	mov.w	r0, #19
   80f2c:	bd08      	pop	{r3, pc}
   80f2e:	bd08      	pop	{r3, pc}
	//return 0;
}

int32_t findVacantPositionActualValue(void)
{
	for(int i = 0; i<SIZE; i++)
   80f30:	f04f 0000 	mov.w	r0, #0
			ShiftActualValueBuffer();
			return SIZE;
		}
	}
	//return 0;
}
   80f34:	bd08      	pop	{r3, pc}
	//return 0;
}

int32_t findVacantPositionActualValue(void)
{
	for(int i = 0; i<SIZE; i++)
   80f36:	f102 0001 	add.w	r0, r2, #1
   80f3a:	2813      	cmp	r0, #19
   80f3c:	d1e5      	bne.n	80f0a <findVacantPositionActualValue+0x26>
   80f3e:	e7f6      	b.n	80f2e <findVacantPositionActualValue+0x4a>

00080f40 <setInfo>:
	statusSendReady = 0;
	//controllerInfo[0] = 0;
	//controllerInfo[1] = 0;
}

void setInfo(int32_t controlSignal, int32_t actualValue){
   80f40:	b538      	push	{r3, r4, r5, lr}
   80f42:	4605      	mov	r5, r0
   80f44:	460c      	mov	r4, r1
	//controllerInfo[0] = controlSignal;
	//controllerInfo[1] = actualValue;
	circBuffertControlSignal[findVacantPositionControlSignal()] = controlSignal;
   80f46:	f640 6369 	movw	r3, #3689	; 0xe69
   80f4a:	f2c0 0308 	movt	r3, #8
   80f4e:	4798      	blx	r3
   80f50:	f640 11c0 	movw	r1, #2496	; 0x9c0
   80f54:	f2c2 0107 	movt	r1, #8199	; 0x2007
   80f58:	f841 5020 	str.w	r5, [r1, r0, lsl #2]
	circBuffertActualValue[findVacantPositionActualValue()] = actualValue;
   80f5c:	f640 60e5 	movw	r0, #3813	; 0xee5
   80f60:	f2c0 0008 	movt	r0, #8
   80f64:	4780      	blx	r0
   80f66:	f640 1274 	movw	r2, #2420	; 0x974
   80f6a:	f2c2 0207 	movt	r2, #8199	; 0x2007
   80f6e:	f842 4020 	str.w	r4, [r2, r0, lsl #2]
   80f72:	bd38      	pop	{r3, r4, r5, pc}

00080f74 <taskSend>:
static int32_t circBuffertControlSignal[SIZE] = {0};
static int32_t circBuffertActualValue[SIZE] = {0};

static uint8_t statusSendReady = 0;

void taskSend(void *p){
   80f74:	e92d 41f0 	stmdb	sp!, {r4, r5, r6, r7, r8, lr}
   80f78:	b082      	sub	sp, #8
	portTickType xLastWakeTime;
	portTickType xSampleTime;
	
	xSampleTime = 250;
	xLastWakeTime = xTaskGetTickCount();
   80f7a:	f641 630d 	movw	r3, #7693	; 0x1e0d
   80f7e:	f2c0 0308 	movt	r3, #8
   80f82:	4798      	blx	r3
   80f84:	9001      	str	r0, [sp, #4]
	for(;;){
		vTaskDelayUntil(&xLastWakeTime, xSampleTime);
   80f86:	f242 15ad 	movw	r5, #8621	; 0x21ad
   80f8a:	f2c0 0508 	movt	r5, #8
		
		if(statusSendReady == 1){
   80f8e:	f640 1470 	movw	r4, #2416	; 0x970
   80f92:	f2c2 0407 	movt	r4, #8199	; 0x2007
			printf("%d\n", circBuffertControlSignal[0]);
   80f96:	f649 276c 	movw	r7, #39532	; 0x9a6c
   80f9a:	f2c0 0708 	movt	r7, #8
   80f9e:	f640 18c0 	movw	r8, #2496	; 0x9c0
   80fa2:	f2c2 0807 	movt	r8, #8199	; 0x2007
	portTickType xSampleTime;
	
	xSampleTime = 250;
	xLastWakeTime = xTaskGetTickCount();
	for(;;){
		vTaskDelayUntil(&xLastWakeTime, xSampleTime);
   80fa6:	a801      	add	r0, sp, #4
   80fa8:	f04f 01fa 	mov.w	r1, #250	; 0xfa
   80fac:	47a8      	blx	r5
		
		if(statusSendReady == 1){
   80fae:	7820      	ldrb	r0, [r4, #0]
   80fb0:	2801      	cmp	r0, #1
   80fb2:	d1f8      	bne.n	80fa6 <taskSend+0x32>
			printf("%d\n", circBuffertControlSignal[0]);
   80fb4:	4638      	mov	r0, r7
   80fb6:	f8d8 1000 	ldr.w	r1, [r8]
   80fba:	f244 5611 	movw	r6, #17681	; 0x4511
   80fbe:	f2c0 0608 	movt	r6, #8
   80fc2:	47b0      	blx	r6
			printf("%d\n", circBuffertActualValue[0]);
   80fc4:	4638      	mov	r0, r7
   80fc6:	f640 1174 	movw	r1, #2420	; 0x974
   80fca:	f2c2 0107 	movt	r1, #8199	; 0x2007
   80fce:	6809      	ldr	r1, [r1, #0]
   80fd0:	47b0      	blx	r6
			ShiftControlSignalBuffer();
   80fd2:	f640 6249 	movw	r2, #3657	; 0xe49
   80fd6:	f2c0 0208 	movt	r2, #8
   80fda:	4790      	blx	r2
			ShiftActualValueBuffer();
   80fdc:	f640 63c5 	movw	r3, #3781	; 0xec5
   80fe0:	f2c0 0308 	movt	r3, #8
   80fe4:	4798      	blx	r3
   80fe6:	e7de      	b.n	80fa6 <taskSend+0x32>

00080fe8 <vListInitialise>:
void vListInitialise( xList *pxList )
{
	/* The list structure contains a list item which is used to mark the
	end of the list.  To initialise the list the list end is inserted
	as the only list entry. */
	pxList->pxIndex = ( xListItem * ) &( pxList->xListEnd );
   80fe8:	f100 0308 	add.w	r3, r0, #8
   80fec:	6043      	str	r3, [r0, #4]

	/* The list end value is the highest possible value in the list to
	ensure it remains at the end of the list. */
	pxList->xListEnd.xItemValue = portMAX_DELAY;
   80fee:	f04f 32ff 	mov.w	r2, #4294967295
   80ff2:	6082      	str	r2, [r0, #8]

	/* The list end next and previous pointers point to itself so we know
	when the list is empty. */
	pxList->xListEnd.pxNext = ( xListItem * ) &( pxList->xListEnd );
   80ff4:	60c3      	str	r3, [r0, #12]
	pxList->xListEnd.pxPrevious = ( xListItem * ) &( pxList->xListEnd );
   80ff6:	6103      	str	r3, [r0, #16]

	pxList->uxNumberOfItems = ( unsigned portBASE_TYPE ) 0U;
   80ff8:	f04f 0100 	mov.w	r1, #0
   80ffc:	6001      	str	r1, [r0, #0]
   80ffe:	4770      	bx	lr

00081000 <vListInitialiseItem>:
/*-----------------------------------------------------------*/

void vListInitialiseItem( xListItem *pxItem )
{
	/* Make sure the list item is not recorded as being on a list. */
	pxItem->pvContainer = NULL;
   81000:	f04f 0300 	mov.w	r3, #0
   81004:	6103      	str	r3, [r0, #16]
   81006:	4770      	bx	lr

00081008 <vListInsertEnd>:

	/* Insert a new list item into pxList, but rather than sort the list,
	makes the new list item the last item to be removed by a call to
	pvListGetOwnerOfNextEntry.  This means it has to be the item pointed to by
	the pxIndex member. */
	pxIndex = pxList->pxIndex;
   81008:	6843      	ldr	r3, [r0, #4]

	pxNewListItem->pxNext = pxIndex->pxNext;
   8100a:	685a      	ldr	r2, [r3, #4]
   8100c:	604a      	str	r2, [r1, #4]
	pxNewListItem->pxPrevious = pxList->pxIndex;
   8100e:	6842      	ldr	r2, [r0, #4]
   81010:	608a      	str	r2, [r1, #8]
	pxIndex->pxNext->pxPrevious = ( volatile xListItem * ) pxNewListItem;
   81012:	685a      	ldr	r2, [r3, #4]
   81014:	6091      	str	r1, [r2, #8]
	pxIndex->pxNext = ( volatile xListItem * ) pxNewListItem;
   81016:	6059      	str	r1, [r3, #4]
	pxList->pxIndex = ( volatile xListItem * ) pxNewListItem;
   81018:	6041      	str	r1, [r0, #4]

	/* Remember which list the item is in. */
	pxNewListItem->pvContainer = ( void * ) pxList;
   8101a:	6108      	str	r0, [r1, #16]

	( pxList->uxNumberOfItems )++;
   8101c:	6801      	ldr	r1, [r0, #0]
   8101e:	f101 0101 	add.w	r1, r1, #1
   81022:	6001      	str	r1, [r0, #0]
   81024:	4770      	bx	lr
   81026:	bf00      	nop

00081028 <vListInsert>:
}
/*-----------------------------------------------------------*/

void vListInsert( xList *pxList, xListItem *pxNewListItem )
{
   81028:	b410      	push	{r4}
volatile xListItem *pxIterator;
portTickType xValueOfInsertion;

	/* Insert the new list item into the list, sorted in ulListItem order. */
	xValueOfInsertion = pxNewListItem->xItemValue;
   8102a:	680c      	ldr	r4, [r1, #0]
	are stored in ready lists (all of which have the same ulListItem value)
	get an equal share of the CPU.  However, if the xItemValue is the same as
	the back marker the iteration loop below will not end.  This means we need
	to guard against this by checking the value first and modifying the
	algorithm slightly if necessary. */
	if( xValueOfInsertion == portMAX_DELAY )
   8102c:	f1b4 3fff 	cmp.w	r4, #4294967295
   81030:	d101      	bne.n	81036 <vListInsert+0xe>
	{
		pxIterator = pxList->xListEnd.pxPrevious;
   81032:	6903      	ldr	r3, [r0, #16]
   81034:	e00a      	b.n	8104c <vListInsert+0x24>
			   before the scheduler has been started (are interrupts firing
			   before vTaskStartScheduler() has been called?).
		See http://www.freertos.org/FAQHelp.html for more tips.
		**********************************************************************/

		for( pxIterator = ( xListItem * ) &( pxList->xListEnd ); pxIterator->pxNext->xItemValue <= xValueOfInsertion; pxIterator = pxIterator->pxNext )
   81036:	f100 0308 	add.w	r3, r0, #8
   8103a:	68c2      	ldr	r2, [r0, #12]
   8103c:	6812      	ldr	r2, [r2, #0]
   8103e:	4294      	cmp	r4, r2
   81040:	d304      	bcc.n	8104c <vListInsert+0x24>
   81042:	685b      	ldr	r3, [r3, #4]
   81044:	685a      	ldr	r2, [r3, #4]
   81046:	6812      	ldr	r2, [r2, #0]
   81048:	4294      	cmp	r4, r2
   8104a:	d2fa      	bcs.n	81042 <vListInsert+0x1a>
			/* There is nothing to do here, we are just iterating to the
			wanted insertion position. */
		}
	}

	pxNewListItem->pxNext = pxIterator->pxNext;
   8104c:	685a      	ldr	r2, [r3, #4]
   8104e:	604a      	str	r2, [r1, #4]
	pxNewListItem->pxNext->pxPrevious = ( volatile xListItem * ) pxNewListItem;
   81050:	6091      	str	r1, [r2, #8]
	pxNewListItem->pxPrevious = pxIterator;
   81052:	608b      	str	r3, [r1, #8]
	pxIterator->pxNext = ( volatile xListItem * ) pxNewListItem;
   81054:	6059      	str	r1, [r3, #4]

	/* Remember which list the item is in.  This allows fast removal of the
	item later. */
	pxNewListItem->pvContainer = ( void * ) pxList;
   81056:	6108      	str	r0, [r1, #16]

	( pxList->uxNumberOfItems )++;
   81058:	6801      	ldr	r1, [r0, #0]
   8105a:	f101 0101 	add.w	r1, r1, #1
   8105e:	6001      	str	r1, [r0, #0]
}
   81060:	bc10      	pop	{r4}
   81062:	4770      	bx	lr

00081064 <uxListRemove>:

unsigned portBASE_TYPE uxListRemove( xListItem *pxItemToRemove )
{
xList * pxList;

	pxItemToRemove->pxNext->pxPrevious = pxItemToRemove->pxPrevious;
   81064:	6843      	ldr	r3, [r0, #4]
   81066:	6882      	ldr	r2, [r0, #8]
   81068:	609a      	str	r2, [r3, #8]
	pxItemToRemove->pxPrevious->pxNext = pxItemToRemove->pxNext;
   8106a:	6881      	ldr	r1, [r0, #8]
   8106c:	6843      	ldr	r3, [r0, #4]
   8106e:	604b      	str	r3, [r1, #4]

	/* The list item knows which list it is in.  Obtain the list from the list
	item. */
	pxList = ( xList * ) pxItemToRemove->pvContainer;
   81070:	6901      	ldr	r1, [r0, #16]

	/* Make sure the index is left pointing to a valid item. */
	if( pxList->pxIndex == pxItemToRemove )
   81072:	684a      	ldr	r2, [r1, #4]
   81074:	4282      	cmp	r2, r0
	{
		pxList->pxIndex = pxItemToRemove->pxPrevious;
   81076:	bf04      	itt	eq
   81078:	6882      	ldreq	r2, [r0, #8]
   8107a:	604a      	streq	r2, [r1, #4]
	}

	pxItemToRemove->pvContainer = NULL;
   8107c:	f04f 0300 	mov.w	r3, #0
   81080:	6103      	str	r3, [r0, #16]
	( pxList->uxNumberOfItems )--;
   81082:	6808      	ldr	r0, [r1, #0]
   81084:	f100 32ff 	add.w	r2, r0, #4294967295
   81088:	600a      	str	r2, [r1, #0]

	return pxList->uxNumberOfItems;
   8108a:	6808      	ldr	r0, [r1, #0]
}
   8108c:	4770      	bx	lr
   8108e:	bf00      	nop

00081090 <prvPortStartFirstTask>:
}
/*-----------------------------------------------------------*/

static void prvPortStartFirstTask( void )
{
	__asm volatile(
   81090:	4803      	ldr	r0, [pc, #12]	; (810a0 <prvPortStartFirstTask+0x10>)
   81092:	6800      	ldr	r0, [r0, #0]
   81094:	6800      	ldr	r0, [r0, #0]
   81096:	f380 8808 	msr	MSP, r0
   8109a:	b662      	cpsie	i
   8109c:	df00      	svc	0
   8109e:	bf00      	nop
   810a0:	e000ed08 	.word	0xe000ed08

000810a4 <pxPortInitialiseStack>:
portSTACK_TYPE *pxPortInitialiseStack( portSTACK_TYPE *pxTopOfStack, pdTASK_CODE pxCode, void *pvParameters )
{
	/* Simulate the stack frame as it would be created by a context switch
	interrupt. */
	pxTopOfStack--; /* Offset added to account for the way the MCU uses the stack on entry/exit of interrupts. */
	*pxTopOfStack = portINITIAL_XPSR;	/* xPSR */
   810a4:	f04f 7380 	mov.w	r3, #16777216	; 0x1000000
   810a8:	f840 3c04 	str.w	r3, [r0, #-4]
	pxTopOfStack--;
	*pxTopOfStack = ( portSTACK_TYPE ) pxCode;	/* PC */
   810ac:	f840 1c08 	str.w	r1, [r0, #-8]
	pxTopOfStack--;
	*pxTopOfStack = 0;	/* LR */
   810b0:	f04f 0100 	mov.w	r1, #0
   810b4:	f840 1c0c 	str.w	r1, [r0, #-12]
	pxTopOfStack -= 5;	/* R12, R3, R2 and R1. */
	*pxTopOfStack = ( portSTACK_TYPE ) pvParameters;	/* R0 */
   810b8:	f840 2c20 	str.w	r2, [r0, #-32]
	pxTopOfStack -= 8;	/* R11, R10, R9, R8, R7, R6, R5 and R4. */

	return pxTopOfStack;
}
   810bc:	f1a0 0040 	sub.w	r0, r0, #64	; 0x40
   810c0:	4770      	bx	lr
   810c2:	bf00      	nop

000810c4 <SVC_Handler>:
/*-----------------------------------------------------------*/

__attribute__ (( naked )) void SVC_Handler( void )
{
	__asm volatile (
   810c4:	4b06      	ldr	r3, [pc, #24]	; (810e0 <pxCurrentTCBConst2>)
   810c6:	6819      	ldr	r1, [r3, #0]
   810c8:	6808      	ldr	r0, [r1, #0]
   810ca:	e8b0 0ff0 	ldmia.w	r0!, {r4, r5, r6, r7, r8, r9, sl, fp}
   810ce:	f380 8809 	msr	PSP, r0
   810d2:	f04f 0000 	mov.w	r0, #0
   810d6:	f380 8811 	msr	BASEPRI, r0
   810da:	f04e 0e0d 	orr.w	lr, lr, #13
   810de:	4770      	bx	lr

000810e0 <pxCurrentTCBConst2>:
   810e0:	2007aad4 	.word	0x2007aad4

000810e4 <vPortYieldFromISR>:
/*-----------------------------------------------------------*/

void vPortYieldFromISR( void )
{
	/* Set a PendSV to request a context switch. */
	portNVIC_INT_CTRL_REG = portNVIC_PENDSVSET_BIT;
   810e4:	f64e 5304 	movw	r3, #60676	; 0xed04
   810e8:	f2ce 0300 	movt	r3, #57344	; 0xe000
   810ec:	f04f 5280 	mov.w	r2, #268435456	; 0x10000000
   810f0:	601a      	str	r2, [r3, #0]
   810f2:	4770      	bx	lr

000810f4 <ulPortSetInterruptMask>:
}
/*-----------------------------------------------------------*/

__attribute__(( naked )) unsigned long ulPortSetInterruptMask( void )
{
	__asm volatile														\
   810f4:	f3ef 8011 	mrs	r0, BASEPRI
   810f8:	f04f 01a0 	mov.w	r1, #160	; 0xa0
   810fc:	f381 8811 	msr	BASEPRI, r1
   81100:	4770      	bx	lr
	);

	/* This return will not be reached but is necessary to prevent compiler
	warnings. */
	return 0;
}
   81102:	f04f 0000 	mov.w	r0, #0
   81106:	bf00      	nop

00081108 <vPortEnterCritical>:
	portNVIC_INT_CTRL_REG = portNVIC_PENDSVSET_BIT;
}
/*-----------------------------------------------------------*/

void vPortEnterCritical( void )
{
   81108:	b508      	push	{r3, lr}
	portDISABLE_INTERRUPTS();
   8110a:	f241 03f5 	movw	r3, #4341	; 0x10f5
   8110e:	f2c0 0308 	movt	r3, #8
   81112:	4798      	blx	r3
	uxCriticalNesting++;
   81114:	f240 0008 	movw	r0, #8
   81118:	f2c2 0007 	movt	r0, #8199	; 0x2007
   8111c:	6802      	ldr	r2, [r0, #0]
   8111e:	f102 0201 	add.w	r2, r2, #1
   81122:	6002      	str	r2, [r0, #0]
   81124:	bd08      	pop	{r3, pc}
   81126:	bf00      	nop

00081128 <vPortClearInterruptMask>:
}
/*-----------------------------------------------------------*/

__attribute__(( naked )) void vPortClearInterruptMask( unsigned long ulNewMaskValue )
{
	__asm volatile													\
   81128:	f380 8811 	msr	BASEPRI, r0
   8112c:	4770      	bx	lr
   8112e:	bf00      	nop

00081130 <vPortExitCritical>:
	uxCriticalNesting++;
}
/*-----------------------------------------------------------*/

void vPortExitCritical( void )
{
   81130:	b508      	push	{r3, lr}
	uxCriticalNesting--;
   81132:	f240 0208 	movw	r2, #8
   81136:	f2c2 0207 	movt	r2, #8199	; 0x2007
   8113a:	6813      	ldr	r3, [r2, #0]
   8113c:	f103 30ff 	add.w	r0, r3, #4294967295
   81140:	6010      	str	r0, [r2, #0]
	if( uxCriticalNesting == 0 )
   81142:	b930      	cbnz	r0, 81152 <vPortExitCritical+0x22>
	{
		portENABLE_INTERRUPTS();
   81144:	f04f 0000 	mov.w	r0, #0
   81148:	f241 1129 	movw	r1, #4393	; 0x1129
   8114c:	f2c0 0108 	movt	r1, #8
   81150:	4788      	blx	r1
   81152:	bd08      	pop	{r3, pc}

00081154 <PendSV_Handler>:

__attribute__(( naked )) void PendSV_Handler( void )
{
	/* This is a naked function. */

	__asm volatile
   81154:	f3ef 8009 	mrs	r0, PSP
   81158:	4b0c      	ldr	r3, [pc, #48]	; (8118c <pxCurrentTCBConst>)
   8115a:	681a      	ldr	r2, [r3, #0]
   8115c:	e920 0ff0 	stmdb	r0!, {r4, r5, r6, r7, r8, r9, sl, fp}
   81160:	6010      	str	r0, [r2, #0]
   81162:	e92d 4008 	stmdb	sp!, {r3, lr}
   81166:	f04f 00a0 	mov.w	r0, #160	; 0xa0
   8116a:	f380 8811 	msr	BASEPRI, r0
   8116e:	f001 f877 	bl	82260 <vTaskSwitchContext>
   81172:	f04f 0000 	mov.w	r0, #0
   81176:	f380 8811 	msr	BASEPRI, r0
   8117a:	e8bd 4008 	ldmia.w	sp!, {r3, lr}
   8117e:	6819      	ldr	r1, [r3, #0]
   81180:	6808      	ldr	r0, [r1, #0]
   81182:	e8b0 0ff0 	ldmia.w	r0!, {r4, r5, r6, r7, r8, r9, sl, fp}
   81186:	f380 8809 	msr	PSP, r0
   8118a:	4770      	bx	lr

0008118c <pxCurrentTCBConst>:
   8118c:	2007aad4 	.word	0x2007aad4

00081190 <SysTick_Handler>:
	);
}
/*-----------------------------------------------------------*/

void SysTick_Handler( void )
{
   81190:	b508      	push	{r3, lr}
	/* If using preemption, also force a context switch. */
	#if configUSE_PREEMPTION == 1
		portNVIC_INT_CTRL_REG = portNVIC_PENDSVSET_BIT;
   81192:	f64e 5304 	movw	r3, #60676	; 0xed04
   81196:	f2ce 0300 	movt	r3, #57344	; 0xe000
   8119a:	f04f 5280 	mov.w	r2, #268435456	; 0x10000000
   8119e:	601a      	str	r2, [r3, #0]
	to generate the tick interrupt. */
	#if configUSE_TICKLESS_IDLE == 1
		portNVIC_SYSTICK_LOAD_REG = ulTimerReloadValueForOneTick;
	#endif

	( void ) portSET_INTERRUPT_MASK_FROM_ISR();
   811a0:	f241 00f5 	movw	r0, #4341	; 0x10f5
   811a4:	f2c0 0008 	movt	r0, #8
   811a8:	4780      	blx	r0
	{
		vTaskIncrementTick();
   811aa:	f641 6131 	movw	r1, #7729	; 0x1e31
   811ae:	f2c0 0108 	movt	r1, #8
   811b2:	4788      	blx	r1
	}
	portCLEAR_INTERRUPT_MASK_FROM_ISR( 0 );
   811b4:	f04f 0000 	mov.w	r0, #0
   811b8:	f241 1329 	movw	r3, #4393	; 0x1129
   811bc:	f2c0 0308 	movt	r3, #8
   811c0:	4798      	blx	r3
   811c2:	bd08      	pop	{r3, pc}

000811c4 <vPortSetupTimerInterrupt>:
		ulStoppedTimerCompensation = 45UL / ( configCPU_CLOCK_HZ / configSYSTICK_CLOCK_HZ );
	}
	#endif /* configUSE_TICKLESS_IDLE */

	/* Configure SysTick to interrupt at the requested rate. */
	portNVIC_SYSTICK_LOAD_REG = ( configSYSTICK_CLOCK_HZ / configTICK_RATE_HZ ) - 1UL;;
   811c4:	f24e 0314 	movw	r3, #57364	; 0xe014
   811c8:	f2ce 0300 	movt	r3, #57344	; 0xe000
   811cc:	f644 021f 	movw	r2, #18463	; 0x481f
   811d0:	f2c0 0201 	movt	r2, #1
   811d4:	601a      	str	r2, [r3, #0]
	portNVIC_SYSTICK_CTRL_REG = portNVIC_SYSTICK_CLK_BIT | portNVIC_SYSTICK_INT_BIT | portNVIC_SYSTICK_ENABLE_BIT;
   811d6:	f24e 0010 	movw	r0, #57360	; 0xe010
   811da:	f2ce 0000 	movt	r0, #57344	; 0xe000
   811de:	f04f 0107 	mov.w	r1, #7
   811e2:	6001      	str	r1, [r0, #0]
   811e4:	4770      	bx	lr
   811e6:	bf00      	nop

000811e8 <xPortStartScheduler>:

/*
 * See header file for description.
 */
portBASE_TYPE xPortStartScheduler( void )
{
   811e8:	b510      	push	{r4, lr}
	/* configMAX_SYSCALL_INTERRUPT_PRIORITY must not be set to 0.
	See http://www.FreeRTOS.org/RTOS-Cortex-M3-M4.html */
	configASSERT( configMAX_SYSCALL_INTERRUPT_PRIORITY );

	/* Make PendSV, CallSV and SysTick the same priroity as the kernel. */
	portNVIC_SYSPRI2_REG |= portNVIC_PENDSV_PRI;
   811ea:	f64e 5320 	movw	r3, #60704	; 0xed20
   811ee:	f2ce 0300 	movt	r3, #57344	; 0xe000
   811f2:	681a      	ldr	r2, [r3, #0]
   811f4:	f442 0070 	orr.w	r0, r2, #15728640	; 0xf00000
   811f8:	6018      	str	r0, [r3, #0]
	portNVIC_SYSPRI2_REG |= portNVIC_SYSTICK_PRI;
   811fa:	6819      	ldr	r1, [r3, #0]
   811fc:	f041 4470 	orr.w	r4, r1, #4026531840	; 0xf0000000
   81200:	601c      	str	r4, [r3, #0]

	/* Start the timer that generates the tick ISR.  Interrupts are disabled
	here already. */
	vPortSetupTimerInterrupt();
   81202:	f241 13c5 	movw	r3, #4549	; 0x11c5
   81206:	f2c0 0308 	movt	r3, #8
   8120a:	4798      	blx	r3

	/* Initialise the critical nesting count ready for the first task. */
	uxCriticalNesting = 0;
   8120c:	f04f 0400 	mov.w	r4, #0
   81210:	f240 0208 	movw	r2, #8
   81214:	f2c2 0207 	movt	r2, #8199	; 0x2007
   81218:	6014      	str	r4, [r2, #0]

	/* Start the first task. */
	prvPortStartFirstTask();
   8121a:	f241 0091 	movw	r0, #4241	; 0x1091
   8121e:	f2c0 0008 	movt	r0, #8
   81222:	4780      	blx	r0

	/* Should not get here! */
	return 0;
}
   81224:	4620      	mov	r0, r4
   81226:	bd10      	pop	{r4, pc}

00081228 <prvInsertBlockIntoFreeList>:
	xFreeBytesRemaining -= heapSTRUCT_SIZE;
}
/*-----------------------------------------------------------*/

static void prvInsertBlockIntoFreeList( xBlockLink *pxBlockToInsert )
{
   81228:	b430      	push	{r4, r5}
xBlockLink *pxIterator;
unsigned char *puc;

	/* Iterate through the list until a block is found that has a higher address
	than the block being inserted. */
	for( pxIterator = &xStart; pxIterator->pxNextFreeBlock < pxBlockToInsert; pxIterator = pxIterator->pxNextFreeBlock )
   8122a:	f64a 2214 	movw	r2, #43540	; 0xaa14
   8122e:	f2c2 0207 	movt	r2, #8199	; 0x2007
   81232:	e000      	b.n	81236 <prvInsertBlockIntoFreeList+0xe>
   81234:	461a      	mov	r2, r3
   81236:	6813      	ldr	r3, [r2, #0]
   81238:	4283      	cmp	r3, r0
   8123a:	d3fb      	bcc.n	81234 <prvInsertBlockIntoFreeList+0xc>
   8123c:	4611      	mov	r1, r2
	}

	/* Do the block being inserted, and the block it is being inserted after
	make a contiguous block of memory? */	
	puc = ( unsigned char * ) pxIterator;
	if( ( puc + pxIterator->xBlockSize ) == ( unsigned char * ) pxBlockToInsert )
   8123e:	6854      	ldr	r4, [r2, #4]
   81240:	1915      	adds	r5, r2, r4
   81242:	4285      	cmp	r5, r0
   81244:	d103      	bne.n	8124e <prvInsertBlockIntoFreeList+0x26>
	{
		pxIterator->xBlockSize += pxBlockToInsert->xBlockSize;
   81246:	6868      	ldr	r0, [r5, #4]
   81248:	1904      	adds	r4, r0, r4
   8124a:	6054      	str	r4, [r2, #4]
   8124c:	4610      	mov	r0, r2
	}

	/* Do the block being inserted, and the block it is being inserted before
	make a contiguous block of memory? */
	puc = ( unsigned char * ) pxBlockToInsert;
	if( ( puc + pxBlockToInsert->xBlockSize ) == ( unsigned char * ) pxIterator->pxNextFreeBlock )
   8124e:	6842      	ldr	r2, [r0, #4]
   81250:	1884      	adds	r4, r0, r2
   81252:	42a3      	cmp	r3, r4
   81254:	d10f      	bne.n	81276 <prvInsertBlockIntoFreeList+0x4e>
	{
		if( pxIterator->pxNextFreeBlock != pxEnd )
   81256:	f64a 2410 	movw	r4, #43536	; 0xaa10
   8125a:	f2c2 0407 	movt	r4, #8199	; 0x2007
   8125e:	6824      	ldr	r4, [r4, #0]
   81260:	429c      	cmp	r4, r3
   81262:	d006      	beq.n	81272 <prvInsertBlockIntoFreeList+0x4a>
		{
			/* Form one big block from the two blocks. */
			pxBlockToInsert->xBlockSize += pxIterator->pxNextFreeBlock->xBlockSize;
   81264:	685b      	ldr	r3, [r3, #4]
   81266:	189a      	adds	r2, r3, r2
   81268:	6042      	str	r2, [r0, #4]
			pxBlockToInsert->pxNextFreeBlock = pxIterator->pxNextFreeBlock->pxNextFreeBlock;
   8126a:	680b      	ldr	r3, [r1, #0]
   8126c:	681a      	ldr	r2, [r3, #0]
   8126e:	6002      	str	r2, [r0, #0]
   81270:	e002      	b.n	81278 <prvInsertBlockIntoFreeList+0x50>
		}
		else
		{
			pxBlockToInsert->pxNextFreeBlock = pxEnd;
   81272:	6003      	str	r3, [r0, #0]
   81274:	e000      	b.n	81278 <prvInsertBlockIntoFreeList+0x50>
		}
	}
	else
	{
		pxBlockToInsert->pxNextFreeBlock = pxIterator->pxNextFreeBlock;		
   81276:	6003      	str	r3, [r0, #0]

	/* If the block being inserted plugged a gab, so was merged with the block
	before and the block after, then it's pxNextFreeBlock pointer will have
	already been set, and should not be set here as that would make it point
	to itself. */
	if( pxIterator != pxBlockToInsert )
   81278:	4281      	cmp	r1, r0
	{
		pxIterator->pxNextFreeBlock = pxBlockToInsert;
   8127a:	bf18      	it	ne
   8127c:	6008      	strne	r0, [r1, #0]
	}
}
   8127e:	bc30      	pop	{r4, r5}
   81280:	4770      	bx	lr
   81282:	bf00      	nop

00081284 <pvPortMalloc>:
/* STATIC FUNCTIONS ARE DEFINED AS MACROS TO MINIMIZE THE FUNCTION CALL DEPTH. */

/*-----------------------------------------------------------*/

void *pvPortMalloc( size_t xWantedSize )
{
   81284:	b538      	push	{r3, r4, r5, lr}
   81286:	4604      	mov	r4, r0
xBlockLink *pxBlock, *pxPreviousBlock, *pxNewBlockLink;
void *pvReturn = NULL;

	vTaskSuspendAll();
   81288:	f641 53f9 	movw	r3, #7673	; 0x1df9
   8128c:	f2c0 0308 	movt	r3, #8
   81290:	4798      	blx	r3
	{
		/* If this is the first call to malloc then the heap will require
		initialisation to setup the list of free blocks. */
		if( pxEnd == NULL )
   81292:	f64a 2010 	movw	r0, #43536	; 0xaa10
   81296:	f2c2 0007 	movt	r0, #8199	; 0x2007
   8129a:	6801      	ldr	r1, [r0, #0]
   8129c:	bb21      	cbnz	r1, 812e8 <pvPortMalloc+0x64>
	/* Ensure the start of the heap is aligned. */
	configASSERT( ( ( ( unsigned long ) xHeap.ucHeap ) & ( ( unsigned long ) portBYTE_ALIGNMENT_MASK ) ) == 0UL );

	/* xStart is used to hold a pointer to the first item in the list of free
	blocks.  The void cast is used to prevent compiler warnings. */
	xStart.pxNextFreeBlock = ( void * ) xHeap.ucHeap;
   8129e:	f64a 2214 	movw	r2, #43540	; 0xaa14
   812a2:	f2c2 0207 	movt	r2, #8199	; 0x2007
   812a6:	f640 2310 	movw	r3, #2576	; 0xa10
   812aa:	f2c2 0307 	movt	r3, #8199	; 0x2007
   812ae:	6013      	str	r3, [r2, #0]
	xStart.xBlockSize = ( size_t ) 0;
   812b0:	f04f 0100 	mov.w	r1, #0
   812b4:	6051      	str	r1, [r2, #4]

	/* pxEnd is used to mark the end of the list of free blocks and is inserted
	at the end of the heap space. */
	pucHeapEnd = xHeap.ucHeap + xTotalHeapSize;
	pucHeapEnd -= heapSTRUCT_SIZE;
	pxEnd = ( void * ) pucHeapEnd;
   812b6:	f503 421f 	add.w	r2, r3, #40704	; 0x9f00
   812ba:	f102 00f0 	add.w	r0, r2, #240	; 0xf0
   812be:	f64a 2510 	movw	r5, #43536	; 0xaa10
   812c2:	f2c2 0507 	movt	r5, #8199	; 0x2007
   812c6:	6028      	str	r0, [r5, #0]
	configASSERT( ( ( ( unsigned long ) pxEnd ) & ( ( unsigned long ) portBYTE_ALIGNMENT_MASK ) ) == 0UL );
	pxEnd->xBlockSize = 0;
   812c8:	f8c2 10f4 	str.w	r1, [r2, #244]	; 0xf4
	pxEnd->pxNextFreeBlock = NULL;
   812cc:	f8c2 10f0 	str.w	r1, [r2, #240]	; 0xf0

	/* To start with there is a single free block that is sized to take up the
	entire heap space, minus the space taken by pxEnd. */
	pxFirstFreeBlock = ( void * ) xHeap.ucHeap;
	pxFirstFreeBlock->xBlockSize = xTotalHeapSize - heapSTRUCT_SIZE;
   812d0:	f649 71f0 	movw	r1, #40944	; 0x9ff0
   812d4:	6059      	str	r1, [r3, #4]
	pxFirstFreeBlock->pxNextFreeBlock = pxEnd;
   812d6:	6018      	str	r0, [r3, #0]

	/* The heap now contains pxEnd. */
	xFreeBytesRemaining -= heapSTRUCT_SIZE;
   812d8:	f240 030c 	movw	r3, #12
   812dc:	f2c2 0307 	movt	r3, #8199	; 0x2007
   812e0:	681a      	ldr	r2, [r3, #0]
   812e2:	f1a2 0210 	sub.w	r2, r2, #16
   812e6:	601a      	str	r2, [r3, #0]
			prvHeapInit();
		}

		/* The wanted size is increased so it can contain a xBlockLink
		structure in addition to the requested amount of bytes. */
		if( xWantedSize > 0 )
   812e8:	2c00      	cmp	r4, #0
   812ea:	d03c      	beq.n	81366 <pvPortMalloc+0xe2>
		{
			xWantedSize += heapSTRUCT_SIZE;
   812ec:	f104 0210 	add.w	r2, r4, #16

			/* Ensure that blocks are always aligned to the required number of 
			bytes. */
			if( xWantedSize & portBYTE_ALIGNMENT_MASK )
   812f0:	f012 0f07 	tst.w	r2, #7
			{
				/* Byte alignment required. */
				xWantedSize += ( portBYTE_ALIGNMENT - ( xWantedSize & portBYTE_ALIGNMENT_MASK ) );
   812f4:	bf1c      	itt	ne
   812f6:	f022 0207 	bicne.w	r2, r2, #7
   812fa:	3208      	addne	r2, #8
			}
		}

		if( ( xWantedSize > 0 ) && ( xWantedSize < xTotalHeapSize ) )
   812fc:	f102 30ff 	add.w	r0, r2, #4294967295
   81300:	f649 75fe 	movw	r5, #40958	; 0x9ffe
   81304:	42a8      	cmp	r0, r5
   81306:	d831      	bhi.n	8136c <pvPortMalloc+0xe8>
		{
			/* Traverse the list from the start	(lowest address) block until one
			of adequate size is found. */
			pxPreviousBlock = &xStart;
			pxBlock = xStart.pxNextFreeBlock;
   81308:	f64a 2114 	movw	r1, #43540	; 0xaa14
   8130c:	f2c2 0107 	movt	r1, #8199	; 0x2007
   81310:	680c      	ldr	r4, [r1, #0]
			while( ( pxBlock->xBlockSize < xWantedSize ) && ( pxBlock->pxNextFreeBlock != NULL ) )
   81312:	e001      	b.n	81318 <pvPortMalloc+0x94>
   81314:	4621      	mov	r1, r4
			{
				pxPreviousBlock = pxBlock;
				pxBlock = pxBlock->pxNextFreeBlock;
   81316:	4604      	mov	r4, r0
		{
			/* Traverse the list from the start	(lowest address) block until one
			of adequate size is found. */
			pxPreviousBlock = &xStart;
			pxBlock = xStart.pxNextFreeBlock;
			while( ( pxBlock->xBlockSize < xWantedSize ) && ( pxBlock->pxNextFreeBlock != NULL ) )
   81318:	6863      	ldr	r3, [r4, #4]
   8131a:	429a      	cmp	r2, r3
   8131c:	d902      	bls.n	81324 <pvPortMalloc+0xa0>
   8131e:	6820      	ldr	r0, [r4, #0]
   81320:	2800      	cmp	r0, #0
   81322:	d1f7      	bne.n	81314 <pvPortMalloc+0x90>
				pxBlock = pxBlock->pxNextFreeBlock;
			}

			/* If the end marker was reached then a block of adequate size was
			not found. */
			if( pxBlock != pxEnd )
   81324:	f64a 2510 	movw	r5, #43536	; 0xaa10
   81328:	f2c2 0507 	movt	r5, #8199	; 0x2007
   8132c:	682b      	ldr	r3, [r5, #0]
   8132e:	429c      	cmp	r4, r3
   81330:	d01f      	beq.n	81372 <pvPortMalloc+0xee>
			{
				/* Return the memory space - jumping over the xBlockLink structure
				at its start. */
				pvReturn = ( void * ) ( ( ( unsigned char * ) pxPreviousBlock->pxNextFreeBlock ) + heapSTRUCT_SIZE );
   81332:	680d      	ldr	r5, [r1, #0]
   81334:	f105 0510 	add.w	r5, r5, #16

				/* This block is being returned for use so must be taken out of
				the	list of free blocks. */
				pxPreviousBlock->pxNextFreeBlock = pxBlock->pxNextFreeBlock;
   81338:	6820      	ldr	r0, [r4, #0]
   8133a:	6008      	str	r0, [r1, #0]

				/* If the block is larger than required it can be split into two. */
				if( ( pxBlock->xBlockSize - xWantedSize ) > heapMINIMUM_BLOCK_SIZE )
   8133c:	6861      	ldr	r1, [r4, #4]
   8133e:	1a8b      	subs	r3, r1, r2
   81340:	2b20      	cmp	r3, #32
   81342:	d907      	bls.n	81354 <pvPortMalloc+0xd0>
				{
					/* This block is to be split into two.  Create a new block
					following the number of bytes requested. The void cast is
					used to prevent byte alignment warnings from the compiler. */
					pxNewBlockLink = ( void * ) ( ( ( unsigned char * ) pxBlock ) + xWantedSize );
   81344:	18a0      	adds	r0, r4, r2

					/* Calculate the sizes of two blocks split from the single
					block. */
					pxNewBlockLink->xBlockSize = pxBlock->xBlockSize - xWantedSize;
   81346:	6043      	str	r3, [r0, #4]
					pxBlock->xBlockSize = xWantedSize;
   81348:	6062      	str	r2, [r4, #4]

					/* Insert the new block into the list of free blocks. */
					prvInsertBlockIntoFreeList( ( pxNewBlockLink ) );
   8134a:	f241 2229 	movw	r2, #4649	; 0x1229
   8134e:	f2c0 0208 	movt	r2, #8
   81352:	4790      	blx	r2
				}

				xFreeBytesRemaining -= pxBlock->xBlockSize;
   81354:	f240 000c 	movw	r0, #12
   81358:	f2c2 0007 	movt	r0, #8199	; 0x2007
   8135c:	6803      	ldr	r3, [r0, #0]
   8135e:	6861      	ldr	r1, [r4, #4]
   81360:	1a5a      	subs	r2, r3, r1
   81362:	6002      	str	r2, [r0, #0]
   81364:	e007      	b.n	81376 <pvPortMalloc+0xf2>
/*-----------------------------------------------------------*/

void *pvPortMalloc( size_t xWantedSize )
{
xBlockLink *pxBlock, *pxPreviousBlock, *pxNewBlockLink;
void *pvReturn = NULL;
   81366:	f04f 0500 	mov.w	r5, #0
   8136a:	e004      	b.n	81376 <pvPortMalloc+0xf2>
   8136c:	f04f 0500 	mov.w	r5, #0
   81370:	e001      	b.n	81376 <pvPortMalloc+0xf2>
   81372:	f04f 0500 	mov.w	r5, #0

				xFreeBytesRemaining -= pxBlock->xBlockSize;
			}
		}
	}
	xTaskResumeAll();
   81376:	f641 70c1 	movw	r0, #8129	; 0x1fc1
   8137a:	f2c0 0008 	movt	r0, #8
   8137e:	4780      	blx	r0
		}
	}
	#endif

	return pvReturn;
}
   81380:	4628      	mov	r0, r5
   81382:	bd38      	pop	{r3, r4, r5, pc}

00081384 <vPortFree>:
/*-----------------------------------------------------------*/

void vPortFree( void *pv )
{
   81384:	b510      	push	{r4, lr}
unsigned char *puc = ( unsigned char * ) pv;
xBlockLink *pxLink;

	if( pv != NULL )
   81386:	4604      	mov	r4, r0
   81388:	b1c8      	cbz	r0, 813be <vPortFree+0x3a>
		puc -= heapSTRUCT_SIZE;

		/* This casting is to keep the compiler from issuing warnings. */
		pxLink = ( void * ) puc;

		vTaskSuspendAll();
   8138a:	f641 53f9 	movw	r3, #7673	; 0x1df9
   8138e:	f2c0 0308 	movt	r3, #8
   81392:	4798      	blx	r3
		{
			/* Add this block to the list of free blocks. */
			xFreeBytesRemaining += pxLink->xBlockSize;
   81394:	f240 000c 	movw	r0, #12
   81398:	f2c2 0007 	movt	r0, #8199	; 0x2007
   8139c:	6801      	ldr	r1, [r0, #0]
   8139e:	f854 2c0c 	ldr.w	r2, [r4, #-12]
   813a2:	188b      	adds	r3, r1, r2
   813a4:	6003      	str	r3, [r0, #0]
			prvInsertBlockIntoFreeList( ( ( xBlockLink * ) pxLink ) );			
   813a6:	f1a4 0010 	sub.w	r0, r4, #16
   813aa:	f241 2129 	movw	r1, #4649	; 0x1229
   813ae:	f2c0 0108 	movt	r1, #8
   813b2:	4788      	blx	r1
		}
		xTaskResumeAll();
   813b4:	f641 70c1 	movw	r0, #8129	; 0x1fc1
   813b8:	f2c0 0008 	movt	r0, #8
   813bc:	4780      	blx	r0
   813be:	bd10      	pop	{r4, pc}

000813c0 <prvUnlockQueue>:
	}
}
/*-----------------------------------------------------------*/

static void prvUnlockQueue( xQueueHandle pxQueue )
{
   813c0:	b5f8      	push	{r3, r4, r5, r6, r7, lr}
   813c2:	4604      	mov	r4, r0

	/* The lock counts contains the number of extra data items placed or
	removed from the queue while the queue was locked.  When a queue is
	locked items can be added or removed, but the event lists cannot be
	updated. */
	taskENTER_CRITICAL();
   813c4:	f241 1309 	movw	r3, #4361	; 0x1109
   813c8:	f2c0 0308 	movt	r3, #8
   813cc:	4798      	blx	r3
	{
		/* See if data was added to the queue while it was locked. */
		while( pxQueue->xTxLock > queueLOCKED_UNMODIFIED )
   813ce:	6ca0      	ldr	r0, [r4, #72]	; 0x48
   813d0:	2800      	cmp	r0, #0
   813d2:	dd1a      	ble.n	8140a <prvUnlockQueue+0x4a>
		{
			/* Data was posted while the queue was locked.  Are any tasks
			blocked waiting for data to become available? */
			if( listLIST_IS_EMPTY( &( pxQueue->xTasksWaitingToReceive ) ) == pdFALSE )
   813d4:	6a61      	ldr	r1, [r4, #36]	; 0x24
   813d6:	b919      	cbnz	r1, 813e0 <prvUnlockQueue+0x20>
   813d8:	e017      	b.n	8140a <prvUnlockQueue+0x4a>
   813da:	6a61      	ldr	r1, [r4, #36]	; 0x24
   813dc:	b951      	cbnz	r1, 813f4 <prvUnlockQueue+0x34>
   813de:	e014      	b.n	8140a <prvUnlockQueue+0x4a>
			{
				/* Tasks that are removed from the event list will get added to
				the pending ready list as the scheduler is still suspended. */
				if( xTaskRemoveFromEventList( &( pxQueue->xTasksWaitingToReceive ) ) != pdFALSE )
   813e0:	f104 0624 	add.w	r6, r4, #36	; 0x24
   813e4:	f242 35e9 	movw	r5, #9193	; 0x23e9
   813e8:	f2c0 0508 	movt	r5, #8
				{
					/* The task waiting has a higher priority so record that a
					context	switch is required. */
					vTaskMissedYield();
   813ec:	f242 576d 	movw	r7, #9581	; 0x256d
   813f0:	f2c0 0708 	movt	r7, #8
			blocked waiting for data to become available? */
			if( listLIST_IS_EMPTY( &( pxQueue->xTasksWaitingToReceive ) ) == pdFALSE )
			{
				/* Tasks that are removed from the event list will get added to
				the pending ready list as the scheduler is still suspended. */
				if( xTaskRemoveFromEventList( &( pxQueue->xTasksWaitingToReceive ) ) != pdFALSE )
   813f4:	4630      	mov	r0, r6
   813f6:	47a8      	blx	r5
   813f8:	b100      	cbz	r0, 813fc <prvUnlockQueue+0x3c>
				{
					/* The task waiting has a higher priority so record that a
					context	switch is required. */
					vTaskMissedYield();
   813fa:	47b8      	blx	r7
				}

				--( pxQueue->xTxLock );
   813fc:	6ca2      	ldr	r2, [r4, #72]	; 0x48
   813fe:	f102 33ff 	add.w	r3, r2, #4294967295
   81402:	64a3      	str	r3, [r4, #72]	; 0x48
	locked items can be added or removed, but the event lists cannot be
	updated. */
	taskENTER_CRITICAL();
	{
		/* See if data was added to the queue while it was locked. */
		while( pxQueue->xTxLock > queueLOCKED_UNMODIFIED )
   81404:	6ca0      	ldr	r0, [r4, #72]	; 0x48
   81406:	2800      	cmp	r0, #0
   81408:	dce7      	bgt.n	813da <prvUnlockQueue+0x1a>
			{
				break;
			}
		}

		pxQueue->xTxLock = queueUNLOCKED;
   8140a:	f04f 32ff 	mov.w	r2, #4294967295
   8140e:	64a2      	str	r2, [r4, #72]	; 0x48
	}
	taskEXIT_CRITICAL();
   81410:	f241 1331 	movw	r3, #4401	; 0x1131
   81414:	f2c0 0308 	movt	r3, #8
   81418:	4798      	blx	r3

	/* Do the same for the Rx lock. */
	taskENTER_CRITICAL();
   8141a:	f241 1009 	movw	r0, #4361	; 0x1109
   8141e:	f2c0 0008 	movt	r0, #8
   81422:	4780      	blx	r0
	{
		while( pxQueue->xRxLock > queueLOCKED_UNMODIFIED )
   81424:	6c61      	ldr	r1, [r4, #68]	; 0x44
   81426:	2900      	cmp	r1, #0
   81428:	dd1a      	ble.n	81460 <prvUnlockQueue+0xa0>
		{
			if( listLIST_IS_EMPTY( &( pxQueue->xTasksWaitingToSend ) ) == pdFALSE )
   8142a:	6922      	ldr	r2, [r4, #16]
   8142c:	b91a      	cbnz	r2, 81436 <prvUnlockQueue+0x76>
   8142e:	e017      	b.n	81460 <prvUnlockQueue+0xa0>
   81430:	6922      	ldr	r2, [r4, #16]
   81432:	b952      	cbnz	r2, 8144a <prvUnlockQueue+0x8a>
   81434:	e014      	b.n	81460 <prvUnlockQueue+0xa0>
			{
				if( xTaskRemoveFromEventList( &( pxQueue->xTasksWaitingToSend ) ) != pdFALSE )
   81436:	f104 0610 	add.w	r6, r4, #16
   8143a:	f242 35e9 	movw	r5, #9193	; 0x23e9
   8143e:	f2c0 0508 	movt	r5, #8
				{
					vTaskMissedYield();
   81442:	f242 576d 	movw	r7, #9581	; 0x256d
   81446:	f2c0 0708 	movt	r7, #8
	{
		while( pxQueue->xRxLock > queueLOCKED_UNMODIFIED )
		{
			if( listLIST_IS_EMPTY( &( pxQueue->xTasksWaitingToSend ) ) == pdFALSE )
			{
				if( xTaskRemoveFromEventList( &( pxQueue->xTasksWaitingToSend ) ) != pdFALSE )
   8144a:	4630      	mov	r0, r6
   8144c:	47a8      	blx	r5
   8144e:	b100      	cbz	r0, 81452 <prvUnlockQueue+0x92>
				{
					vTaskMissedYield();
   81450:	47b8      	blx	r7
				}

				--( pxQueue->xRxLock );
   81452:	6c63      	ldr	r3, [r4, #68]	; 0x44
   81454:	f103 30ff 	add.w	r0, r3, #4294967295
   81458:	6460      	str	r0, [r4, #68]	; 0x44
	taskEXIT_CRITICAL();

	/* Do the same for the Rx lock. */
	taskENTER_CRITICAL();
	{
		while( pxQueue->xRxLock > queueLOCKED_UNMODIFIED )
   8145a:	6c61      	ldr	r1, [r4, #68]	; 0x44
   8145c:	2900      	cmp	r1, #0
   8145e:	dce7      	bgt.n	81430 <prvUnlockQueue+0x70>
			{
				break;
			}
		}

		pxQueue->xRxLock = queueUNLOCKED;
   81460:	f04f 33ff 	mov.w	r3, #4294967295
   81464:	6463      	str	r3, [r4, #68]	; 0x44
	}
	taskEXIT_CRITICAL();
   81466:	f241 1031 	movw	r0, #4401	; 0x1131
   8146a:	f2c0 0008 	movt	r0, #8
   8146e:	4780      	blx	r0
   81470:	bdf8      	pop	{r3, r4, r5, r6, r7, pc}
   81472:	bf00      	nop

00081474 <prvCopyDataFromQueue>:
	++( pxQueue->uxMessagesWaiting );
}
/*-----------------------------------------------------------*/

static void prvCopyDataFromQueue( xQUEUE * const pxQueue, const void *pvBuffer )
{
   81474:	b538      	push	{r3, r4, r5, lr}
   81476:	4603      	mov	r3, r0
	if( pxQueue->uxQueueType != queueQUEUE_IS_MUTEX )
   81478:	6805      	ldr	r5, [r0, #0]
   8147a:	b175      	cbz	r5, 8149a <prvCopyDataFromQueue+0x26>
	{
		pxQueue->pcReadFrom += pxQueue->uxItemSize;
   8147c:	6c02      	ldr	r2, [r0, #64]	; 0x40
   8147e:	68c4      	ldr	r4, [r0, #12]
   81480:	18a4      	adds	r4, r4, r2
   81482:	60c4      	str	r4, [r0, #12]
		if( pxQueue->pcReadFrom >= pxQueue->pcTail )
   81484:	6840      	ldr	r0, [r0, #4]
   81486:	4284      	cmp	r4, r0
		{
			pxQueue->pcReadFrom = pxQueue->pcHead;
   81488:	bf28      	it	cs
   8148a:	60dd      	strcs	r5, [r3, #12]
		}
		memcpy( ( void * ) pvBuffer, ( void * ) pxQueue->pcReadFrom, ( unsigned ) pxQueue->uxItemSize );
   8148c:	4608      	mov	r0, r1
   8148e:	68d9      	ldr	r1, [r3, #12]
   81490:	f244 5391 	movw	r3, #17809	; 0x4591
   81494:	f2c0 0308 	movt	r3, #8
   81498:	4798      	blx	r3
   8149a:	bd38      	pop	{r3, r4, r5, pc}

0008149c <prvCopyDataToQueue>:

#endif
/*-----------------------------------------------------------*/

static void prvCopyDataToQueue( xQUEUE *pxQueue, const void *pvItemToQueue, portBASE_TYPE xPosition )
{
   8149c:	b510      	push	{r4, lr}
   8149e:	4604      	mov	r4, r0
	if( pxQueue->uxItemSize == ( unsigned portBASE_TYPE ) 0 )
   814a0:	6c03      	ldr	r3, [r0, #64]	; 0x40
   814a2:	b963      	cbnz	r3, 814be <prvCopyDataToQueue+0x22>
	{
		#if ( configUSE_MUTEXES == 1 )
		{
			if( pxQueue->uxQueueType == queueQUEUE_IS_MUTEX )
   814a4:	6801      	ldr	r1, [r0, #0]
   814a6:	2900      	cmp	r1, #0
   814a8:	d12e      	bne.n	81508 <prvCopyDataToQueue+0x6c>
			{
				/* The mutex is no longer being held. */
				vTaskPriorityDisinherit( ( void * ) pxQueue->pxMutexHolder );
   814aa:	6840      	ldr	r0, [r0, #4]
   814ac:	f242 6359 	movw	r3, #9817	; 0x2659
   814b0:	f2c0 0308 	movt	r3, #8
   814b4:	4798      	blx	r3
				pxQueue->pxMutexHolder = NULL;
   814b6:	f04f 0000 	mov.w	r0, #0
   814ba:	6060      	str	r0, [r4, #4]
   814bc:	e024      	b.n	81508 <prvCopyDataToQueue+0x6c>
			}
		}
		#endif
	}
	else if( xPosition == queueSEND_TO_BACK )
   814be:	b982      	cbnz	r2, 814e2 <prvCopyDataToQueue+0x46>
	{
		memcpy( ( void * ) pxQueue->pcWriteTo, pvItemToQueue, ( unsigned ) pxQueue->uxItemSize );
   814c0:	6880      	ldr	r0, [r0, #8]
   814c2:	461a      	mov	r2, r3
   814c4:	f244 5391 	movw	r3, #17809	; 0x4591
   814c8:	f2c0 0308 	movt	r3, #8
   814cc:	4798      	blx	r3
		pxQueue->pcWriteTo += pxQueue->uxItemSize;
   814ce:	68a2      	ldr	r2, [r4, #8]
   814d0:	6c21      	ldr	r1, [r4, #64]	; 0x40
   814d2:	1850      	adds	r0, r2, r1
   814d4:	60a0      	str	r0, [r4, #8]
		if( pxQueue->pcWriteTo >= pxQueue->pcTail )
   814d6:	6863      	ldr	r3, [r4, #4]
   814d8:	4298      	cmp	r0, r3
   814da:	d315      	bcc.n	81508 <prvCopyDataToQueue+0x6c>
		{
			pxQueue->pcWriteTo = pxQueue->pcHead;
   814dc:	6822      	ldr	r2, [r4, #0]
   814de:	60a2      	str	r2, [r4, #8]
   814e0:	e012      	b.n	81508 <prvCopyDataToQueue+0x6c>
		}
	}
	else
	{
		memcpy( ( void * ) pxQueue->pcReadFrom, pvItemToQueue, ( unsigned ) pxQueue->uxItemSize );
   814e2:	68c0      	ldr	r0, [r0, #12]
   814e4:	461a      	mov	r2, r3
   814e6:	f244 5391 	movw	r3, #17809	; 0x4591
   814ea:	f2c0 0308 	movt	r3, #8
   814ee:	4798      	blx	r3
		pxQueue->pcReadFrom -= pxQueue->uxItemSize;
   814f0:	6c22      	ldr	r2, [r4, #64]	; 0x40
   814f2:	f1c2 0000 	rsb	r0, r2, #0
   814f6:	68e1      	ldr	r1, [r4, #12]
   814f8:	180b      	adds	r3, r1, r0
   814fa:	60e3      	str	r3, [r4, #12]
		if( pxQueue->pcReadFrom < pxQueue->pcHead )
   814fc:	6822      	ldr	r2, [r4, #0]
   814fe:	4293      	cmp	r3, r2
   81500:	d202      	bcs.n	81508 <prvCopyDataToQueue+0x6c>
		{
			pxQueue->pcReadFrom = ( pxQueue->pcTail - pxQueue->uxItemSize );
   81502:	6861      	ldr	r1, [r4, #4]
   81504:	1808      	adds	r0, r1, r0
   81506:	60e0      	str	r0, [r4, #12]
		}
	}

	++( pxQueue->uxMessagesWaiting );
   81508:	6ba2      	ldr	r2, [r4, #56]	; 0x38
   8150a:	f102 0201 	add.w	r2, r2, #1
   8150e:	63a2      	str	r2, [r4, #56]	; 0x38
   81510:	bd10      	pop	{r4, pc}
   81512:	bf00      	nop

00081514 <xQueueGenericReset>:
/*-----------------------------------------------------------
 * PUBLIC QUEUE MANAGEMENT API documented in queue.h
 *----------------------------------------------------------*/

portBASE_TYPE xQueueGenericReset( xQueueHandle pxQueue, portBASE_TYPE xNewQueue )
{
   81514:	b538      	push	{r3, r4, r5, lr}
   81516:	460d      	mov	r5, r1
	configASSERT( pxQueue );
   81518:	4604      	mov	r4, r0
   8151a:	b930      	cbnz	r0, 8152a <xQueueGenericReset+0x16>
   8151c:	f241 04f5 	movw	r4, #4341	; 0x10f5
   81520:	f2c0 0408 	movt	r4, #8
   81524:	47a0      	blx	r4
   81526:	bf00      	nop
   81528:	e7fd      	b.n	81526 <xQueueGenericReset+0x12>

	taskENTER_CRITICAL();
   8152a:	f241 1309 	movw	r3, #4361	; 0x1109
   8152e:	f2c0 0308 	movt	r3, #8
   81532:	4798      	blx	r3
	{
		pxQueue->pcTail = pxQueue->pcHead + ( pxQueue->uxLength * pxQueue->uxItemSize );
   81534:	6823      	ldr	r3, [r4, #0]
   81536:	6be0      	ldr	r0, [r4, #60]	; 0x3c
   81538:	6c22      	ldr	r2, [r4, #64]	; 0x40
   8153a:	fb00 3102 	mla	r1, r0, r2, r3
   8153e:	6061      	str	r1, [r4, #4]
		pxQueue->uxMessagesWaiting = ( unsigned portBASE_TYPE ) 0U;
   81540:	f04f 0100 	mov.w	r1, #0
   81544:	63a1      	str	r1, [r4, #56]	; 0x38
		pxQueue->pcWriteTo = pxQueue->pcHead;
   81546:	60a3      	str	r3, [r4, #8]
		pxQueue->pcReadFrom = pxQueue->pcHead + ( ( pxQueue->uxLength - ( unsigned portBASE_TYPE ) 1U ) * pxQueue->uxItemSize );
   81548:	f100 30ff 	add.w	r0, r0, #4294967295
   8154c:	fb02 3300 	mla	r3, r2, r0, r3
   81550:	60e3      	str	r3, [r4, #12]
		pxQueue->xRxLock = queueUNLOCKED;
   81552:	f04f 32ff 	mov.w	r2, #4294967295
   81556:	6462      	str	r2, [r4, #68]	; 0x44
		pxQueue->xTxLock = queueUNLOCKED;
   81558:	64a2      	str	r2, [r4, #72]	; 0x48

		if( xNewQueue == pdFALSE )
   8155a:	b985      	cbnz	r5, 8157e <xQueueGenericReset+0x6a>
			/* If there are tasks blocked waiting to read from the queue, then
			the tasks will remain blocked as after this function exits the queue
			will still be empty.  If there are tasks blocked waiting to	write to
			the queue, then one should be unblocked as after this function exits
			it will be possible to write to it. */
			if( listLIST_IS_EMPTY( &( pxQueue->xTasksWaitingToSend ) ) == pdFALSE )
   8155c:	6921      	ldr	r1, [r4, #16]
   8155e:	b1c1      	cbz	r1, 81592 <xQueueGenericReset+0x7e>
			{
				if( xTaskRemoveFromEventList( &( pxQueue->xTasksWaitingToSend ) ) == pdTRUE )
   81560:	f104 0010 	add.w	r0, r4, #16
   81564:	f242 33e9 	movw	r3, #9193	; 0x23e9
   81568:	f2c0 0308 	movt	r3, #8
   8156c:	4798      	blx	r3
   8156e:	2801      	cmp	r0, #1
   81570:	d10f      	bne.n	81592 <xQueueGenericReset+0x7e>
				{
					portYIELD_WITHIN_API();
   81572:	f241 00e5 	movw	r0, #4325	; 0x10e5
   81576:	f2c0 0008 	movt	r0, #8
   8157a:	4780      	blx	r0
   8157c:	e009      	b.n	81592 <xQueueGenericReset+0x7e>
			}
		}
		else
		{
			/* Ensure the event queues start in the correct state. */
			vListInitialise( &( pxQueue->xTasksWaitingToSend ) );
   8157e:	f104 0010 	add.w	r0, r4, #16
   81582:	f640 75e9 	movw	r5, #4073	; 0xfe9
   81586:	f2c0 0508 	movt	r5, #8
   8158a:	47a8      	blx	r5
			vListInitialise( &( pxQueue->xTasksWaitingToReceive ) );
   8158c:	f104 0024 	add.w	r0, r4, #36	; 0x24
   81590:	47a8      	blx	r5
		}
	}
	taskEXIT_CRITICAL();
   81592:	f241 1231 	movw	r2, #4401	; 0x1131
   81596:	f2c0 0208 	movt	r2, #8
   8159a:	4790      	blx	r2

	/* A value is returned for calling semantic consistency with previous
	versions. */
	return pdPASS;
}
   8159c:	f04f 0001 	mov.w	r0, #1
   815a0:	bd38      	pop	{r3, r4, r5, pc}
   815a2:	bf00      	nop

000815a4 <xQueueGenericCreate>:
/*-----------------------------------------------------------*/

xQueueHandle xQueueGenericCreate( unsigned portBASE_TYPE uxQueueLength, unsigned portBASE_TYPE uxItemSize, unsigned char ucQueueType )
{
   815a4:	b5f8      	push	{r3, r4, r5, r6, r7, lr}
   815a6:	460d      	mov	r5, r1
   815a8:	4617      	mov	r7, r2
	/* Remove compiler warnings about unused parameters should
	configUSE_TRACE_FACILITY not be set to 1. */
	( void ) ucQueueType;

	/* Allocate the new queue structure. */
	if( uxQueueLength > ( unsigned portBASE_TYPE ) 0 )
   815aa:	4606      	mov	r6, r0
   815ac:	b1e0      	cbz	r0, 815e8 <xQueueGenericCreate+0x44>
	{
		pxNewQueue = ( xQUEUE * ) pvPortMalloc( sizeof( xQUEUE ) );
   815ae:	f04f 0050 	mov.w	r0, #80	; 0x50
   815b2:	f241 2385 	movw	r3, #4741	; 0x1285
   815b6:	f2c0 0308 	movt	r3, #8
   815ba:	4798      	blx	r3
		if( pxNewQueue != NULL )
   815bc:	4604      	mov	r4, r0
   815be:	b198      	cbz	r0, 815e8 <xQueueGenericCreate+0x44>
		{
			/* Create the list of pointers to queue items.  The queue is one byte
			longer than asked for to make wrap checking easier/faster. */
			xQueueSizeInBytes = ( size_t ) ( uxQueueLength * uxItemSize ) + ( size_t ) 1;
   815c0:	fb06 f005 	mul.w	r0, r6, r5

			pxNewQueue->pcHead = ( signed char * ) pvPortMalloc( xQueueSizeInBytes );
   815c4:	f100 0001 	add.w	r0, r0, #1
   815c8:	f241 2185 	movw	r1, #4741	; 0x1285
   815cc:	f2c0 0108 	movt	r1, #8
   815d0:	4788      	blx	r1
   815d2:	6020      	str	r0, [r4, #0]
			if( pxNewQueue->pcHead != NULL )
   815d4:	b970      	cbnz	r0, 815f4 <xQueueGenericCreate+0x50>
				xReturn = pxNewQueue;
			}
			else
			{
				traceQUEUE_CREATE_FAILED( ucQueueType );
				vPortFree( pxNewQueue );
   815d6:	4620      	mov	r0, r4
   815d8:	f241 3285 	movw	r2, #4997	; 0x1385
   815dc:	f2c0 0208 	movt	r2, #8
   815e0:	4790      	blx	r2
   815e2:	e001      	b.n	815e8 <xQueueGenericCreate+0x44>
			}
		}
	}

	configASSERT( xReturn );
   815e4:	bf00      	nop
   815e6:	e7fd      	b.n	815e4 <xQueueGenericCreate+0x40>
   815e8:	f241 00f5 	movw	r0, #4341	; 0x10f5
   815ec:	f2c0 0008 	movt	r0, #8
   815f0:	4780      	blx	r0
   815f2:	e7f7      	b.n	815e4 <xQueueGenericCreate+0x40>
			pxNewQueue->pcHead = ( signed char * ) pvPortMalloc( xQueueSizeInBytes );
			if( pxNewQueue->pcHead != NULL )
			{
				/* Initialise the queue members as described above where the
				queue type is defined. */
				pxNewQueue->uxLength = uxQueueLength;
   815f4:	63e6      	str	r6, [r4, #60]	; 0x3c
				pxNewQueue->uxItemSize = uxItemSize;
   815f6:	6425      	str	r5, [r4, #64]	; 0x40
				xQueueGenericReset( pxNewQueue, pdTRUE );
   815f8:	4620      	mov	r0, r4
   815fa:	f04f 0101 	mov.w	r1, #1
   815fe:	f241 5315 	movw	r3, #5397	; 0x1515
   81602:	f2c0 0308 	movt	r3, #8
   81606:	4798      	blx	r3
				#if ( configUSE_TRACE_FACILITY == 1 )
				{
					pxNewQueue->ucQueueType = ucQueueType;
   81608:	f884 704d 	strb.w	r7, [r4, #77]	; 0x4d
	}

	configASSERT( xReturn );

	return xReturn;
}
   8160c:	4620      	mov	r0, r4
   8160e:	bdf8      	pop	{r3, r4, r5, r6, r7, pc}

00081610 <xQueueGenericSend>:

#endif /* configUSE_COUNTING_SEMAPHORES */
/*-----------------------------------------------------------*/

signed portBASE_TYPE xQueueGenericSend( xQueueHandle pxQueue, const void * const pvItemToQueue, portTickType xTicksToWait, portBASE_TYPE xCopyPosition )
{
   81610:	e92d 4ff0 	stmdb	sp!, {r4, r5, r6, r7, r8, r9, sl, fp, lr}
   81614:	b085      	sub	sp, #20
   81616:	468a      	mov	sl, r1
   81618:	9201      	str	r2, [sp, #4]
   8161a:	9300      	str	r3, [sp, #0]
signed portBASE_TYPE xEntryTimeSet = pdFALSE;
xTimeOutType xTimeOut;

	configASSERT( pxQueue );
   8161c:	4604      	mov	r4, r0
   8161e:	b930      	cbnz	r0, 8162e <xQueueGenericSend+0x1e>
   81620:	f241 04f5 	movw	r4, #4341	; 0x10f5
   81624:	f2c0 0408 	movt	r4, #8
   81628:	47a0      	blx	r4
   8162a:	bf00      	nop
   8162c:	e7fd      	b.n	8162a <xQueueGenericSend+0x1a>
	configASSERT( !( ( pvItemToQueue == NULL ) && ( pxQueue->uxItemSize != ( unsigned portBASE_TYPE ) 0U ) ) );
   8162e:	b941      	cbnz	r1, 81642 <xQueueGenericSend+0x32>
   81630:	6c03      	ldr	r3, [r0, #64]	; 0x40
   81632:	b14b      	cbz	r3, 81648 <xQueueGenericSend+0x38>
   81634:	f241 00f5 	movw	r0, #4341	; 0x10f5
   81638:	f2c0 0008 	movt	r0, #8
   8163c:	4780      	blx	r0
   8163e:	bf00      	nop
   81640:	e7fd      	b.n	8163e <xQueueGenericSend+0x2e>
   81642:	f04f 0700 	mov.w	r7, #0
   81646:	e001      	b.n	8164c <xQueueGenericSend+0x3c>
   81648:	f04f 0700 	mov.w	r7, #0
	/* This function relaxes the coding standard somewhat to allow return
	statements within the function itself.  This is done in the interest
	of execution time efficiency. */
	for( ;; )
	{
		taskENTER_CRITICAL();
   8164c:	f241 1609 	movw	r6, #4361	; 0x1109
   81650:	f2c0 0608 	movt	r6, #8
				}
				else if( xEntryTimeSet == pdFALSE )
				{
					/* The queue was full and a block time was specified so
					configure the timeout structure. */
					vTaskSetTimeOutState( &xTimeOut );
   81654:	f242 4b91 	movw	fp, #9361	; 0x2491
   81658:	f2c0 0b08 	movt	fp, #8
					xEntryTimeSet = pdTRUE;
				}
			}
		}
		taskEXIT_CRITICAL();
   8165c:	f241 1531 	movw	r5, #4401	; 0x1131
   81660:	f2c0 0508 	movt	r5, #8
	/* This function relaxes the coding standard somewhat to allow return
	statements within the function itself.  This is done in the interest
	of execution time efficiency. */
	for( ;; )
	{
		taskENTER_CRITICAL();
   81664:	47b0      	blx	r6
		{
			/* Is there room on the queue now?  To be running we must be
			the highest priority task wanting to access the queue. */
			if( pxQueue->uxMessagesWaiting < pxQueue->uxLength )
   81666:	6ba2      	ldr	r2, [r4, #56]	; 0x38
   81668:	6be1      	ldr	r1, [r4, #60]	; 0x3c
   8166a:	428a      	cmp	r2, r1
   8166c:	d21f      	bcs.n	816ae <xQueueGenericSend+0x9e>
			{
				traceQUEUE_SEND( pxQueue );
				prvCopyDataToQueue( pxQueue, pvItemToQueue, xCopyPosition );
   8166e:	4620      	mov	r0, r4
   81670:	4651      	mov	r1, sl
   81672:	9a00      	ldr	r2, [sp, #0]
   81674:	f241 439d 	movw	r3, #5277	; 0x149d
   81678:	f2c0 0308 	movt	r3, #8
   8167c:	4798      	blx	r3

				/* If there was a task waiting for data to arrive on the
				queue then unblock it now. */
				if( listLIST_IS_EMPTY( &( pxQueue->xTasksWaitingToReceive ) ) == pdFALSE )
   8167e:	6a61      	ldr	r1, [r4, #36]	; 0x24
   81680:	b169      	cbz	r1, 8169e <xQueueGenericSend+0x8e>
				{
					if( xTaskRemoveFromEventList( &( pxQueue->xTasksWaitingToReceive ) ) == pdTRUE )
   81682:	f104 0024 	add.w	r0, r4, #36	; 0x24
   81686:	f242 32e9 	movw	r2, #9193	; 0x23e9
   8168a:	f2c0 0208 	movt	r2, #8
   8168e:	4790      	blx	r2
   81690:	2801      	cmp	r0, #1
   81692:	d104      	bne.n	8169e <xQueueGenericSend+0x8e>
					{
						/* The unblocked task has a priority higher than
						our own so yield immediately.  Yes it is ok to do
						this from within the critical section - the kernel
						takes care of that. */
						portYIELD_WITHIN_API();
   81694:	f241 00e5 	movw	r0, #4325	; 0x10e5
   81698:	f2c0 0008 	movt	r0, #8
   8169c:	4780      	blx	r0
					}
				}

				taskEXIT_CRITICAL();
   8169e:	f241 1331 	movw	r3, #4401	; 0x1131
   816a2:	f2c0 0308 	movt	r3, #8
   816a6:	4798      	blx	r3

				/* Return to the original privilege level before exiting the
				function. */
				return pdPASS;
   816a8:	f04f 0001 	mov.w	r0, #1
   816ac:	e066      	b.n	8177c <xQueueGenericSend+0x16c>
			}
			else
			{
				if( xTicksToWait == ( portTickType ) 0 )
   816ae:	9b01      	ldr	r3, [sp, #4]
   816b0:	b93b      	cbnz	r3, 816c2 <xQueueGenericSend+0xb2>
				{
					/* The queue was full and no block time is specified (or
					the block time has expired) so leave now. */
					taskEXIT_CRITICAL();
   816b2:	f241 1231 	movw	r2, #4401	; 0x1131
   816b6:	f2c0 0208 	movt	r2, #8
   816ba:	4790      	blx	r2

					/* Return to the original privilege level before exiting
					the function. */
					traceQUEUE_SEND_FAILED( pxQueue );
					return errQUEUE_FULL;
   816bc:	f04f 0000 	mov.w	r0, #0
   816c0:	e05c      	b.n	8177c <xQueueGenericSend+0x16c>
				}
				else if( xEntryTimeSet == pdFALSE )
   816c2:	b91f      	cbnz	r7, 816cc <xQueueGenericSend+0xbc>
				{
					/* The queue was full and a block time was specified so
					configure the timeout structure. */
					vTaskSetTimeOutState( &xTimeOut );
   816c4:	a802      	add	r0, sp, #8
   816c6:	47d8      	blx	fp
					xEntryTimeSet = pdTRUE;
   816c8:	f04f 0701 	mov.w	r7, #1
				}
			}
		}
		taskEXIT_CRITICAL();
   816cc:	47a8      	blx	r5

		/* Interrupts and other tasks can send to and receive from the queue
		now the critical section has been exited. */

		vTaskSuspendAll();
   816ce:	f641 50f9 	movw	r0, #7673	; 0x1df9
   816d2:	f2c0 0008 	movt	r0, #8
   816d6:	4780      	blx	r0
		prvLockQueue( pxQueue );
   816d8:	47b0      	blx	r6
   816da:	6c62      	ldr	r2, [r4, #68]	; 0x44
   816dc:	f1b2 3fff 	cmp.w	r2, #4294967295
   816e0:	bf04      	itt	eq
   816e2:	2200      	moveq	r2, #0
   816e4:	6462      	streq	r2, [r4, #68]	; 0x44
   816e6:	6ca1      	ldr	r1, [r4, #72]	; 0x48
   816e8:	f1b1 3fff 	cmp.w	r1, #4294967295
   816ec:	bf04      	itt	eq
   816ee:	2100      	moveq	r1, #0
   816f0:	64a1      	streq	r1, [r4, #72]	; 0x48
   816f2:	47a8      	blx	r5

		/* Update the timeout state to see if it has expired yet. */
		if( xTaskCheckForTimeOut( &xTimeOut, &xTicksToWait ) == pdFALSE )
   816f4:	a802      	add	r0, sp, #8
   816f6:	a901      	add	r1, sp, #4
   816f8:	f242 43c1 	movw	r3, #9409	; 0x24c1
   816fc:	f2c0 0308 	movt	r3, #8
   81700:	4798      	blx	r3
   81702:	bb70      	cbnz	r0, 81762 <xQueueGenericSend+0x152>

static signed portBASE_TYPE prvIsQueueFull( const xQueueHandle pxQueue )
{
signed portBASE_TYPE xReturn;

	taskENTER_CRITICAL();
   81704:	47b0      	blx	r6
		xReturn = ( pxQueue->uxMessagesWaiting == pxQueue->uxLength );
   81706:	f8d4 9038 	ldr.w	r9, [r4, #56]	; 0x38
   8170a:	f8d4 803c 	ldr.w	r8, [r4, #60]	; 0x3c
	taskEXIT_CRITICAL();
   8170e:	47a8      	blx	r5
		prvLockQueue( pxQueue );

		/* Update the timeout state to see if it has expired yet. */
		if( xTaskCheckForTimeOut( &xTimeOut, &xTicksToWait ) == pdFALSE )
		{
			if( prvIsQueueFull( pxQueue ) != pdFALSE )
   81710:	45c1      	cmp	r9, r8
   81712:	d11a      	bne.n	8174a <xQueueGenericSend+0x13a>
			{
				traceBLOCKING_ON_QUEUE_SEND( pxQueue );
				vTaskPlaceOnEventList( &( pxQueue->xTasksWaitingToSend ), xTicksToWait );
   81714:	f104 0010 	add.w	r0, r4, #16
   81718:	9901      	ldr	r1, [sp, #4]
   8171a:	f242 3221 	movw	r2, #8993	; 0x2321
   8171e:	f2c0 0208 	movt	r2, #8
   81722:	4790      	blx	r2
				/* Unlocking the queue means queue events can effect the
				event list.  It is possible	that interrupts occurring now
				remove this task from the event	list again - but as the
				scheduler is suspended the task will go onto the pending
				ready last instead of the actual ready list. */
				prvUnlockQueue( pxQueue );
   81724:	4620      	mov	r0, r4
   81726:	f241 31c1 	movw	r1, #5057	; 0x13c1
   8172a:	f2c0 0108 	movt	r1, #8
   8172e:	4788      	blx	r1
				/* Resuming the scheduler will move tasks from the pending
				ready list into the ready list - so it is feasible that this
				task is already in a ready list before it yields - in which
				case the yield will not cause a context switch unless there
				is also a higher priority task in the pending ready list. */
				if( xTaskResumeAll() == pdFALSE )
   81730:	f641 70c1 	movw	r0, #8129	; 0x1fc1
   81734:	f2c0 0008 	movt	r0, #8
   81738:	4780      	blx	r0
   8173a:	2800      	cmp	r0, #0
   8173c:	d192      	bne.n	81664 <xQueueGenericSend+0x54>
				{
					portYIELD_WITHIN_API();
   8173e:	f241 03e5 	movw	r3, #4325	; 0x10e5
   81742:	f2c0 0308 	movt	r3, #8
   81746:	4798      	blx	r3
   81748:	e78c      	b.n	81664 <xQueueGenericSend+0x54>
				}
			}
			else
			{
				/* Try again. */
				prvUnlockQueue( pxQueue );
   8174a:	4620      	mov	r0, r4
   8174c:	f241 31c1 	movw	r1, #5057	; 0x13c1
   81750:	f2c0 0108 	movt	r1, #8
   81754:	4788      	blx	r1
				( void ) xTaskResumeAll();
   81756:	f641 73c1 	movw	r3, #8129	; 0x1fc1
   8175a:	f2c0 0308 	movt	r3, #8
   8175e:	4798      	blx	r3
   81760:	e780      	b.n	81664 <xQueueGenericSend+0x54>
			}
		}
		else
		{
			/* The timeout has expired. */
			prvUnlockQueue( pxQueue );
   81762:	4620      	mov	r0, r4
   81764:	f241 32c1 	movw	r2, #5057	; 0x13c1
   81768:	f2c0 0208 	movt	r2, #8
   8176c:	4790      	blx	r2
			( void ) xTaskResumeAll();
   8176e:	f641 70c1 	movw	r0, #8129	; 0x1fc1
   81772:	f2c0 0008 	movt	r0, #8
   81776:	4780      	blx	r0

			/* Return to the original privilege level before exiting the
			function. */
			traceQUEUE_SEND_FAILED( pxQueue );
			return errQUEUE_FULL;
   81778:	f04f 0000 	mov.w	r0, #0
		}
	}
}
   8177c:	b005      	add	sp, #20
   8177e:	e8bd 8ff0 	ldmia.w	sp!, {r4, r5, r6, r7, r8, r9, sl, fp, pc}
   81782:	bf00      	nop

00081784 <xQueueGenericSendFromISR>:

#endif /* configUSE_ALTERNATIVE_API */
/*-----------------------------------------------------------*/

signed portBASE_TYPE xQueueGenericSendFromISR( xQueueHandle pxQueue, const void * const pvItemToQueue, signed portBASE_TYPE *pxHigherPriorityTaskWoken, portBASE_TYPE xCopyPosition )
{
   81784:	e92d 41f0 	stmdb	sp!, {r4, r5, r6, r7, r8, lr}
   81788:	460e      	mov	r6, r1
   8178a:	4615      	mov	r5, r2
   8178c:	4698      	mov	r8, r3
signed portBASE_TYPE xReturn;
unsigned portBASE_TYPE uxSavedInterruptStatus;

	configASSERT( pxQueue );
   8178e:	4604      	mov	r4, r0
   81790:	b930      	cbnz	r0, 817a0 <xQueueGenericSendFromISR+0x1c>
   81792:	f241 05f5 	movw	r5, #4341	; 0x10f5
   81796:	f2c0 0508 	movt	r5, #8
   8179a:	47a8      	blx	r5
   8179c:	bf00      	nop
   8179e:	e7fd      	b.n	8179c <xQueueGenericSendFromISR+0x18>
	configASSERT( !( ( pvItemToQueue == NULL ) && ( pxQueue->uxItemSize != ( unsigned portBASE_TYPE ) 0U ) ) );
   817a0:	b941      	cbnz	r1, 817b4 <xQueueGenericSendFromISR+0x30>
   817a2:	6c03      	ldr	r3, [r0, #64]	; 0x40
   817a4:	b133      	cbz	r3, 817b4 <xQueueGenericSendFromISR+0x30>
   817a6:	f241 00f5 	movw	r0, #4341	; 0x10f5
   817aa:	f2c0 0008 	movt	r0, #8
   817ae:	4780      	blx	r0
   817b0:	bf00      	nop
   817b2:	e7fd      	b.n	817b0 <xQueueGenericSendFromISR+0x2c>
	/* Similar to xQueueGenericSend, except we don't block if there is no room
	in the queue.  Also we don't directly wake a task that was blocked on a
	queue read, instead we return a flag to say whether a context switch is
	required or not (i.e. has a task with a higher priority than us been woken
	by this	post). */
	uxSavedInterruptStatus = portSET_INTERRUPT_MASK_FROM_ISR();
   817b4:	f241 01f5 	movw	r1, #4341	; 0x10f5
   817b8:	f2c0 0108 	movt	r1, #8
   817bc:	4788      	blx	r1
   817be:	4607      	mov	r7, r0
	{
		if( pxQueue->uxMessagesWaiting < pxQueue->uxLength )
   817c0:	6ba2      	ldr	r2, [r4, #56]	; 0x38
   817c2:	6be3      	ldr	r3, [r4, #60]	; 0x3c
   817c4:	429a      	cmp	r2, r3
   817c6:	d221      	bcs.n	8180c <xQueueGenericSendFromISR+0x88>
		{
			traceQUEUE_SEND_FROM_ISR( pxQueue );

			prvCopyDataToQueue( pxQueue, pvItemToQueue, xCopyPosition );
   817c8:	4620      	mov	r0, r4
   817ca:	4631      	mov	r1, r6
   817cc:	4642      	mov	r2, r8
   817ce:	f241 439d 	movw	r3, #5277	; 0x149d
   817d2:	f2c0 0308 	movt	r3, #8
   817d6:	4798      	blx	r3

			/* If the queue is locked we do not alter the event list.  This will
			be done when the queue is unlocked later. */
			if( pxQueue->xTxLock == queueUNLOCKED )
   817d8:	6ca0      	ldr	r0, [r4, #72]	; 0x48
   817da:	f1b0 3fff 	cmp.w	r0, #4294967295
   817de:	d10e      	bne.n	817fe <xQueueGenericSendFromISR+0x7a>
			{
				if( listLIST_IS_EMPTY( &( pxQueue->xTasksWaitingToReceive ) ) == pdFALSE )
   817e0:	6a62      	ldr	r2, [r4, #36]	; 0x24
   817e2:	b1b2      	cbz	r2, 81812 <xQueueGenericSendFromISR+0x8e>
				{
					if( xTaskRemoveFromEventList( &( pxQueue->xTasksWaitingToReceive ) ) != pdFALSE )
   817e4:	f104 0024 	add.w	r0, r4, #36	; 0x24
   817e8:	f242 34e9 	movw	r4, #9193	; 0x23e9
   817ec:	f2c0 0408 	movt	r4, #8
   817f0:	47a0      	blx	r4
   817f2:	b188      	cbz	r0, 81818 <xQueueGenericSendFromISR+0x94>
					{
						/* The task waiting has a higher priority so record that a
						context	switch is required. */
						if( pxHigherPriorityTaskWoken != NULL )
   817f4:	b19d      	cbz	r5, 8181e <xQueueGenericSendFromISR+0x9a>
						{
							*pxHigherPriorityTaskWoken = pdTRUE;
   817f6:	f04f 0401 	mov.w	r4, #1
   817fa:	602c      	str	r4, [r5, #0]
   817fc:	e011      	b.n	81822 <xQueueGenericSendFromISR+0x9e>
			}
			else
			{
				/* Increment the lock count so the task that unlocks the queue
				knows that data was posted while it was locked. */
				++( pxQueue->xTxLock );
   817fe:	6ca1      	ldr	r1, [r4, #72]	; 0x48
   81800:	f101 0101 	add.w	r1, r1, #1
   81804:	64a1      	str	r1, [r4, #72]	; 0x48
			}

			xReturn = pdPASS;
   81806:	f04f 0401 	mov.w	r4, #1
   8180a:	e00a      	b.n	81822 <xQueueGenericSendFromISR+0x9e>
		}
		else
		{
			traceQUEUE_SEND_FROM_ISR_FAILED( pxQueue );
			xReturn = errQUEUE_FULL;
   8180c:	f04f 0400 	mov.w	r4, #0
   81810:	e007      	b.n	81822 <xQueueGenericSendFromISR+0x9e>
				/* Increment the lock count so the task that unlocks the queue
				knows that data was posted while it was locked. */
				++( pxQueue->xTxLock );
			}

			xReturn = pdPASS;
   81812:	f04f 0401 	mov.w	r4, #1
   81816:	e004      	b.n	81822 <xQueueGenericSendFromISR+0x9e>
   81818:	f04f 0401 	mov.w	r4, #1
   8181c:	e001      	b.n	81822 <xQueueGenericSendFromISR+0x9e>
   8181e:	f04f 0401 	mov.w	r4, #1
		{
			traceQUEUE_SEND_FROM_ISR_FAILED( pxQueue );
			xReturn = errQUEUE_FULL;
		}
	}
	portCLEAR_INTERRUPT_MASK_FROM_ISR( uxSavedInterruptStatus );
   81822:	4638      	mov	r0, r7
   81824:	f241 1329 	movw	r3, #4393	; 0x1129
   81828:	f2c0 0308 	movt	r3, #8
   8182c:	4798      	blx	r3

	return xReturn;
}
   8182e:	4620      	mov	r0, r4
   81830:	e8bd 81f0 	ldmia.w	sp!, {r4, r5, r6, r7, r8, pc}

00081834 <xQueueGenericReceive>:
/*-----------------------------------------------------------*/

signed portBASE_TYPE xQueueGenericReceive( xQueueHandle pxQueue, void * const pvBuffer, portTickType xTicksToWait, portBASE_TYPE xJustPeeking )
{
   81834:	e92d 4ff0 	stmdb	sp!, {r4, r5, r6, r7, r8, r9, sl, fp, lr}
   81838:	b085      	sub	sp, #20
   8183a:	4689      	mov	r9, r1
   8183c:	9201      	str	r2, [sp, #4]
   8183e:	469a      	mov	sl, r3
signed portBASE_TYPE xEntryTimeSet = pdFALSE;
xTimeOutType xTimeOut;
signed char *pcOriginalReadPosition;

	configASSERT( pxQueue );
   81840:	4604      	mov	r4, r0
   81842:	b930      	cbnz	r0, 81852 <xQueueGenericReceive+0x1e>
   81844:	f241 04f5 	movw	r4, #4341	; 0x10f5
   81848:	f2c0 0408 	movt	r4, #8
   8184c:	47a0      	blx	r4
   8184e:	bf00      	nop
   81850:	e7fd      	b.n	8184e <xQueueGenericReceive+0x1a>
	configASSERT( !( ( pvBuffer == NULL ) && ( pxQueue->uxItemSize != ( unsigned portBASE_TYPE ) 0U ) ) );
   81852:	b941      	cbnz	r1, 81866 <xQueueGenericReceive+0x32>
   81854:	6c03      	ldr	r3, [r0, #64]	; 0x40
   81856:	b14b      	cbz	r3, 8186c <xQueueGenericReceive+0x38>
   81858:	f241 00f5 	movw	r0, #4341	; 0x10f5
   8185c:	f2c0 0008 	movt	r0, #8
   81860:	4780      	blx	r0
   81862:	bf00      	nop
   81864:	e7fd      	b.n	81862 <xQueueGenericReceive+0x2e>
   81866:	f04f 0700 	mov.w	r7, #0
   8186a:	e001      	b.n	81870 <xQueueGenericReceive+0x3c>
   8186c:	f04f 0700 	mov.w	r7, #0
	statements within the function itself.  This is done in the interest
	of execution time efficiency. */

	for( ;; )
	{
		taskENTER_CRITICAL();
   81870:	f241 1609 	movw	r6, #4361	; 0x1109
   81874:	f2c0 0608 	movt	r6, #8
				}
				else if( xEntryTimeSet == pdFALSE )
				{
					/* The queue was empty and a block time was specified so
					configure the timeout structure. */
					vTaskSetTimeOutState( &xTimeOut );
   81878:	f242 4b91 	movw	fp, #9361	; 0x2491
   8187c:	f2c0 0b08 	movt	fp, #8
					xEntryTimeSet = pdTRUE;
				}
			}
		}
		taskEXIT_CRITICAL();
   81880:	f241 1531 	movw	r5, #4401	; 0x1131
   81884:	f2c0 0508 	movt	r5, #8
	statements within the function itself.  This is done in the interest
	of execution time efficiency. */

	for( ;; )
	{
		taskENTER_CRITICAL();
   81888:	47b0      	blx	r6
		{
			/* Is there data in the queue now?  To be running we must be
			the highest priority task wanting to access the queue. */
			if( pxQueue->uxMessagesWaiting > ( unsigned portBASE_TYPE ) 0 )
   8188a:	6ba1      	ldr	r1, [r4, #56]	; 0x38
   8188c:	2900      	cmp	r1, #0
   8188e:	d03f      	beq.n	81910 <xQueueGenericReceive+0xdc>
			{
				/* Remember our read position in case we are just peeking. */
				pcOriginalReadPosition = pxQueue->pcReadFrom;
   81890:	68e5      	ldr	r5, [r4, #12]

				prvCopyDataFromQueue( pxQueue, pvBuffer );
   81892:	4620      	mov	r0, r4
   81894:	4649      	mov	r1, r9
   81896:	f241 4375 	movw	r3, #5237	; 0x1475
   8189a:	f2c0 0308 	movt	r3, #8
   8189e:	4798      	blx	r3

				if( xJustPeeking == pdFALSE )
   818a0:	f1ba 0f00 	cmp.w	sl, #0
   818a4:	d11c      	bne.n	818e0 <xQueueGenericReceive+0xac>
				{
					traceQUEUE_RECEIVE( pxQueue );

					/* We are actually removing data. */
					--( pxQueue->uxMessagesWaiting );
   818a6:	6ba3      	ldr	r3, [r4, #56]	; 0x38
   818a8:	f103 30ff 	add.w	r0, r3, #4294967295
   818ac:	63a0      	str	r0, [r4, #56]	; 0x38

					#if ( configUSE_MUTEXES == 1 )
					{
						if( pxQueue->uxQueueType == queueQUEUE_IS_MUTEX )
   818ae:	6821      	ldr	r1, [r4, #0]
   818b0:	b929      	cbnz	r1, 818be <xQueueGenericReceive+0x8a>
						{
							/* Record the information required to implement
							priority inheritance should it become necessary. */
							pxQueue->pxMutexHolder = xTaskGetCurrentTaskHandle();
   818b2:	f242 527d 	movw	r2, #9597	; 0x257d
   818b6:	f2c0 0208 	movt	r2, #8
   818ba:	4790      	blx	r2
   818bc:	6060      	str	r0, [r4, #4]
						}
					}
					#endif

					if( listLIST_IS_EMPTY( &( pxQueue->xTasksWaitingToSend ) ) == pdFALSE )
   818be:	6923      	ldr	r3, [r4, #16]
   818c0:	b1f3      	cbz	r3, 81900 <xQueueGenericReceive+0xcc>
					{
						if( xTaskRemoveFromEventList( &( pxQueue->xTasksWaitingToSend ) ) == pdTRUE )
   818c2:	f104 0010 	add.w	r0, r4, #16
   818c6:	f242 31e9 	movw	r1, #9193	; 0x23e9
   818ca:	f2c0 0108 	movt	r1, #8
   818ce:	4788      	blx	r1
   818d0:	2801      	cmp	r0, #1
   818d2:	d115      	bne.n	81900 <xQueueGenericReceive+0xcc>
						{
							portYIELD_WITHIN_API();
   818d4:	f241 00e5 	movw	r0, #4325	; 0x10e5
   818d8:	f2c0 0008 	movt	r0, #8
   818dc:	4780      	blx	r0
   818de:	e00f      	b.n	81900 <xQueueGenericReceive+0xcc>
				{
					traceQUEUE_PEEK( pxQueue );

					/* We are not removing the data, so reset our read
					pointer. */
					pxQueue->pcReadFrom = pcOriginalReadPosition;
   818e0:	60e5      	str	r5, [r4, #12]

					/* The data is being left in the queue, so see if there are
					any other tasks waiting for the data. */
					if( listLIST_IS_EMPTY( &( pxQueue->xTasksWaitingToReceive ) ) == pdFALSE )
   818e2:	6a60      	ldr	r0, [r4, #36]	; 0x24
   818e4:	b160      	cbz	r0, 81900 <xQueueGenericReceive+0xcc>
					{
						/* Tasks that are removed from the event list will get added to
						the pending ready list as the scheduler is still suspended. */
						if( xTaskRemoveFromEventList( &( pxQueue->xTasksWaitingToReceive ) ) != pdFALSE )
   818e6:	f104 0024 	add.w	r0, r4, #36	; 0x24
   818ea:	f242 31e9 	movw	r1, #9193	; 0x23e9
   818ee:	f2c0 0108 	movt	r1, #8
   818f2:	4788      	blx	r1
   818f4:	b120      	cbz	r0, 81900 <xQueueGenericReceive+0xcc>
						{
							/* The task waiting has a higher priority than this task. */
							portYIELD_WITHIN_API();
   818f6:	f241 02e5 	movw	r2, #4325	; 0x10e5
   818fa:	f2c0 0208 	movt	r2, #8
   818fe:	4790      	blx	r2
						}
					}
				}

				taskEXIT_CRITICAL();
   81900:	f241 1231 	movw	r2, #4401	; 0x1131
   81904:	f2c0 0208 	movt	r2, #8
   81908:	4790      	blx	r2
				return pdPASS;
   8190a:	f04f 0001 	mov.w	r0, #1
   8190e:	e071      	b.n	819f4 <xQueueGenericReceive+0x1c0>
			}
			else
			{
				if( xTicksToWait == ( portTickType ) 0 )
   81910:	9a01      	ldr	r2, [sp, #4]
   81912:	b93a      	cbnz	r2, 81924 <xQueueGenericReceive+0xf0>
				{
					/* The queue was empty and no block time is specified (or
					the block time has expired) so leave now. */
					taskEXIT_CRITICAL();
   81914:	f241 1231 	movw	r2, #4401	; 0x1131
   81918:	f2c0 0208 	movt	r2, #8
   8191c:	4790      	blx	r2
					traceQUEUE_RECEIVE_FAILED( pxQueue );
					return errQUEUE_EMPTY;
   8191e:	f04f 0000 	mov.w	r0, #0
   81922:	e067      	b.n	819f4 <xQueueGenericReceive+0x1c0>
				}
				else if( xEntryTimeSet == pdFALSE )
   81924:	b91f      	cbnz	r7, 8192e <xQueueGenericReceive+0xfa>
				{
					/* The queue was empty and a block time was specified so
					configure the timeout structure. */
					vTaskSetTimeOutState( &xTimeOut );
   81926:	a802      	add	r0, sp, #8
   81928:	47d8      	blx	fp
					xEntryTimeSet = pdTRUE;
   8192a:	f04f 0701 	mov.w	r7, #1
				}
			}
		}
		taskEXIT_CRITICAL();
   8192e:	47a8      	blx	r5

		/* Interrupts and other tasks can send to and receive from the queue
		now the critical section has been exited. */

		vTaskSuspendAll();
   81930:	f641 53f9 	movw	r3, #7673	; 0x1df9
   81934:	f2c0 0308 	movt	r3, #8
   81938:	4798      	blx	r3
		prvLockQueue( pxQueue );
   8193a:	47b0      	blx	r6
   8193c:	6c60      	ldr	r0, [r4, #68]	; 0x44
   8193e:	f1b0 3fff 	cmp.w	r0, #4294967295
   81942:	bf04      	itt	eq
   81944:	2000      	moveq	r0, #0
   81946:	6460      	streq	r0, [r4, #68]	; 0x44
   81948:	6ca1      	ldr	r1, [r4, #72]	; 0x48
   8194a:	f1b1 3fff 	cmp.w	r1, #4294967295
   8194e:	bf04      	itt	eq
   81950:	2100      	moveq	r1, #0
   81952:	64a1      	streq	r1, [r4, #72]	; 0x48
   81954:	47a8      	blx	r5

		/* Update the timeout state to see if it has expired yet. */
		if( xTaskCheckForTimeOut( &xTimeOut, &xTicksToWait ) == pdFALSE )
   81956:	a802      	add	r0, sp, #8
   81958:	a901      	add	r1, sp, #4
   8195a:	f242 42c1 	movw	r2, #9409	; 0x24c1
   8195e:	f2c0 0208 	movt	r2, #8
   81962:	4790      	blx	r2
   81964:	2800      	cmp	r0, #0
   81966:	d138      	bne.n	819da <xQueueGenericReceive+0x1a6>

static signed portBASE_TYPE prvIsQueueEmpty( const xQueueHandle pxQueue )
{
signed portBASE_TYPE xReturn;

	taskENTER_CRITICAL();
   81968:	47b0      	blx	r6
		xReturn = ( pxQueue->uxMessagesWaiting == ( unsigned portBASE_TYPE ) 0 );
   8196a:	f8d4 8038 	ldr.w	r8, [r4, #56]	; 0x38
	taskEXIT_CRITICAL();
   8196e:	47a8      	blx	r5
		prvLockQueue( pxQueue );

		/* Update the timeout state to see if it has expired yet. */
		if( xTaskCheckForTimeOut( &xTimeOut, &xTicksToWait ) == pdFALSE )
		{
			if( prvIsQueueEmpty( pxQueue ) != pdFALSE )
   81970:	f1b8 0f00 	cmp.w	r8, #0
   81974:	d125      	bne.n	819c2 <xQueueGenericReceive+0x18e>
			{
				traceBLOCKING_ON_QUEUE_RECEIVE( pxQueue );

				#if ( configUSE_MUTEXES == 1 )
				{
					if( pxQueue->uxQueueType == queueQUEUE_IS_MUTEX )
   81976:	6823      	ldr	r3, [r4, #0]
   81978:	b93b      	cbnz	r3, 8198a <xQueueGenericReceive+0x156>
					{
						portENTER_CRITICAL();
   8197a:	47b0      	blx	r6
						{
							vTaskPriorityInherit( ( void * ) pxQueue->pxMutexHolder );
   8197c:	6860      	ldr	r0, [r4, #4]
   8197e:	f242 51b1 	movw	r1, #9649	; 0x25b1
   81982:	f2c0 0108 	movt	r1, #8
   81986:	4788      	blx	r1
						}
						portEXIT_CRITICAL();
   81988:	47a8      	blx	r5
					}
				}
				#endif

				vTaskPlaceOnEventList( &( pxQueue->xTasksWaitingToReceive ), xTicksToWait );
   8198a:	f104 0024 	add.w	r0, r4, #36	; 0x24
   8198e:	9901      	ldr	r1, [sp, #4]
   81990:	f242 3221 	movw	r2, #8993	; 0x2321
   81994:	f2c0 0208 	movt	r2, #8
   81998:	4790      	blx	r2
				prvUnlockQueue( pxQueue );
   8199a:	4620      	mov	r0, r4
   8199c:	f241 33c1 	movw	r3, #5057	; 0x13c1
   819a0:	f2c0 0308 	movt	r3, #8
   819a4:	4798      	blx	r3
				if( xTaskResumeAll() == pdFALSE )
   819a6:	f641 70c1 	movw	r0, #8129	; 0x1fc1
   819aa:	f2c0 0008 	movt	r0, #8
   819ae:	4780      	blx	r0
   819b0:	2800      	cmp	r0, #0
   819b2:	f47f af69 	bne.w	81888 <xQueueGenericReceive+0x54>
				{
					portYIELD_WITHIN_API();
   819b6:	f241 01e5 	movw	r1, #4325	; 0x10e5
   819ba:	f2c0 0108 	movt	r1, #8
   819be:	4788      	blx	r1
   819c0:	e762      	b.n	81888 <xQueueGenericReceive+0x54>
				}
			}
			else
			{
				/* Try again. */
				prvUnlockQueue( pxQueue );
   819c2:	4620      	mov	r0, r4
   819c4:	f241 31c1 	movw	r1, #5057	; 0x13c1
   819c8:	f2c0 0108 	movt	r1, #8
   819cc:	4788      	blx	r1
				( void ) xTaskResumeAll();
   819ce:	f641 72c1 	movw	r2, #8129	; 0x1fc1
   819d2:	f2c0 0208 	movt	r2, #8
   819d6:	4790      	blx	r2
   819d8:	e756      	b.n	81888 <xQueueGenericReceive+0x54>
			}
		}
		else
		{
			prvUnlockQueue( pxQueue );
   819da:	4620      	mov	r0, r4
   819dc:	f241 33c1 	movw	r3, #5057	; 0x13c1
   819e0:	f2c0 0308 	movt	r3, #8
   819e4:	4798      	blx	r3
			( void ) xTaskResumeAll();
   819e6:	f641 70c1 	movw	r0, #8129	; 0x1fc1
   819ea:	f2c0 0008 	movt	r0, #8
   819ee:	4780      	blx	r0
			traceQUEUE_RECEIVE_FAILED( pxQueue );
			return errQUEUE_EMPTY;
   819f0:	f04f 0000 	mov.w	r0, #0
		}
	}
}
   819f4:	b005      	add	sp, #20
   819f6:	e8bd 8ff0 	ldmia.w	sp!, {r4, r5, r6, r7, r8, r9, sl, fp, pc}
   819fa:	bf00      	nop

000819fc <vQueueWaitForMessageRestricted>:
/*-----------------------------------------------------------*/

#if configUSE_TIMERS == 1

	void vQueueWaitForMessageRestricted( xQueueHandle pxQueue, portTickType xTicksToWait )
	{
   819fc:	b538      	push	{r3, r4, r5, lr}
   819fe:	4604      	mov	r4, r0
   81a00:	460d      	mov	r5, r1
		will not actually cause the task to block, just place it on a blocked
		list.  It will not block until the scheduler is unlocked - at which
		time a yield will be performed.  If an item is added to the queue while
		the queue is locked, and the calling task blocks on the queue, then the
		calling task will be immediately unblocked when the queue is unlocked. */
		prvLockQueue( pxQueue );
   81a02:	f241 1309 	movw	r3, #4361	; 0x1109
   81a06:	f2c0 0308 	movt	r3, #8
   81a0a:	4798      	blx	r3
   81a0c:	6c60      	ldr	r0, [r4, #68]	; 0x44
   81a0e:	f1b0 3fff 	cmp.w	r0, #4294967295
   81a12:	bf04      	itt	eq
   81a14:	2000      	moveq	r0, #0
   81a16:	6460      	streq	r0, [r4, #68]	; 0x44
   81a18:	6ca1      	ldr	r1, [r4, #72]	; 0x48
   81a1a:	f1b1 3fff 	cmp.w	r1, #4294967295
   81a1e:	bf04      	itt	eq
   81a20:	2100      	moveq	r1, #0
   81a22:	64a1      	streq	r1, [r4, #72]	; 0x48
   81a24:	f241 1231 	movw	r2, #4401	; 0x1131
   81a28:	f2c0 0208 	movt	r2, #8
   81a2c:	4790      	blx	r2
		if( pxQueue->uxMessagesWaiting == ( unsigned portBASE_TYPE ) 0U )
   81a2e:	6ba3      	ldr	r3, [r4, #56]	; 0x38
   81a30:	b93b      	cbnz	r3, 81a42 <vQueueWaitForMessageRestricted+0x46>
		{
			/* There is nothing in the queue, block for the specified period. */
			vTaskPlaceOnEventListRestricted( &( pxQueue->xTasksWaitingToReceive ), xTicksToWait );
   81a32:	f104 0024 	add.w	r0, r4, #36	; 0x24
   81a36:	4629      	mov	r1, r5
   81a38:	f242 3295 	movw	r2, #9109	; 0x2395
   81a3c:	f2c0 0208 	movt	r2, #8
   81a40:	4790      	blx	r2
		}
		prvUnlockQueue( pxQueue );
   81a42:	4620      	mov	r0, r4
   81a44:	f241 31c1 	movw	r1, #5057	; 0x13c1
   81a48:	f2c0 0108 	movt	r1, #8
   81a4c:	4788      	blx	r1
   81a4e:	bd38      	pop	{r3, r4, r5, pc}

00081a50 <prvAddCurrentTaskToDelayedList>:
	#endif
}
/*-----------------------------------------------------------*/

static void prvAddCurrentTaskToDelayedList( portTickType xTimeToWake )
{
   81a50:	b510      	push	{r4, lr}
   81a52:	4604      	mov	r4, r0
	/* The list item will be inserted in wake time order. */
	listSET_LIST_ITEM_VALUE( &( pxCurrentTCB->xGenericListItem ), xTimeToWake );
   81a54:	f64a 23d4 	movw	r3, #43732	; 0xaad4
   81a58:	f2c2 0307 	movt	r3, #8199	; 0x2007
   81a5c:	6818      	ldr	r0, [r3, #0]
   81a5e:	6044      	str	r4, [r0, #4]

	if( xTimeToWake < xTickCount )
   81a60:	f64a 21f0 	movw	r1, #43760	; 0xaaf0
   81a64:	f2c2 0107 	movt	r1, #8199	; 0x2007
   81a68:	680a      	ldr	r2, [r1, #0]
   81a6a:	4294      	cmp	r4, r2
   81a6c:	d211      	bcs.n	81a92 <prvAddCurrentTaskToDelayedList+0x42>
	{
		/* Wake time has overflowed.  Place this item in the overflow list. */
		vListInsert( ( xList * ) pxOverflowDelayedTaskList, ( xListItem * ) &( pxCurrentTCB->xGenericListItem ) );
   81a6e:	f64a 22f4 	movw	r2, #43764	; 0xaaf4
   81a72:	f2c2 0207 	movt	r2, #8199	; 0x2007
   81a76:	6810      	ldr	r0, [r2, #0]
   81a78:	f64a 23d4 	movw	r3, #43732	; 0xaad4
   81a7c:	f2c2 0307 	movt	r3, #8199	; 0x2007
   81a80:	6819      	ldr	r1, [r3, #0]
   81a82:	f101 0104 	add.w	r1, r1, #4
   81a86:	f241 0229 	movw	r2, #4137	; 0x1029
   81a8a:	f2c0 0208 	movt	r2, #8
   81a8e:	4790      	blx	r2
   81a90:	bd10      	pop	{r4, pc}
	}
	else
	{
		/* The wake time has not overflowed, so we can use the current block list. */
		vListInsert( ( xList * ) pxDelayedTaskList, ( xListItem * ) &( pxCurrentTCB->xGenericListItem ) );
   81a92:	f64a 2334 	movw	r3, #43572	; 0xaa34
   81a96:	f2c2 0307 	movt	r3, #8199	; 0x2007
   81a9a:	6818      	ldr	r0, [r3, #0]
   81a9c:	f64a 21d4 	movw	r1, #43732	; 0xaad4
   81aa0:	f2c2 0107 	movt	r1, #8199	; 0x2007
   81aa4:	6809      	ldr	r1, [r1, #0]
   81aa6:	f101 0104 	add.w	r1, r1, #4
   81aaa:	f241 0229 	movw	r2, #4137	; 0x1029
   81aae:	f2c0 0208 	movt	r2, #8
   81ab2:	4790      	blx	r2

		/* If the task entering the blocked state was placed at the head of the
		list of blocked tasks then xNextTaskUnblockTime needs to be updated
		too. */
		if( xTimeToWake < xNextTaskUnblockTime )
   81ab4:	f240 0010 	movw	r0, #16
   81ab8:	f2c2 0007 	movt	r0, #8199	; 0x2007
   81abc:	6803      	ldr	r3, [r0, #0]
   81abe:	429c      	cmp	r4, r3
   81ac0:	d204      	bcs.n	81acc <prvAddCurrentTaskToDelayedList+0x7c>
		{
			xNextTaskUnblockTime = xTimeToWake;
   81ac2:	f240 0110 	movw	r1, #16
   81ac6:	f2c2 0107 	movt	r1, #8199	; 0x2007
   81aca:	600c      	str	r4, [r1, #0]
   81acc:	bd10      	pop	{r4, pc}
   81ace:	bf00      	nop

00081ad0 <xTaskGenericCreate>:
/*-----------------------------------------------------------
 * TASK CREATION API documented in task.h
 *----------------------------------------------------------*/

signed portBASE_TYPE xTaskGenericCreate( pdTASK_CODE pxTaskCode, const signed char * const pcName, unsigned short usStackDepth, void *pvParameters, unsigned portBASE_TYPE uxPriority, xTaskHandle *pxCreatedTask, portSTACK_TYPE *puxStackBuffer, const xMemoryRegion * const xRegions )
{
   81ad0:	e92d 4ff8 	stmdb	sp!, {r3, r4, r5, r6, r7, r8, r9, sl, fp, lr}
   81ad4:	460f      	mov	r7, r1
   81ad6:	4690      	mov	r8, r2
   81ad8:	469a      	mov	sl, r3
   81ada:	9d0a      	ldr	r5, [sp, #40]	; 0x28
   81adc:	9e0c      	ldr	r6, [sp, #48]	; 0x30
signed portBASE_TYPE xReturn;
tskTCB * pxNewTCB;

	configASSERT( pxTaskCode );
   81ade:	4681      	mov	r9, r0
   81ae0:	b930      	cbnz	r0, 81af0 <xTaskGenericCreate+0x20>
   81ae2:	f241 07f5 	movw	r7, #4341	; 0x10f5
   81ae6:	f2c0 0708 	movt	r7, #8
   81aea:	47b8      	blx	r7
   81aec:	bf00      	nop
   81aee:	e7fd      	b.n	81aec <xTaskGenericCreate+0x1c>
	configASSERT( ( ( uxPriority & ( ~portPRIVILEGE_BIT ) ) < configMAX_PRIORITIES ) );
   81af0:	2d04      	cmp	r5, #4
   81af2:	d906      	bls.n	81b02 <xTaskGenericCreate+0x32>
   81af4:	f241 05f5 	movw	r5, #4341	; 0x10f5
   81af8:	f2c0 0508 	movt	r5, #8
   81afc:	47a8      	blx	r5
   81afe:	bf00      	nop
   81b00:	e7fd      	b.n	81afe <xTaskGenericCreate+0x2e>
{
tskTCB *pxNewTCB;

	/* Allocate space for the TCB.  Where the memory comes from depends on
	the implementation of the port malloc function. */
	pxNewTCB = ( tskTCB * ) pvPortMalloc( sizeof( tskTCB ) );
   81b02:	f04f 004c 	mov.w	r0, #76	; 0x4c
   81b06:	f241 2385 	movw	r3, #4741	; 0x1285
   81b0a:	f2c0 0308 	movt	r3, #8
   81b0e:	4798      	blx	r3

	if( pxNewTCB != NULL )
   81b10:	4604      	mov	r4, r0
   81b12:	2800      	cmp	r0, #0
   81b14:	f000 8127 	beq.w	81d66 <xTaskGenericCreate+0x296>
	{
		/* Allocate space for the stack used by the task being created.
		The base of the stack memory stored in the TCB so the task can
		be deleted later if required. */
		pxNewTCB->pxStack = ( portSTACK_TYPE * ) pvPortMallocAligned( ( ( ( size_t )usStackDepth ) * sizeof( portSTACK_TYPE ) ), puxStackBuffer );
   81b18:	2e00      	cmp	r6, #0
   81b1a:	f040 8122 	bne.w	81d62 <xTaskGenericCreate+0x292>
   81b1e:	ea4f 0088 	mov.w	r0, r8, lsl #2
   81b22:	f241 2185 	movw	r1, #4741	; 0x1285
   81b26:	f2c0 0108 	movt	r1, #8
   81b2a:	4788      	blx	r1
   81b2c:	4606      	mov	r6, r0
   81b2e:	6320      	str	r0, [r4, #48]	; 0x30

		if( pxNewTCB->pxStack == NULL )
   81b30:	b930      	cbnz	r0, 81b40 <xTaskGenericCreate+0x70>
		{
			/* Could not allocate the stack.  Delete the allocated TCB. */
			vPortFree( pxNewTCB );
   81b32:	4620      	mov	r0, r4
   81b34:	f241 3285 	movw	r2, #4997	; 0x1385
   81b38:	f2c0 0208 	movt	r2, #8
   81b3c:	4790      	blx	r2
   81b3e:	e112      	b.n	81d66 <xTaskGenericCreate+0x296>
			pxNewTCB = NULL;
		}
		else
		{
			/* Just to help debugging. */
			memset( pxNewTCB->pxStack, ( int ) tskSTACK_FILL_BYTE, ( size_t ) usStackDepth * sizeof( portSTACK_TYPE ) );
   81b40:	4630      	mov	r0, r6
   81b42:	f04f 01a5 	mov.w	r1, #165	; 0xa5
   81b46:	ea4f 0288 	mov.w	r2, r8, lsl #2
   81b4a:	f244 56a3 	movw	r6, #17827	; 0x45a3
   81b4e:	f2c0 0608 	movt	r6, #8
   81b52:	47b0      	blx	r6
		stack grows from high memory to low (as per the 80x86) or visa versa.
		portSTACK_GROWTH is used to make the result positive or negative as
		required by the port. */
		#if( portSTACK_GROWTH < 0 )
		{
			pxTopOfStack = pxNewTCB->pxStack + ( usStackDepth - ( unsigned short ) 1 );
   81b54:	f108 38ff 	add.w	r8, r8, #4294967295
   81b58:	6b20      	ldr	r0, [r4, #48]	; 0x30
   81b5a:	eb00 0288 	add.w	r2, r0, r8, lsl #2
			pxTopOfStack = ( portSTACK_TYPE * ) ( ( ( portPOINTER_SIZE_TYPE ) pxTopOfStack ) & ( ( portPOINTER_SIZE_TYPE ) ~portBYTE_ALIGNMENT_MASK  ) );
   81b5e:	f022 0b07 	bic.w	fp, r2, #7
{
	/* Store the function name in the TCB. */
	#if configMAX_TASK_NAME_LEN > 1
	{
		/* Don't bring strncpy into the build unnecessarily. */
		strncpy( ( char * ) pxTCB->pcTaskName, ( const char * ) pcName, ( unsigned short ) configMAX_TASK_NAME_LEN );
   81b62:	f104 0034 	add.w	r0, r4, #52	; 0x34
   81b66:	4639      	mov	r1, r7
   81b68:	f04f 020a 	mov.w	r2, #10
   81b6c:	f244 67ef 	movw	r7, #18159	; 0x46ef
   81b70:	f2c0 0708 	movt	r7, #8
   81b74:	47b8      	blx	r7
	}
	#endif
	pxTCB->pcTaskName[ ( unsigned short ) configMAX_TASK_NAME_LEN - ( unsigned short ) 1 ] = ( signed char ) '\0';
   81b76:	f04f 0300 	mov.w	r3, #0
   81b7a:	f884 303d 	strb.w	r3, [r4, #61]	; 0x3d
   81b7e:	2d04      	cmp	r5, #4
   81b80:	bf34      	ite	cc
   81b82:	462e      	movcc	r6, r5
   81b84:	2604      	movcs	r6, #4
	if( uxPriority >= configMAX_PRIORITIES )
	{
		uxPriority = configMAX_PRIORITIES - ( unsigned portBASE_TYPE ) 1U;
	}

	pxTCB->uxPriority = uxPriority;
   81b86:	62e6      	str	r6, [r4, #44]	; 0x2c
	#if ( configUSE_MUTEXES == 1 )
	{
		pxTCB->uxBasePriority = uxPriority;
   81b88:	64a6      	str	r6, [r4, #72]	; 0x48
	}
	#endif

	vListInitialiseItem( &( pxTCB->xGenericListItem ) );
   81b8a:	f104 0704 	add.w	r7, r4, #4
   81b8e:	4638      	mov	r0, r7
   81b90:	f241 0801 	movw	r8, #4097	; 0x1001
   81b94:	f2c0 0808 	movt	r8, #8
   81b98:	47c0      	blx	r8
	vListInitialiseItem( &( pxTCB->xEventListItem ) );
   81b9a:	f104 0018 	add.w	r0, r4, #24
   81b9e:	47c0      	blx	r8

	/* Set the pxTCB as a link back from the xListItem.  This is so we can get
	back to	the containing TCB from a generic item in a list. */
	listSET_LIST_ITEM_OWNER( &( pxTCB->xGenericListItem ), pxTCB );
   81ba0:	6124      	str	r4, [r4, #16]

	/* Event lists are always in priority order. */
	listSET_LIST_ITEM_VALUE( &( pxTCB->xEventListItem ), configMAX_PRIORITIES - ( portTickType ) uxPriority );
   81ba2:	f1c6 0605 	rsb	r6, r6, #5
   81ba6:	61a6      	str	r6, [r4, #24]
	listSET_LIST_ITEM_OWNER( &( pxTCB->xEventListItem ), pxTCB );
   81ba8:	6264      	str	r4, [r4, #36]	; 0x24
		{
			pxNewTCB->pxTopOfStack = pxPortInitialiseStack( pxTopOfStack, pxTaskCode, pvParameters, xRunPrivileged );
		}
		#else
		{
			pxNewTCB->pxTopOfStack = pxPortInitialiseStack( pxTopOfStack, pxTaskCode, pvParameters );
   81baa:	4658      	mov	r0, fp
   81bac:	4649      	mov	r1, r9
   81bae:	4652      	mov	r2, sl
   81bb0:	f241 03a5 	movw	r3, #4261	; 0x10a5
   81bb4:	f2c0 0308 	movt	r3, #8
   81bb8:	4798      	blx	r3
   81bba:	6020      	str	r0, [r4, #0]
		}
		#endif

		/* Check the alignment of the initialised stack. */
		portALIGNMENT_ASSERT_pxCurrentTCB( ( ( ( unsigned long ) pxNewTCB->pxTopOfStack & ( unsigned long ) portBYTE_ALIGNMENT_MASK ) == 0UL ) );
   81bbc:	f010 0f07 	tst.w	r0, #7
   81bc0:	d006      	beq.n	81bd0 <xTaskGenericCreate+0x100>
   81bc2:	f241 04f5 	movw	r4, #4341	; 0x10f5
   81bc6:	f2c0 0408 	movt	r4, #8
   81bca:	47a0      	blx	r4
   81bcc:	bf00      	nop
   81bce:	e7fd      	b.n	81bcc <xTaskGenericCreate+0xfc>

		if( ( void * ) pxCreatedTask != NULL )
   81bd0:	990b      	ldr	r1, [sp, #44]	; 0x2c
   81bd2:	b101      	cbz	r1, 81bd6 <xTaskGenericCreate+0x106>
		{
			/* Pass the TCB out - in an anonymous way.  The calling function/
			task can use this as a handle to delete the task later if
			required.*/
			*pxCreatedTask = ( xTaskHandle ) pxNewTCB;
   81bd4:	600c      	str	r4, [r1, #0]
		}

		/* We are going to manipulate the task queues to add this task to a
		ready list, so must make sure no interrupts occur. */
		taskENTER_CRITICAL();
   81bd6:	f241 1009 	movw	r0, #4361	; 0x1109
   81bda:	f2c0 0008 	movt	r0, #8
   81bde:	4780      	blx	r0
		{
			uxCurrentNumberOfTasks++;
   81be0:	f64a 3314 	movw	r3, #43796	; 0xab14
   81be4:	f2c2 0307 	movt	r3, #8199	; 0x2007
   81be8:	681a      	ldr	r2, [r3, #0]
   81bea:	f102 0201 	add.w	r2, r2, #1
   81bee:	601a      	str	r2, [r3, #0]
			if( pxCurrentTCB == NULL )
   81bf0:	f64a 21d4 	movw	r1, #43732	; 0xaad4
   81bf4:	f2c2 0107 	movt	r1, #8199	; 0x2007
   81bf8:	6808      	ldr	r0, [r1, #0]
   81bfa:	2800      	cmp	r0, #0
   81bfc:	d149      	bne.n	81c92 <xTaskGenericCreate+0x1c2>
			{
				/* There are no other tasks, or all the other tasks are in
				the suspended state - make this the current task. */
				pxCurrentTCB =  pxNewTCB;
   81bfe:	f64a 21d4 	movw	r1, #43732	; 0xaad4
   81c02:	f2c2 0107 	movt	r1, #8199	; 0x2007
   81c06:	600c      	str	r4, [r1, #0]

				if( uxCurrentNumberOfTasks == ( unsigned portBASE_TYPE ) 1 )
   81c08:	f64a 3014 	movw	r0, #43796	; 0xab14
   81c0c:	f2c2 0007 	movt	r0, #8199	; 0x2007
   81c10:	6803      	ldr	r3, [r0, #0]
   81c12:	2b01      	cmp	r3, #1
   81c14:	d150      	bne.n	81cb8 <xTaskGenericCreate+0x1e8>
{
unsigned portBASE_TYPE uxPriority;

	for( uxPriority = ( unsigned portBASE_TYPE ) 0U; uxPriority < configMAX_PRIORITIES; uxPriority++ )
	{
		vListInitialise( ( xList * ) &( pxReadyTasksLists[ uxPriority ] ) );
   81c16:	f64a 296c 	movw	r9, #43628	; 0xaa6c
   81c1a:	f2c2 0907 	movt	r9, #8199	; 0x2007
   81c1e:	4648      	mov	r0, r9
   81c20:	f640 76e9 	movw	r6, #4073	; 0xfe9
   81c24:	f2c0 0608 	movt	r6, #8
   81c28:	47b0      	blx	r6
   81c2a:	f109 0014 	add.w	r0, r9, #20
   81c2e:	47b0      	blx	r6
   81c30:	f109 0028 	add.w	r0, r9, #40	; 0x28
   81c34:	47b0      	blx	r6
   81c36:	f109 003c 	add.w	r0, r9, #60	; 0x3c
   81c3a:	47b0      	blx	r6
   81c3c:	f109 0050 	add.w	r0, r9, #80	; 0x50
   81c40:	47b0      	blx	r6
	}

	vListInitialise( ( xList * ) &xDelayedTaskList1 );
   81c42:	f64a 29fc 	movw	r9, #43772	; 0xaafc
   81c46:	f2c2 0907 	movt	r9, #8199	; 0x2007
   81c4a:	4648      	mov	r0, r9
   81c4c:	47b0      	blx	r6
	vListInitialise( ( xList * ) &xDelayedTaskList2 );
   81c4e:	f64a 2854 	movw	r8, #43604	; 0xaa54
   81c52:	f2c2 0807 	movt	r8, #8199	; 0x2007
   81c56:	4640      	mov	r0, r8
   81c58:	47b0      	blx	r6
	vListInitialise( ( xList * ) &xPendingReadyList );
   81c5a:	f64a 20d8 	movw	r0, #43736	; 0xaad8
   81c5e:	f2c2 0007 	movt	r0, #8199	; 0x2007
   81c62:	47b0      	blx	r6

	#if ( INCLUDE_vTaskDelete == 1 )
	{
		vListInitialise( ( xList * ) &xTasksWaitingTermination );
   81c64:	f64a 2040 	movw	r0, #43584	; 0xaa40
   81c68:	f2c2 0007 	movt	r0, #8199	; 0x2007
   81c6c:	47b0      	blx	r6
	}
	#endif

	#if ( INCLUDE_vTaskSuspend == 1 )
	{
		vListInitialise( ( xList * ) &xSuspendedTaskList );
   81c6e:	f64a 2020 	movw	r0, #43552	; 0xaa20
   81c72:	f2c2 0007 	movt	r0, #8199	; 0x2007
   81c76:	47b0      	blx	r6
	}
	#endif

	/* Start with pxDelayedTaskList using list1 and the pxOverflowDelayedTaskList
	using list2. */
	pxDelayedTaskList = &xDelayedTaskList1;
   81c78:	f64a 2234 	movw	r2, #43572	; 0xaa34
   81c7c:	f2c2 0207 	movt	r2, #8199	; 0x2007
   81c80:	f8c2 9000 	str.w	r9, [r2]
	pxOverflowDelayedTaskList = &xDelayedTaskList2;
   81c84:	f64a 21f4 	movw	r1, #43764	; 0xaaf4
   81c88:	f2c2 0107 	movt	r1, #8199	; 0x2007
   81c8c:	f8c1 8000 	str.w	r8, [r1]
   81c90:	e012      	b.n	81cb8 <xTaskGenericCreate+0x1e8>
			else
			{
				/* If the scheduler is not already running, make this task the
				current task if it is the highest priority task to be created
				so far. */
				if( xSchedulerRunning == pdFALSE )
   81c92:	f64a 2338 	movw	r3, #43576	; 0xaa38
   81c96:	f2c2 0307 	movt	r3, #8199	; 0x2007
   81c9a:	681a      	ldr	r2, [r3, #0]
   81c9c:	b962      	cbnz	r2, 81cb8 <xTaskGenericCreate+0x1e8>
				{
					if( pxCurrentTCB->uxPriority <= uxPriority )
   81c9e:	f64a 21d4 	movw	r1, #43732	; 0xaad4
   81ca2:	f2c2 0107 	movt	r1, #8199	; 0x2007
   81ca6:	6808      	ldr	r0, [r1, #0]
   81ca8:	6ac3      	ldr	r3, [r0, #44]	; 0x2c
   81caa:	429d      	cmp	r5, r3
   81cac:	d304      	bcc.n	81cb8 <xTaskGenericCreate+0x1e8>
					{
						pxCurrentTCB = pxNewTCB;
   81cae:	f64a 22d4 	movw	r2, #43732	; 0xaad4
   81cb2:	f2c2 0207 	movt	r2, #8199	; 0x2007
   81cb6:	6014      	str	r4, [r2, #0]
				}
			}

			/* Remember the top priority to make context switching faster.  Use
			the priority in pxNewTCB as this has been capped to a valid value. */
			if( pxNewTCB->uxPriority > uxTopUsedPriority )
   81cb8:	6ae0      	ldr	r0, [r4, #44]	; 0x2c
   81cba:	f64a 3318 	movw	r3, #43800	; 0xab18
   81cbe:	f2c2 0307 	movt	r3, #8199	; 0x2007
   81cc2:	681a      	ldr	r2, [r3, #0]
   81cc4:	4290      	cmp	r0, r2
   81cc6:	d904      	bls.n	81cd2 <xTaskGenericCreate+0x202>
			{
				uxTopUsedPriority = pxNewTCB->uxPriority;
   81cc8:	f64a 3118 	movw	r1, #43800	; 0xab18
   81ccc:	f2c2 0107 	movt	r1, #8199	; 0x2007
   81cd0:	6008      	str	r0, [r1, #0]
			}

			#if ( configUSE_TRACE_FACILITY == 1 )
			{
				/* Add a counter into the TCB for tracing only. */
				pxNewTCB->uxTCBNumber = uxTaskNumber;
   81cd2:	f64a 23f8 	movw	r3, #43768	; 0xaaf8
   81cd6:	f2c2 0307 	movt	r3, #8199	; 0x2007
   81cda:	681a      	ldr	r2, [r3, #0]
   81cdc:	6422      	str	r2, [r4, #64]	; 0x40
			}
			#endif
			uxTaskNumber++;
   81cde:	f102 0201 	add.w	r2, r2, #1
   81ce2:	601a      	str	r2, [r3, #0]

			prvAddTaskToReadyQueue( pxNewTCB );
   81ce4:	f64a 2168 	movw	r1, #43624	; 0xaa68
   81ce8:	f2c2 0107 	movt	r1, #8199	; 0x2007
   81cec:	680b      	ldr	r3, [r1, #0]
   81cee:	4298      	cmp	r0, r3
   81cf0:	d904      	bls.n	81cfc <xTaskGenericCreate+0x22c>
   81cf2:	f64a 2268 	movw	r2, #43624	; 0xaa68
   81cf6:	f2c2 0207 	movt	r2, #8199	; 0x2007
   81cfa:	6010      	str	r0, [r2, #0]
   81cfc:	eb00 0180 	add.w	r1, r0, r0, lsl #2
   81d00:	f64a 206c 	movw	r0, #43628	; 0xaa6c
   81d04:	4603      	mov	r3, r0
   81d06:	f2c2 0307 	movt	r3, #8199	; 0x2007
   81d0a:	eb03 0081 	add.w	r0, r3, r1, lsl #2
   81d0e:	4639      	mov	r1, r7
   81d10:	f241 0209 	movw	r2, #4105	; 0x1009
   81d14:	f2c0 0208 	movt	r2, #8
   81d18:	4790      	blx	r2

			xReturn = pdPASS;
			portSETUP_TCB( pxNewTCB );
			traceTASK_CREATE( pxNewTCB );
		}
		taskEXIT_CRITICAL();
   81d1a:	f241 1131 	movw	r1, #4401	; 0x1131
   81d1e:	f2c0 0108 	movt	r1, #8
   81d22:	4788      	blx	r1
		traceTASK_CREATE_FAILED();
	}

	if( xReturn == pdPASS )
	{
		if( xSchedulerRunning != pdFALSE )
   81d24:	f64a 2038 	movw	r0, #43576	; 0xaa38
   81d28:	f2c2 0007 	movt	r0, #8199	; 0x2007
   81d2c:	6803      	ldr	r3, [r0, #0]
   81d2e:	b183      	cbz	r3, 81d52 <xTaskGenericCreate+0x282>
		{
			/* If the created task is of a higher priority than the current task
			then it should run now. */
			if( pxCurrentTCB->uxPriority < uxPriority )
   81d30:	f64a 22d4 	movw	r2, #43732	; 0xaad4
   81d34:	f2c2 0207 	movt	r2, #8199	; 0x2007
   81d38:	6811      	ldr	r1, [r2, #0]
   81d3a:	6ac8      	ldr	r0, [r1, #44]	; 0x2c
   81d3c:	4285      	cmp	r5, r0
   81d3e:	d90c      	bls.n	81d5a <xTaskGenericCreate+0x28a>
			{
				portYIELD_WITHIN_API();
   81d40:	f241 03e5 	movw	r3, #4325	; 0x10e5
   81d44:	f2c0 0308 	movt	r3, #8
   81d48:	4798      	blx	r3
			#endif
			uxTaskNumber++;

			prvAddTaskToReadyQueue( pxNewTCB );

			xReturn = pdPASS;
   81d4a:	f04f 0001 	mov.w	r0, #1
   81d4e:	e8bd 8ff8 	ldmia.w	sp!, {r3, r4, r5, r6, r7, r8, r9, sl, fp, pc}
   81d52:	f04f 0001 	mov.w	r0, #1
   81d56:	e8bd 8ff8 	ldmia.w	sp!, {r3, r4, r5, r6, r7, r8, r9, sl, fp, pc}
   81d5a:	f04f 0001 	mov.w	r0, #1
   81d5e:	e8bd 8ff8 	ldmia.w	sp!, {r3, r4, r5, r6, r7, r8, r9, sl, fp, pc}
	if( pxNewTCB != NULL )
	{
		/* Allocate space for the stack used by the task being created.
		The base of the stack memory stored in the TCB so the task can
		be deleted later if required. */
		pxNewTCB->pxStack = ( portSTACK_TYPE * ) pvPortMallocAligned( ( ( ( size_t )usStackDepth ) * sizeof( portSTACK_TYPE ) ), puxStackBuffer );
   81d62:	6306      	str	r6, [r0, #48]	; 0x30
   81d64:	e6ec      	b.n	81b40 <xTaskGenericCreate+0x70>
		}
		taskEXIT_CRITICAL();
	}
	else
	{
		xReturn = errCOULD_NOT_ALLOCATE_REQUIRED_MEMORY;
   81d66:	f04f 30ff 	mov.w	r0, #4294967295
			}
		}
	}

	return xReturn;
}
   81d6a:	e8bd 8ff8 	ldmia.w	sp!, {r3, r4, r5, r6, r7, r8, r9, sl, fp, pc}
   81d6e:	bf00      	nop

00081d70 <vTaskStartScheduler>:
 * PUBLIC SCHEDULER CONTROL documented in task.h
 *----------------------------------------------------------*/


void vTaskStartScheduler( void )
{
   81d70:	b510      	push	{r4, lr}
   81d72:	b084      	sub	sp, #16
		xReturn = xTaskCreate( prvIdleTask, ( signed char * ) "IDLE", tskIDLE_STACK_SIZE, ( void * ) NULL, ( tskIDLE_PRIORITY | portPRIVILEGE_BIT ), &xIdleTaskHandle );
	}
	#else
	{
		/* Create the idle task without storing its handle. */
		xReturn = xTaskCreate( prvIdleTask, ( signed char * ) "IDLE", tskIDLE_STACK_SIZE, ( void * ) NULL, ( tskIDLE_PRIORITY | portPRIVILEGE_BIT ), NULL );
   81d74:	f04f 0300 	mov.w	r3, #0
   81d78:	9300      	str	r3, [sp, #0]
   81d7a:	9301      	str	r3, [sp, #4]
   81d7c:	9302      	str	r3, [sp, #8]
   81d7e:	9303      	str	r3, [sp, #12]
   81d80:	f242 100d 	movw	r0, #8461	; 0x210d
   81d84:	f2c0 0008 	movt	r0, #8
   81d88:	f649 21d4 	movw	r1, #39636	; 0x9ad4
   81d8c:	f2c0 0108 	movt	r1, #8
   81d90:	f04f 0282 	mov.w	r2, #130	; 0x82
   81d94:	f641 24d1 	movw	r4, #6865	; 0x1ad1
   81d98:	f2c0 0408 	movt	r4, #8
   81d9c:	47a0      	blx	r4
	}
	#endif

	#if ( configUSE_TIMERS == 1 )
	{
		if( xReturn == pdPASS )
   81d9e:	2801      	cmp	r0, #1
   81da0:	d11f      	bne.n	81de2 <vTaskStartScheduler+0x72>
		{
			xReturn = xTimerCreateTimerTask();
   81da2:	f242 7395 	movw	r3, #10133	; 0x2795
   81da6:	f2c0 0308 	movt	r3, #8
   81daa:	4798      	blx	r3
		}
	}
	#endif

	if( xReturn == pdPASS )
   81dac:	2801      	cmp	r0, #1
   81dae:	d118      	bne.n	81de2 <vTaskStartScheduler+0x72>
		so interrupts will automatically get re-enabled when the first task
		starts to run.

		STEPPING THROUGH HERE USING A DEBUGGER CAN CAUSE BIG PROBLEMS IF THE
		DEBUGGER ALLOWS INTERRUPTS TO BE PROCESSED. */
		portDISABLE_INTERRUPTS();
   81db0:	f241 01f5 	movw	r1, #4341	; 0x10f5
   81db4:	f2c0 0108 	movt	r1, #8
   81db8:	4788      	blx	r1

		xSchedulerRunning = pdTRUE;
   81dba:	f64a 2338 	movw	r3, #43576	; 0xaa38
   81dbe:	f2c2 0307 	movt	r3, #8199	; 0x2007
   81dc2:	f04f 0201 	mov.w	r2, #1
   81dc6:	601a      	str	r2, [r3, #0]
		xTickCount = ( portTickType ) 0U;
   81dc8:	f64a 20f0 	movw	r0, #43760	; 0xaaf0
   81dcc:	f2c2 0007 	movt	r0, #8199	; 0x2007
   81dd0:	f04f 0100 	mov.w	r1, #0
   81dd4:	6001      	str	r1, [r0, #0]
		the run time counter time base. */
		portCONFIGURE_TIMER_FOR_RUN_TIME_STATS();

		/* Setting up the timer tick is hardware specific and thus in the
		portable interface. */
		if( xPortStartScheduler() != pdFALSE )
   81dd6:	f241 13e9 	movw	r3, #4585	; 0x11e9
   81dda:	f2c0 0308 	movt	r3, #8
   81dde:	4798      	blx	r3
   81de0:	e007      	b.n	81df2 <vTaskStartScheduler+0x82>
			/* Should only reach here if a task calls xTaskEndScheduler(). */
		}
	}

	/* This line will only be reached if the kernel could not be started. */
	configASSERT( xReturn );
   81de2:	b930      	cbnz	r0, 81df2 <vTaskStartScheduler+0x82>
   81de4:	f241 00f5 	movw	r0, #4341	; 0x10f5
   81de8:	f2c0 0008 	movt	r0, #8
   81dec:	4780      	blx	r0
   81dee:	bf00      	nop
   81df0:	e7fd      	b.n	81dee <vTaskStartScheduler+0x7e>
}
   81df2:	b004      	add	sp, #16
   81df4:	bd10      	pop	{r4, pc}
   81df6:	bf00      	nop

00081df8 <vTaskSuspendAll>:

void vTaskSuspendAll( void )
{
	/* A critical section is not required as the variable is of type
	portBASE_TYPE. */
	++uxSchedulerSuspended;
   81df8:	f64a 23d0 	movw	r3, #43728	; 0xaad0
   81dfc:	f2c2 0307 	movt	r3, #8199	; 0x2007
   81e00:	681a      	ldr	r2, [r3, #0]
   81e02:	f102 0201 	add.w	r2, r2, #1
   81e06:	601a      	str	r2, [r3, #0]
   81e08:	4770      	bx	lr
   81e0a:	bf00      	nop

00081e0c <xTaskGetTickCount>:
 *----------------------------------------------------------*/



portTickType xTaskGetTickCount( void )
{
   81e0c:	b510      	push	{r4, lr}
portTickType xTicks;

	/* Critical section required if running on a 16 bit processor. */
	taskENTER_CRITICAL();
   81e0e:	f241 1309 	movw	r3, #4361	; 0x1109
   81e12:	f2c0 0308 	movt	r3, #8
   81e16:	4798      	blx	r3
	{
		xTicks = xTickCount;
   81e18:	f64a 20f0 	movw	r0, #43760	; 0xaaf0
   81e1c:	f2c2 0007 	movt	r0, #8199	; 0x2007
   81e20:	6804      	ldr	r4, [r0, #0]
	}
	taskEXIT_CRITICAL();
   81e22:	f241 1131 	movw	r1, #4401	; 0x1131
   81e26:	f2c0 0108 	movt	r1, #8
   81e2a:	4788      	blx	r1

	return xTicks;
}
   81e2c:	4620      	mov	r0, r4
   81e2e:	bd10      	pop	{r4, pc}

00081e30 <vTaskIncrementTick>:
 * SCHEDULER INTERNALS AVAILABLE FOR PORTING PURPOSES
 * documented in task.h
 *----------------------------------------------------------*/

void vTaskIncrementTick( void )
{
   81e30:	e92d 4ff8 	stmdb	sp!, {r3, r4, r5, r6, r7, r8, r9, sl, fp, lr}

	/* Called by the portable layer each time a tick interrupt occurs.
	Increments the tick then checks to see if the new tick value will cause any
	tasks to be unblocked. */
	traceTASK_INCREMENT_TICK( xTickCount );
	if( uxSchedulerSuspended == ( unsigned portBASE_TYPE ) pdFALSE )
   81e34:	f64a 23d0 	movw	r3, #43728	; 0xaad0
   81e38:	f2c2 0307 	movt	r3, #8199	; 0x2007
   81e3c:	6818      	ldr	r0, [r3, #0]
   81e3e:	2800      	cmp	r0, #0
   81e40:	f040 80b3 	bne.w	81faa <vTaskIncrementTick+0x17a>
	{
		++xTickCount;
   81e44:	f64a 23f0 	movw	r3, #43760	; 0xaaf0
   81e48:	f2c2 0307 	movt	r3, #8199	; 0x2007
   81e4c:	6818      	ldr	r0, [r3, #0]
   81e4e:	f100 0001 	add.w	r0, r0, #1
   81e52:	6018      	str	r0, [r3, #0]
		if( xTickCount == ( portTickType ) 0U )
   81e54:	6819      	ldr	r1, [r3, #0]
   81e56:	2900      	cmp	r1, #0
   81e58:	d139      	bne.n	81ece <vTaskIncrementTick+0x9e>
			xList *pxTemp;

			/* Tick count has overflowed so we need to swap the delay lists.
			If there are any items in pxDelayedTaskList here then there is
			an error! */
			configASSERT( ( listLIST_IS_EMPTY( pxDelayedTaskList ) ) );
   81e5a:	f64a 2234 	movw	r2, #43572	; 0xaa34
   81e5e:	f2c2 0207 	movt	r2, #8199	; 0x2007
   81e62:	6813      	ldr	r3, [r2, #0]
   81e64:	6818      	ldr	r0, [r3, #0]
   81e66:	b130      	cbz	r0, 81e76 <vTaskIncrementTick+0x46>
   81e68:	f241 05f5 	movw	r5, #4341	; 0x10f5
   81e6c:	f2c0 0508 	movt	r5, #8
   81e70:	47a8      	blx	r5
   81e72:	bf00      	nop
   81e74:	e7fd      	b.n	81e72 <vTaskIncrementTick+0x42>

			pxTemp = pxDelayedTaskList;
   81e76:	f64a 2334 	movw	r3, #43572	; 0xaa34
   81e7a:	f2c2 0307 	movt	r3, #8199	; 0x2007
   81e7e:	6819      	ldr	r1, [r3, #0]
			pxDelayedTaskList = pxOverflowDelayedTaskList;
   81e80:	f64a 22f4 	movw	r2, #43764	; 0xaaf4
   81e84:	f2c2 0207 	movt	r2, #8199	; 0x2007
   81e88:	6810      	ldr	r0, [r2, #0]
   81e8a:	6018      	str	r0, [r3, #0]
			pxOverflowDelayedTaskList = pxTemp;
   81e8c:	6011      	str	r1, [r2, #0]
			xNumOfOverflows++;
   81e8e:	f64a 22ec 	movw	r2, #43756	; 0xaaec
   81e92:	f2c2 0207 	movt	r2, #8199	; 0x2007
   81e96:	6811      	ldr	r1, [r2, #0]
   81e98:	f101 0101 	add.w	r1, r1, #1
   81e9c:	6011      	str	r1, [r2, #0]

			if( listLIST_IS_EMPTY( pxDelayedTaskList ) != pdFALSE )
   81e9e:	681b      	ldr	r3, [r3, #0]
   81ea0:	6818      	ldr	r0, [r3, #0]
   81ea2:	b938      	cbnz	r0, 81eb4 <vTaskIncrementTick+0x84>
				/* The new current delayed list is empty.  Set
				xNextTaskUnblockTime to the maximum possible value so it is
				extremely unlikely that the
				if( xTickCount >= xNextTaskUnblockTime ) test will pass until
				there is an item in the delayed list. */
				xNextTaskUnblockTime = portMAX_DELAY;
   81ea4:	f240 0310 	movw	r3, #16
   81ea8:	f2c2 0307 	movt	r3, #8199	; 0x2007
   81eac:	f04f 30ff 	mov.w	r0, #4294967295
   81eb0:	6018      	str	r0, [r3, #0]
   81eb2:	e00c      	b.n	81ece <vTaskIncrementTick+0x9e>
			{
				/* The new current delayed list is not empty, get the value of
				the item at the head of the delayed list.  This is the time at
				which the task at the head of the delayed list should be removed
				from the Blocked state. */
				pxTCB = ( tskTCB * ) listGET_OWNER_OF_HEAD_ENTRY( pxDelayedTaskList );
   81eb4:	f64a 2234 	movw	r2, #43572	; 0xaa34
   81eb8:	f2c2 0207 	movt	r2, #8199	; 0x2007
   81ebc:	6811      	ldr	r1, [r2, #0]
   81ebe:	68cb      	ldr	r3, [r1, #12]
   81ec0:	68d8      	ldr	r0, [r3, #12]
				xNextTaskUnblockTime = listGET_LIST_ITEM_VALUE( &( pxTCB->xGenericListItem ) );
   81ec2:	6842      	ldr	r2, [r0, #4]
   81ec4:	f240 0110 	movw	r1, #16
   81ec8:	f2c2 0107 	movt	r1, #8199	; 0x2007
   81ecc:	600a      	str	r2, [r1, #0]
			}
		}

		/* See if this tick has made a timeout expire. */
		prvCheckDelayedTasks();
   81ece:	f64a 22f0 	movw	r2, #43760	; 0xaaf0
   81ed2:	f2c2 0207 	movt	r2, #8199	; 0x2007
   81ed6:	6811      	ldr	r1, [r2, #0]
   81ed8:	f240 0310 	movw	r3, #16
   81edc:	f2c2 0307 	movt	r3, #8199	; 0x2007
   81ee0:	6818      	ldr	r0, [r3, #0]
   81ee2:	4281      	cmp	r1, r0
   81ee4:	d369      	bcc.n	81fba <vTaskIncrementTick+0x18a>
   81ee6:	f64a 2234 	movw	r2, #43572	; 0xaa34
   81eea:	f2c2 0207 	movt	r2, #8199	; 0x2007
   81eee:	6811      	ldr	r1, [r2, #0]
   81ef0:	680b      	ldr	r3, [r1, #0]
   81ef2:	b17b      	cbz	r3, 81f14 <vTaskIncrementTick+0xe4>
   81ef4:	f64a 2434 	movw	r4, #43572	; 0xaa34
   81ef8:	f2c2 0407 	movt	r4, #8199	; 0x2007
   81efc:	6820      	ldr	r0, [r4, #0]
   81efe:	68c2      	ldr	r2, [r0, #12]
   81f00:	68d4      	ldr	r4, [r2, #12]
   81f02:	6863      	ldr	r3, [r4, #4]
   81f04:	f64a 21f0 	movw	r1, #43760	; 0xaaf0
   81f08:	f2c2 0107 	movt	r1, #8199	; 0x2007
   81f0c:	6808      	ldr	r0, [r1, #0]
   81f0e:	4283      	cmp	r3, r0
   81f10:	d91a      	bls.n	81f48 <vTaskIncrementTick+0x118>
   81f12:	e012      	b.n	81f3a <vTaskIncrementTick+0x10a>
   81f14:	f240 0310 	movw	r3, #16
   81f18:	f2c2 0307 	movt	r3, #8199	; 0x2007
   81f1c:	f04f 30ff 	mov.w	r0, #4294967295
   81f20:	6018      	str	r0, [r3, #0]
   81f22:	e8bd 8ff8 	ldmia.w	sp!, {r3, r4, r5, r6, r7, r8, r9, sl, fp, pc}
   81f26:	6834      	ldr	r4, [r6, #0]
   81f28:	68e2      	ldr	r2, [r4, #12]
   81f2a:	68d4      	ldr	r4, [r2, #12]
   81f2c:	6863      	ldr	r3, [r4, #4]
   81f2e:	4648      	mov	r0, r9
   81f30:	f2c2 0007 	movt	r0, #8199	; 0x2007
   81f34:	6801      	ldr	r1, [r0, #0]
   81f36:	428b      	cmp	r3, r1
   81f38:	d91c      	bls.n	81f74 <vTaskIncrementTick+0x144>
   81f3a:	f240 0210 	movw	r2, #16
   81f3e:	f2c2 0207 	movt	r2, #8199	; 0x2007
   81f42:	6013      	str	r3, [r2, #0]
   81f44:	e8bd 8ff8 	ldmia.w	sp!, {r3, r4, r5, r6, r7, r8, r9, sl, fp, pc}
   81f48:	f241 0765 	movw	r7, #4197	; 0x1065
   81f4c:	f2c0 0708 	movt	r7, #8
   81f50:	f64a 2868 	movw	r8, #43624	; 0xaa68
   81f54:	f2c2 0807 	movt	r8, #8199	; 0x2007
   81f58:	f64a 2b6c 	movw	fp, #43628	; 0xaa6c
   81f5c:	f2c2 0b07 	movt	fp, #8199	; 0x2007
   81f60:	f241 0a09 	movw	sl, #4105	; 0x1009
   81f64:	f2c0 0a08 	movt	sl, #8
   81f68:	f64a 2634 	movw	r6, #43572	; 0xaa34
   81f6c:	f2c2 0607 	movt	r6, #8199	; 0x2007
   81f70:	f64a 29f0 	movw	r9, #43760	; 0xaaf0
   81f74:	f104 0504 	add.w	r5, r4, #4
   81f78:	4628      	mov	r0, r5
   81f7a:	47b8      	blx	r7
   81f7c:	6aa3      	ldr	r3, [r4, #40]	; 0x28
   81f7e:	b113      	cbz	r3, 81f86 <vTaskIncrementTick+0x156>
   81f80:	f104 0018 	add.w	r0, r4, #24
   81f84:	47b8      	blx	r7
   81f86:	6ae1      	ldr	r1, [r4, #44]	; 0x2c
   81f88:	f8d8 2000 	ldr.w	r2, [r8]
   81f8c:	4291      	cmp	r1, r2
   81f8e:	bf88      	it	hi
   81f90:	f8c8 1000 	strhi.w	r1, [r8]
   81f94:	eb01 0081 	add.w	r0, r1, r1, lsl #2
   81f98:	eb0b 0080 	add.w	r0, fp, r0, lsl #2
   81f9c:	4629      	mov	r1, r5
   81f9e:	47d0      	blx	sl
   81fa0:	6833      	ldr	r3, [r6, #0]
   81fa2:	6819      	ldr	r1, [r3, #0]
   81fa4:	2900      	cmp	r1, #0
   81fa6:	d1be      	bne.n	81f26 <vTaskIncrementTick+0xf6>
   81fa8:	e7b4      	b.n	81f14 <vTaskIncrementTick+0xe4>
	}
	else
	{
		++uxMissedTicks;
   81faa:	f64a 211c 	movw	r1, #43548	; 0xaa1c
   81fae:	f2c2 0107 	movt	r1, #8199	; 0x2007
   81fb2:	680a      	ldr	r2, [r1, #0]
   81fb4:	f102 0201 	add.w	r2, r2, #1
   81fb8:	600a      	str	r2, [r1, #0]
   81fba:	e8bd 8ff8 	ldmia.w	sp!, {r3, r4, r5, r6, r7, r8, r9, sl, fp, pc}
   81fbe:	bf00      	nop

00081fc0 <xTaskResumeAll>:

#endif /* configUSE_TICKLESS_IDLE != 0  */
/*----------------------------------------------------------*/

signed portBASE_TYPE xTaskResumeAll( void )
{
   81fc0:	e92d 47f0 	stmdb	sp!, {r4, r5, r6, r7, r8, r9, sl, lr}
register tskTCB *pxTCB;
signed portBASE_TYPE xAlreadyYielded = pdFALSE;

	/* If uxSchedulerSuspended is zero then this function does not match a
	previous call to vTaskSuspendAll(). */
	configASSERT( uxSchedulerSuspended );
   81fc4:	f64a 23d0 	movw	r3, #43728	; 0xaad0
   81fc8:	f2c2 0307 	movt	r3, #8199	; 0x2007
   81fcc:	6818      	ldr	r0, [r3, #0]
   81fce:	b930      	cbnz	r0, 81fde <xTaskResumeAll+0x1e>
   81fd0:	f241 05f5 	movw	r5, #4341	; 0x10f5
   81fd4:	f2c0 0508 	movt	r5, #8
   81fd8:	47a8      	blx	r5
   81fda:	bf00      	nop
   81fdc:	e7fd      	b.n	81fda <xTaskResumeAll+0x1a>
	/* It is possible that an ISR caused a task to be removed from an event
	list while the scheduler was suspended.  If this was the case then the
	removed task will have been added to the xPendingReadyList.  Once the
	scheduler has been resumed it is safe to move all the pending ready
	tasks from this list into their appropriate ready list. */
	taskENTER_CRITICAL();
   81fde:	f241 1109 	movw	r1, #4361	; 0x1109
   81fe2:	f2c0 0108 	movt	r1, #8
   81fe6:	4788      	blx	r1
	{
		--uxSchedulerSuspended;
   81fe8:	f64a 24d0 	movw	r4, #43728	; 0xaad0
   81fec:	f2c2 0407 	movt	r4, #8199	; 0x2007
   81ff0:	6822      	ldr	r2, [r4, #0]
   81ff2:	f102 33ff 	add.w	r3, r2, #4294967295
   81ff6:	6023      	str	r3, [r4, #0]

		if( uxSchedulerSuspended == ( unsigned portBASE_TYPE ) pdFALSE )
   81ff8:	6820      	ldr	r0, [r4, #0]
   81ffa:	2800      	cmp	r0, #0
   81ffc:	d178      	bne.n	820f0 <xTaskResumeAll+0x130>
		{
			if( uxCurrentNumberOfTasks > ( unsigned portBASE_TYPE ) 0U )
   81ffe:	f64a 3114 	movw	r1, #43796	; 0xab14
   82002:	f2c2 0107 	movt	r1, #8199	; 0x2007
   82006:	680c      	ldr	r4, [r1, #0]
   82008:	bb4c      	cbnz	r4, 8205e <xTaskResumeAll+0x9e>
/*----------------------------------------------------------*/

signed portBASE_TYPE xTaskResumeAll( void )
{
register tskTCB *pxTCB;
signed portBASE_TYPE xAlreadyYielded = pdFALSE;
   8200a:	f04f 0400 	mov.w	r4, #0
   8200e:	e074      	b.n	820fa <xTaskResumeAll+0x13a>

				/* Move any readied tasks from the pending list into the
				appropriate ready list. */
				while( listLIST_IS_EMPTY( ( xList * ) &xPendingReadyList ) == pdFALSE )
				{
					pxTCB = ( tskTCB * ) listGET_OWNER_OF_HEAD_ENTRY(  ( ( xList * ) &xPendingReadyList ) );
   82010:	f8d8 200c 	ldr.w	r2, [r8, #12]
   82014:	68d4      	ldr	r4, [r2, #12]
					uxListRemove( &( pxTCB->xEventListItem ) );
   82016:	f104 0018 	add.w	r0, r4, #24
   8201a:	47b8      	blx	r7
					uxListRemove( &( pxTCB->xGenericListItem ) );
   8201c:	f104 0904 	add.w	r9, r4, #4
   82020:	4648      	mov	r0, r9
   82022:	47b8      	blx	r7
					prvAddTaskToReadyQueue( pxTCB );
   82024:	6ae3      	ldr	r3, [r4, #44]	; 0x2c
   82026:	6830      	ldr	r0, [r6, #0]
   82028:	4283      	cmp	r3, r0
   8202a:	bf88      	it	hi
   8202c:	6033      	strhi	r3, [r6, #0]
   8202e:	4651      	mov	r1, sl
   82030:	f2c2 0107 	movt	r1, #8199	; 0x2007
   82034:	eb03 0283 	add.w	r2, r3, r3, lsl #2
   82038:	eb01 0082 	add.w	r0, r1, r2, lsl #2
   8203c:	4649      	mov	r1, r9
   8203e:	f241 0309 	movw	r3, #4105	; 0x1009
   82042:	f2c0 0308 	movt	r3, #8
   82046:	4798      	blx	r3

					/* If we have moved a task that has a priority higher than
					the current task then we should yield. */
					if( pxTCB->uxPriority >= pxCurrentTCB->uxPriority )
   82048:	f64a 20d4 	movw	r0, #43732	; 0xaad4
   8204c:	f2c2 0007 	movt	r0, #8199	; 0x2007
   82050:	6801      	ldr	r1, [r0, #0]
   82052:	6ae4      	ldr	r4, [r4, #44]	; 0x2c
   82054:	6aca      	ldr	r2, [r1, #44]	; 0x2c
					{
						xYieldRequired = pdTRUE;
   82056:	4294      	cmp	r4, r2
   82058:	bf28      	it	cs
   8205a:	2501      	movcs	r5, #1
   8205c:	e00f      	b.n	8207e <xTaskResumeAll+0xbe>
	{
		--uxSchedulerSuspended;

		if( uxSchedulerSuspended == ( unsigned portBASE_TYPE ) pdFALSE )
		{
			if( uxCurrentNumberOfTasks > ( unsigned portBASE_TYPE ) 0U )
   8205e:	f04f 0500 	mov.w	r5, #0
			{
				portBASE_TYPE xYieldRequired = pdFALSE;

				/* Move any readied tasks from the pending list into the
				appropriate ready list. */
				while( listLIST_IS_EMPTY( ( xList * ) &xPendingReadyList ) == pdFALSE )
   82062:	f64a 28d8 	movw	r8, #43736	; 0xaad8
   82066:	f2c2 0807 	movt	r8, #8199	; 0x2007
				{
					pxTCB = ( tskTCB * ) listGET_OWNER_OF_HEAD_ENTRY(  ( ( xList * ) &xPendingReadyList ) );
					uxListRemove( &( pxTCB->xEventListItem ) );
   8206a:	f241 0765 	movw	r7, #4197	; 0x1065
   8206e:	f2c0 0708 	movt	r7, #8
					uxListRemove( &( pxTCB->xGenericListItem ) );
					prvAddTaskToReadyQueue( pxTCB );
   82072:	f64a 2668 	movw	r6, #43624	; 0xaa68
   82076:	f2c2 0607 	movt	r6, #8199	; 0x2007
   8207a:	f64a 2a6c 	movw	sl, #43628	; 0xaa6c
			{
				portBASE_TYPE xYieldRequired = pdFALSE;

				/* Move any readied tasks from the pending list into the
				appropriate ready list. */
				while( listLIST_IS_EMPTY( ( xList * ) &xPendingReadyList ) == pdFALSE )
   8207e:	f8d8 2000 	ldr.w	r2, [r8]
   82082:	2a00      	cmp	r2, #0
   82084:	d1c4      	bne.n	82010 <xTaskResumeAll+0x50>
				}

				/* If any ticks occurred while the scheduler was suspended then
				they should be processed now.  This ensures the tick count does not
				slip, and that any delayed tasks are resumed at the correct time. */
				if( uxMissedTicks > ( unsigned portBASE_TYPE ) 0U )
   82086:	f64a 231c 	movw	r3, #43548	; 0xaa1c
   8208a:	f2c2 0307 	movt	r3, #8199	; 0x2007
   8208e:	6818      	ldr	r0, [r3, #0]
   82090:	b1b0      	cbz	r0, 820c0 <xTaskResumeAll+0x100>
				{
					while( uxMissedTicks > ( unsigned portBASE_TYPE ) 0U )
   82092:	f64a 221c 	movw	r2, #43548	; 0xaa1c
   82096:	f2c2 0207 	movt	r2, #8199	; 0x2007
   8209a:	6813      	ldr	r3, [r2, #0]
   8209c:	b1cb      	cbz	r3, 820d2 <xTaskResumeAll+0x112>
					{
						vTaskIncrementTick();
   8209e:	f641 6531 	movw	r5, #7729	; 0x1e31
   820a2:	f2c0 0508 	movt	r5, #8
						--uxMissedTicks;
   820a6:	f64a 241c 	movw	r4, #43548	; 0xaa1c
   820aa:	f2c2 0407 	movt	r4, #8199	; 0x2007
				slip, and that any delayed tasks are resumed at the correct time. */
				if( uxMissedTicks > ( unsigned portBASE_TYPE ) 0U )
				{
					while( uxMissedTicks > ( unsigned portBASE_TYPE ) 0U )
					{
						vTaskIncrementTick();
   820ae:	47a8      	blx	r5
						--uxMissedTicks;
   820b0:	6820      	ldr	r0, [r4, #0]
   820b2:	f100 31ff 	add.w	r1, r0, #4294967295
   820b6:	6021      	str	r1, [r4, #0]
				/* If any ticks occurred while the scheduler was suspended then
				they should be processed now.  This ensures the tick count does not
				slip, and that any delayed tasks are resumed at the correct time. */
				if( uxMissedTicks > ( unsigned portBASE_TYPE ) 0U )
				{
					while( uxMissedTicks > ( unsigned portBASE_TYPE ) 0U )
   820b8:	6822      	ldr	r2, [r4, #0]
   820ba:	2a00      	cmp	r2, #0
   820bc:	d1f7      	bne.n	820ae <xTaskResumeAll+0xee>
   820be:	e008      	b.n	820d2 <xTaskResumeAll+0x112>
						xYieldRequired = pdTRUE;
					}
					#endif
				}

				if( ( xYieldRequired == pdTRUE ) || ( xMissedYield == pdTRUE ) )
   820c0:	2d01      	cmp	r5, #1
   820c2:	d006      	beq.n	820d2 <xTaskResumeAll+0x112>
   820c4:	f64a 3110 	movw	r1, #43792	; 0xab10
   820c8:	f2c2 0107 	movt	r1, #8199	; 0x2007
   820cc:	680c      	ldr	r4, [r1, #0]
   820ce:	2c01      	cmp	r4, #1
   820d0:	d111      	bne.n	820f6 <xTaskResumeAll+0x136>
				{
					xAlreadyYielded = pdTRUE;
					xMissedYield = pdFALSE;
   820d2:	f64a 3310 	movw	r3, #43792	; 0xab10
   820d6:	f2c2 0307 	movt	r3, #8199	; 0x2007
   820da:	f04f 0400 	mov.w	r4, #0
   820de:	601c      	str	r4, [r3, #0]
					portYIELD_WITHIN_API();
   820e0:	f241 00e5 	movw	r0, #4325	; 0x10e5
   820e4:	f2c0 0008 	movt	r0, #8
   820e8:	4780      	blx	r0
					#endif
				}

				if( ( xYieldRequired == pdTRUE ) || ( xMissedYield == pdTRUE ) )
				{
					xAlreadyYielded = pdTRUE;
   820ea:	f04f 0401 	mov.w	r4, #1
   820ee:	e004      	b.n	820fa <xTaskResumeAll+0x13a>
/*----------------------------------------------------------*/

signed portBASE_TYPE xTaskResumeAll( void )
{
register tskTCB *pxTCB;
signed portBASE_TYPE xAlreadyYielded = pdFALSE;
   820f0:	f04f 0400 	mov.w	r4, #0
   820f4:	e001      	b.n	820fa <xTaskResumeAll+0x13a>
   820f6:	f04f 0400 	mov.w	r4, #0
					portYIELD_WITHIN_API();
				}
			}
		}
	}
	taskEXIT_CRITICAL();
   820fa:	f241 1131 	movw	r1, #4401	; 0x1131
   820fe:	f2c0 0108 	movt	r1, #8
   82102:	4788      	blx	r1

	return xAlreadyYielded;
}
   82104:	4620      	mov	r0, r4
   82106:	e8bd 87f0 	ldmia.w	sp!, {r4, r5, r6, r7, r8, r9, sl, pc}
   8210a:	bf00      	nop

0008210c <prvIdleTask>:
 *
 * void prvIdleTask( void *pvParameters );
 *
 */
static portTASK_FUNCTION( prvIdleTask, pvParameters )
{
   8210c:	e92d 43f8 	stmdb	sp!, {r3, r4, r5, r6, r7, r8, r9, lr}
	{
		portBASE_TYPE xListIsEmpty;

		/* ucTasksDeleted is used to prevent vTaskSuspendAll() being called
		too often in the idle task. */
		while( uxTasksDeleted > ( unsigned portBASE_TYPE ) 0U )
   82110:	f64a 253c 	movw	r5, #43580	; 0xaa3c
   82114:	f2c2 0507 	movt	r5, #8199	; 0x2007
		{
			vTaskSuspendAll();
   82118:	f641 58f9 	movw	r8, #7673	; 0x1df9
   8211c:	f2c0 0808 	movt	r8, #8
				xListIsEmpty = listLIST_IS_EMPTY( &xTasksWaitingTermination );
   82120:	f64a 2640 	movw	r6, #43584	; 0xaa40
   82124:	f2c2 0607 	movt	r6, #8199	; 0x2007
			xTaskResumeAll();
   82128:	f641 77c1 	movw	r7, #8129	; 0x1fc1
   8212c:	e02d      	b.n	8218a <prvIdleTask+0x7e>

		/* ucTasksDeleted is used to prevent vTaskSuspendAll() being called
		too often in the idle task. */
		while( uxTasksDeleted > ( unsigned portBASE_TYPE ) 0U )
		{
			vTaskSuspendAll();
   8212e:	47c0      	blx	r8
				xListIsEmpty = listLIST_IS_EMPTY( &xTasksWaitingTermination );
   82130:	6834      	ldr	r4, [r6, #0]
			xTaskResumeAll();
   82132:	463b      	mov	r3, r7
   82134:	f2c0 0308 	movt	r3, #8
   82138:	4798      	blx	r3

			if( xListIsEmpty == pdFALSE )
   8213a:	b334      	cbz	r4, 8218a <prvIdleTask+0x7e>
			{
				tskTCB *pxTCB;

				taskENTER_CRITICAL();
   8213c:	f241 1009 	movw	r0, #4361	; 0x1109
   82140:	f2c0 0008 	movt	r0, #8
   82144:	4780      	blx	r0
				{
					pxTCB = ( tskTCB * ) listGET_OWNER_OF_HEAD_ENTRY( ( ( xList * ) &xTasksWaitingTermination ) );
   82146:	68f1      	ldr	r1, [r6, #12]
   82148:	68cc      	ldr	r4, [r1, #12]
					uxListRemove( &( pxTCB->xGenericListItem ) );
   8214a:	f104 0004 	add.w	r0, r4, #4
   8214e:	f241 0265 	movw	r2, #4197	; 0x1065
   82152:	f2c0 0208 	movt	r2, #8
   82156:	4790      	blx	r2
					--uxCurrentNumberOfTasks;
   82158:	f64a 3314 	movw	r3, #43796	; 0xab14
   8215c:	f2c2 0307 	movt	r3, #8199	; 0x2007
   82160:	6818      	ldr	r0, [r3, #0]
   82162:	f100 31ff 	add.w	r1, r0, #4294967295
   82166:	6019      	str	r1, [r3, #0]
					--uxTasksDeleted;
   82168:	682a      	ldr	r2, [r5, #0]
   8216a:	f102 33ff 	add.w	r3, r2, #4294967295
   8216e:	602b      	str	r3, [r5, #0]
				}
				taskEXIT_CRITICAL();
   82170:	f241 1031 	movw	r0, #4401	; 0x1131
   82174:	f2c0 0008 	movt	r0, #8
   82178:	4780      	blx	r0
		want to allocate and clean RAM statically. */
		portCLEAN_UP_TCB( pxTCB );

		/* Free up the memory allocated by the scheduler for the task.  It is up to
		the task to free any memory allocated at the application level. */
		vPortFreeAligned( pxTCB->pxStack );
   8217a:	6b20      	ldr	r0, [r4, #48]	; 0x30
   8217c:	f241 3985 	movw	r9, #4997	; 0x1385
   82180:	f2c0 0908 	movt	r9, #8
   82184:	47c8      	blx	r9
		vPortFree( pxTCB );
   82186:	4620      	mov	r0, r4
   82188:	47c8      	blx	r9
	{
		portBASE_TYPE xListIsEmpty;

		/* ucTasksDeleted is used to prevent vTaskSuspendAll() being called
		too often in the idle task. */
		while( uxTasksDeleted > ( unsigned portBASE_TYPE ) 0U )
   8218a:	682b      	ldr	r3, [r5, #0]
   8218c:	2b00      	cmp	r3, #0
   8218e:	d1ce      	bne.n	8212e <prvIdleTask+0x22>

			A critical region is not required here as we are just reading from
			the list, and an occasional incorrect value will not matter.  If
			the ready list at the idle priority contains more than one task
			then a task other than the idle task is ready to execute. */
			if( listCURRENT_LIST_LENGTH( &( pxReadyTasksLists[ tskIDLE_PRIORITY ] ) ) > ( unsigned portBASE_TYPE ) 1 )
   82190:	f64a 206c 	movw	r0, #43628	; 0xaa6c
   82194:	f2c2 0007 	movt	r0, #8199	; 0x2007
   82198:	6801      	ldr	r1, [r0, #0]
   8219a:	2901      	cmp	r1, #1
   8219c:	d9f5      	bls.n	8218a <prvIdleTask+0x7e>
			{
				taskYIELD();
   8219e:	f241 02e5 	movw	r2, #4325	; 0x10e5
   821a2:	f2c0 0208 	movt	r2, #8
   821a6:	4790      	blx	r2
   821a8:	e7ef      	b.n	8218a <prvIdleTask+0x7e>
   821aa:	bf00      	nop

000821ac <vTaskDelayUntil>:
 *----------------------------------------------------------*/

#if ( INCLUDE_vTaskDelayUntil == 1 )

	void vTaskDelayUntil( portTickType * const pxPreviousWakeTime, portTickType xTimeIncrement )
	{
   821ac:	b538      	push	{r3, r4, r5, lr}
   821ae:	460c      	mov	r4, r1
	portTickType xTimeToWake;
	portBASE_TYPE xAlreadyYielded, xShouldDelay = pdFALSE;

		configASSERT( pxPreviousWakeTime );
   821b0:	4605      	mov	r5, r0
   821b2:	b930      	cbnz	r0, 821c2 <vTaskDelayUntil+0x16>
   821b4:	f241 04f5 	movw	r4, #4341	; 0x10f5
   821b8:	f2c0 0408 	movt	r4, #8
   821bc:	47a0      	blx	r4
   821be:	bf00      	nop
   821c0:	e7fd      	b.n	821be <vTaskDelayUntil+0x12>
		configASSERT( ( xTimeIncrement > 0U ) );
   821c2:	b931      	cbnz	r1, 821d2 <vTaskDelayUntil+0x26>
   821c4:	f241 05f5 	movw	r5, #4341	; 0x10f5
   821c8:	f2c0 0508 	movt	r5, #8
   821cc:	47a8      	blx	r5
   821ce:	bf00      	nop
   821d0:	e7fd      	b.n	821ce <vTaskDelayUntil+0x22>

		vTaskSuspendAll();
   821d2:	f641 53f9 	movw	r3, #7673	; 0x1df9
   821d6:	f2c0 0308 	movt	r3, #8
   821da:	4798      	blx	r3
		{
			/* Generate the tick time at which the task wants to wake. */
			xTimeToWake = *pxPreviousWakeTime + xTimeIncrement;
   821dc:	6828      	ldr	r0, [r5, #0]
   821de:	1904      	adds	r4, r0, r4

			if( xTickCount < *pxPreviousWakeTime )
   821e0:	f64a 22f0 	movw	r2, #43760	; 0xaaf0
   821e4:	f2c2 0207 	movt	r2, #8199	; 0x2007
   821e8:	6811      	ldr	r1, [r2, #0]
   821ea:	4288      	cmp	r0, r1
   821ec:	d90a      	bls.n	82204 <vTaskDelayUntil+0x58>
				/* The tick count has overflowed since this function was
				lasted called.  In this case the only time we should ever
				actually delay is if the wake time has also	overflowed,
				and the wake time is greater than the tick time.  When this
				is the case it is as if neither time had overflowed. */
				if( ( xTimeToWake < *pxPreviousWakeTime ) && ( xTimeToWake > xTickCount ) )
   821ee:	42a0      	cmp	r0, r4
   821f0:	d932      	bls.n	82258 <vTaskDelayUntil+0xac>
   821f2:	f64a 22f0 	movw	r2, #43760	; 0xaaf0
   821f6:	f2c2 0207 	movt	r2, #8199	; 0x2007
   821fa:	6811      	ldr	r1, [r2, #0]
					xShouldDelay = pdTRUE;
				}
			}

			/* Update the wake time ready for the next call. */
			*pxPreviousWakeTime = xTimeToWake;
   821fc:	602c      	str	r4, [r5, #0]

			if( xShouldDelay != pdFALSE )
   821fe:	428c      	cmp	r4, r1
   82200:	d91c      	bls.n	8223c <vTaskDelayUntil+0x90>
   82202:	e009      	b.n	82218 <vTaskDelayUntil+0x6c>
			else
			{
				/* The tick time has not overflowed.  In this case we will
				delay if either the wake time has overflowed, and/or the
				tick time is less than the wake time. */
				if( ( xTimeToWake < *pxPreviousWakeTime ) || ( xTimeToWake > xTickCount ) )
   82204:	42a0      	cmp	r0, r4
   82206:	d825      	bhi.n	82254 <vTaskDelayUntil+0xa8>
   82208:	f64a 23f0 	movw	r3, #43760	; 0xaaf0
   8220c:	f2c2 0307 	movt	r3, #8199	; 0x2007
   82210:	6818      	ldr	r0, [r3, #0]
   82212:	4284      	cmp	r4, r0
   82214:	d81e      	bhi.n	82254 <vTaskDelayUntil+0xa8>
   82216:	e01f      	b.n	82258 <vTaskDelayUntil+0xac>
				traceTASK_DELAY_UNTIL();

				/* We must remove ourselves from the ready list before adding
				ourselves to the blocked list as the same list item is used for
				both lists. */
				if( uxListRemove( ( xListItem * ) &( pxCurrentTCB->xGenericListItem ) ) == 0 )
   82218:	f64a 23d4 	movw	r3, #43732	; 0xaad4
   8221c:	f2c2 0307 	movt	r3, #8199	; 0x2007
   82220:	6818      	ldr	r0, [r3, #0]
   82222:	f100 0004 	add.w	r0, r0, #4
   82226:	f241 0265 	movw	r2, #4197	; 0x1065
   8222a:	f2c0 0208 	movt	r2, #8
   8222e:	4790      	blx	r2
					no need to check, and the port reset macro can be called
					directly. */
					portRESET_READY_PRIORITY( pxCurrentTCB->uxPriority, uxTopReadyPriority );
				}

				prvAddCurrentTaskToDelayedList( xTimeToWake );
   82230:	4620      	mov	r0, r4
   82232:	f641 2151 	movw	r1, #6737	; 0x1a51
   82236:	f2c0 0108 	movt	r1, #8
   8223a:	4788      	blx	r1
			}
		}
		xAlreadyYielded = xTaskResumeAll();
   8223c:	f641 70c1 	movw	r0, #8129	; 0x1fc1
   82240:	f2c0 0008 	movt	r0, #8
   82244:	4780      	blx	r0

		/* Force a reschedule if xTaskResumeAll has not already done so, we may
		have put ourselves to sleep. */
		if( xAlreadyYielded == pdFALSE )
   82246:	b948      	cbnz	r0, 8225c <vTaskDelayUntil+0xb0>
		{
			portYIELD_WITHIN_API();
   82248:	f241 03e5 	movw	r3, #4325	; 0x10e5
   8224c:	f2c0 0308 	movt	r3, #8
   82250:	4798      	blx	r3
   82252:	bd38      	pop	{r3, r4, r5, pc}
					xShouldDelay = pdTRUE;
				}
			}

			/* Update the wake time ready for the next call. */
			*pxPreviousWakeTime = xTimeToWake;
   82254:	602c      	str	r4, [r5, #0]
   82256:	e7df      	b.n	82218 <vTaskDelayUntil+0x6c>
   82258:	602c      	str	r4, [r5, #0]
   8225a:	e7ef      	b.n	8223c <vTaskDelayUntil+0x90>
   8225c:	bd38      	pop	{r3, r4, r5, pc}
   8225e:	bf00      	nop

00082260 <vTaskSwitchContext>:

#endif
/*-----------------------------------------------------------*/

void vTaskSwitchContext( void )
{
   82260:	b508      	push	{r3, lr}
	if( uxSchedulerSuspended != ( unsigned portBASE_TYPE ) pdFALSE )
   82262:	f64a 23d0 	movw	r3, #43728	; 0xaad0
   82266:	f2c2 0307 	movt	r3, #8199	; 0x2007
   8226a:	6818      	ldr	r0, [r3, #0]
   8226c:	b9a8      	cbnz	r0, 8229a <vTaskSwitchContext+0x3a>
		#endif

		taskFIRST_CHECK_FOR_STACK_OVERFLOW();
		taskSECOND_CHECK_FOR_STACK_OVERFLOW();

		taskSELECT_HIGHEST_PRIORITY_TASK();
   8226e:	f64a 2168 	movw	r1, #43624	; 0xaa68
   82272:	f2c2 0107 	movt	r1, #8199	; 0x2007
   82276:	680a      	ldr	r2, [r1, #0]
   82278:	eb02 0382 	add.w	r3, r2, r2, lsl #2
   8227c:	ea4f 0083 	mov.w	r0, r3, lsl #2
   82280:	f64a 216c 	movw	r1, #43628	; 0xaa6c
   82284:	f2c2 0107 	movt	r1, #8199	; 0x2007
   82288:	580a      	ldr	r2, [r1, r0]
   8228a:	bb52      	cbnz	r2, 822e2 <vTaskSwitchContext+0x82>
   8228c:	f64a 2368 	movw	r3, #43624	; 0xaa68
   82290:	f2c2 0307 	movt	r3, #8199	; 0x2007
   82294:	6818      	ldr	r0, [r3, #0]
   82296:	b988      	cbnz	r0, 822bc <vTaskSwitchContext+0x5c>
   82298:	e009      	b.n	822ae <vTaskSwitchContext+0x4e>
{
	if( uxSchedulerSuspended != ( unsigned portBASE_TYPE ) pdFALSE )
	{
		/* The scheduler is currently suspended - do not allow a context
		switch. */
		xMissedYield = pdTRUE;
   8229a:	f64a 3110 	movw	r1, #43792	; 0xab10
   8229e:	f2c2 0107 	movt	r1, #8199	; 0x2007
   822a2:	f04f 0001 	mov.w	r0, #1
   822a6:	6008      	str	r0, [r1, #0]
   822a8:	bd08      	pop	{r3, pc}
		#endif

		taskFIRST_CHECK_FOR_STACK_OVERFLOW();
		taskSECOND_CHECK_FOR_STACK_OVERFLOW();

		taskSELECT_HIGHEST_PRIORITY_TASK();
   822aa:	681a      	ldr	r2, [r3, #0]
   822ac:	b972      	cbnz	r2, 822cc <vTaskSwitchContext+0x6c>
   822ae:	f241 03f5 	movw	r3, #4341	; 0x10f5
   822b2:	f2c0 0308 	movt	r3, #8
   822b6:	4798      	blx	r3
   822b8:	bf00      	nop
   822ba:	e7fd      	b.n	822b8 <vTaskSwitchContext+0x58>
   822bc:	f64a 2368 	movw	r3, #43624	; 0xaa68
   822c0:	f2c2 0307 	movt	r3, #8199	; 0x2007
   822c4:	f64a 216c 	movw	r1, #43628	; 0xaa6c
   822c8:	f2c2 0107 	movt	r1, #8199	; 0x2007
   822cc:	681a      	ldr	r2, [r3, #0]
   822ce:	f102 30ff 	add.w	r0, r2, #4294967295
   822d2:	6018      	str	r0, [r3, #0]
   822d4:	681a      	ldr	r2, [r3, #0]
   822d6:	eb02 0082 	add.w	r0, r2, r2, lsl #2
   822da:	f851 2020 	ldr.w	r2, [r1, r0, lsl #2]
   822de:	2a00      	cmp	r2, #0
   822e0:	d0e3      	beq.n	822aa <vTaskSwitchContext+0x4a>
   822e2:	f64a 2368 	movw	r3, #43624	; 0xaa68
   822e6:	f2c2 0307 	movt	r3, #8199	; 0x2007
   822ea:	6819      	ldr	r1, [r3, #0]
   822ec:	eb01 0081 	add.w	r0, r1, r1, lsl #2
   822f0:	f64a 226c 	movw	r2, #43628	; 0xaa6c
   822f4:	f2c2 0207 	movt	r2, #8199	; 0x2007
   822f8:	eb02 0380 	add.w	r3, r2, r0, lsl #2
   822fc:	6859      	ldr	r1, [r3, #4]
   822fe:	6848      	ldr	r0, [r1, #4]
   82300:	6058      	str	r0, [r3, #4]
   82302:	f103 0208 	add.w	r2, r3, #8
   82306:	4290      	cmp	r0, r2
   82308:	bf04      	itt	eq
   8230a:	6840      	ldreq	r0, [r0, #4]
   8230c:	6058      	streq	r0, [r3, #4]
   8230e:	685b      	ldr	r3, [r3, #4]
   82310:	68d9      	ldr	r1, [r3, #12]
   82312:	f64a 20d4 	movw	r0, #43732	; 0xaad4
   82316:	f2c2 0007 	movt	r0, #8199	; 0x2007
   8231a:	6001      	str	r1, [r0, #0]
   8231c:	bd08      	pop	{r3, pc}
   8231e:	bf00      	nop

00082320 <vTaskPlaceOnEventList>:
	}
}
/*-----------------------------------------------------------*/

void vTaskPlaceOnEventList( const xList * const pxEventList, portTickType xTicksToWait )
{
   82320:	b538      	push	{r3, r4, r5, lr}
   82322:	460c      	mov	r4, r1
portTickType xTimeToWake;

	configASSERT( pxEventList );
   82324:	b930      	cbnz	r0, 82334 <vTaskPlaceOnEventList+0x14>
   82326:	f241 04f5 	movw	r4, #4341	; 0x10f5
   8232a:	f2c0 0408 	movt	r4, #8
   8232e:	47a0      	blx	r4
   82330:	bf00      	nop
   82332:	e7fd      	b.n	82330 <vTaskPlaceOnEventList+0x10>
	SCHEDULER SUSPENDED. */

	/* Place the event list item of the TCB in the appropriate event list.
	This is placed in the list in priority order so the highest priority task
	is the first to be woken by the event. */
	vListInsert( ( xList * ) pxEventList, ( xListItem * ) &( pxCurrentTCB->xEventListItem ) );
   82334:	f64a 25d4 	movw	r5, #43732	; 0xaad4
   82338:	f2c2 0507 	movt	r5, #8199	; 0x2007
   8233c:	6829      	ldr	r1, [r5, #0]
   8233e:	f101 0118 	add.w	r1, r1, #24
   82342:	f241 0229 	movw	r2, #4137	; 0x1029
   82346:	f2c0 0208 	movt	r2, #8
   8234a:	4790      	blx	r2

	/* We must remove ourselves from the ready list before adding ourselves
	to the blocked list as the same list item is used for both lists.  We have
	exclusive access to the ready lists as the scheduler is locked. */
	if( uxListRemove( ( xListItem * ) &( pxCurrentTCB->xGenericListItem ) ) == 0 )
   8234c:	6828      	ldr	r0, [r5, #0]
   8234e:	f100 0004 	add.w	r0, r0, #4
   82352:	f241 0165 	movw	r1, #4197	; 0x1065
   82356:	f2c0 0108 	movt	r1, #8
   8235a:	4788      	blx	r1
		portRESET_READY_PRIORITY( pxCurrentTCB->uxPriority, uxTopReadyPriority );
	}

	#if ( INCLUDE_vTaskSuspend == 1 )
	{
		if( xTicksToWait == portMAX_DELAY )
   8235c:	f1b4 3fff 	cmp.w	r4, #4294967295
   82360:	d10c      	bne.n	8237c <vTaskPlaceOnEventList+0x5c>
		{
			/* Add ourselves to the suspended task list instead of a delayed task
			list to ensure we are not woken by a timing event.  We will block
			indefinitely. */
			vListInsertEnd( ( xList * ) &xSuspendedTaskList, ( xListItem * ) &( pxCurrentTCB->xGenericListItem ) );
   82362:	6829      	ldr	r1, [r5, #0]
   82364:	f64a 2020 	movw	r0, #43552	; 0xaa20
   82368:	f2c2 0007 	movt	r0, #8199	; 0x2007
   8236c:	f101 0104 	add.w	r1, r1, #4
   82370:	f241 0309 	movw	r3, #4105	; 0x1009
   82374:	f2c0 0308 	movt	r3, #8
   82378:	4798      	blx	r3
   8237a:	bd38      	pop	{r3, r4, r5, pc}
		}
		else
		{
			/* Calculate the time at which the task should be woken if the event does
			not occur.  This may overflow but this doesn't matter. */
			xTimeToWake = xTickCount + xTicksToWait;
   8237c:	f64a 20f0 	movw	r0, #43760	; 0xaaf0
   82380:	f2c2 0007 	movt	r0, #8199	; 0x2007
   82384:	6803      	ldr	r3, [r0, #0]
			prvAddCurrentTaskToDelayedList( xTimeToWake );
   82386:	18e0      	adds	r0, r4, r3
   82388:	f641 2251 	movw	r2, #6737	; 0x1a51
   8238c:	f2c0 0208 	movt	r2, #8
   82390:	4790      	blx	r2
   82392:	bd38      	pop	{r3, r4, r5, pc}

00082394 <vTaskPlaceOnEventListRestricted>:
/*-----------------------------------------------------------*/

#if configUSE_TIMERS == 1

	void vTaskPlaceOnEventListRestricted( const xList * const pxEventList, portTickType xTicksToWait )
	{
   82394:	b538      	push	{r3, r4, r5, lr}
   82396:	460d      	mov	r5, r1
	portTickType xTimeToWake;

		configASSERT( pxEventList );
   82398:	b930      	cbnz	r0, 823a8 <vTaskPlaceOnEventListRestricted+0x14>
   8239a:	f241 04f5 	movw	r4, #4341	; 0x10f5
   8239e:	f2c0 0408 	movt	r4, #8
   823a2:	47a0      	blx	r4
   823a4:	bf00      	nop
   823a6:	e7fd      	b.n	823a4 <vTaskPlaceOnEventListRestricted+0x10>

		/* Place the event list item of the TCB in the appropriate event list.
		In this case it is assume that this is the only task that is going to
		be waiting on this event list, so the faster vListInsertEnd() function
		can be used in place of vListInsert. */
		vListInsertEnd( ( xList * ) pxEventList, ( xListItem * ) &( pxCurrentTCB->xEventListItem ) );
   823a8:	f64a 24d4 	movw	r4, #43732	; 0xaad4
   823ac:	f2c2 0407 	movt	r4, #8199	; 0x2007
   823b0:	6821      	ldr	r1, [r4, #0]
   823b2:	f101 0118 	add.w	r1, r1, #24
   823b6:	f241 0209 	movw	r2, #4105	; 0x1009
   823ba:	f2c0 0208 	movt	r2, #8
   823be:	4790      	blx	r2

		/* We must remove this task from the ready list before adding it to the
		blocked list as the same list item is used for both lists.  This
		function is called form a critical section. */
		if( uxListRemove( ( xListItem * ) &( pxCurrentTCB->xGenericListItem ) ) == 0 )
   823c0:	6820      	ldr	r0, [r4, #0]
   823c2:	f100 0004 	add.w	r0, r0, #4
   823c6:	f241 0165 	movw	r1, #4197	; 0x1065
   823ca:	f2c0 0108 	movt	r1, #8
   823ce:	4788      	blx	r1
			portRESET_READY_PRIORITY( pxCurrentTCB->uxPriority, uxTopReadyPriority );
		}

		/* Calculate the time at which the task should be woken if the event does
		not occur.  This may overflow but this doesn't matter. */
		xTimeToWake = xTickCount + xTicksToWait;
   823d0:	f64a 20f0 	movw	r0, #43760	; 0xaaf0
   823d4:	f2c2 0007 	movt	r0, #8199	; 0x2007
   823d8:	6803      	ldr	r3, [r0, #0]
		
		traceTASK_DELAY_UNTIL();
		prvAddCurrentTaskToDelayedList( xTimeToWake );
   823da:	18e8      	adds	r0, r5, r3
   823dc:	f641 2251 	movw	r2, #6737	; 0x1a51
   823e0:	f2c0 0208 	movt	r2, #8
   823e4:	4790      	blx	r2
   823e6:	bd38      	pop	{r3, r4, r5, pc}

000823e8 <xTaskRemoveFromEventList>:

#endif /* configUSE_TIMERS */
/*-----------------------------------------------------------*/

signed portBASE_TYPE xTaskRemoveFromEventList( const xList * const pxEventList )
{
   823e8:	b538      	push	{r3, r4, r5, lr}
	get called - the lock count on the queue will get modified instead.  This
	means we can always expect exclusive access to the event list here.

	This function assumes that a check has already been made to ensure that
	pxEventList is not empty. */
	pxUnblockedTCB = ( tskTCB * ) listGET_OWNER_OF_HEAD_ENTRY( pxEventList );
   823ea:	68c3      	ldr	r3, [r0, #12]
   823ec:	68dc      	ldr	r4, [r3, #12]
	configASSERT( pxUnblockedTCB );
   823ee:	b934      	cbnz	r4, 823fe <xTaskRemoveFromEventList+0x16>
   823f0:	f241 04f5 	movw	r4, #4341	; 0x10f5
   823f4:	f2c0 0408 	movt	r4, #8
   823f8:	47a0      	blx	r4
   823fa:	bf00      	nop
   823fc:	e7fd      	b.n	823fa <xTaskRemoveFromEventList+0x12>
	uxListRemove( &( pxUnblockedTCB->xEventListItem ) );
   823fe:	f104 0518 	add.w	r5, r4, #24
   82402:	4628      	mov	r0, r5
   82404:	f241 0165 	movw	r1, #4197	; 0x1065
   82408:	f2c0 0108 	movt	r1, #8
   8240c:	4788      	blx	r1

	if( uxSchedulerSuspended == ( unsigned portBASE_TYPE ) pdFALSE )
   8240e:	f64a 20d0 	movw	r0, #43728	; 0xaad0
   82412:	f2c2 0007 	movt	r0, #8199	; 0x2007
   82416:	6802      	ldr	r2, [r0, #0]
   82418:	bb22      	cbnz	r2, 82464 <xTaskRemoveFromEventList+0x7c>
	{
		uxListRemove( &( pxUnblockedTCB->xGenericListItem ) );
   8241a:	f104 0504 	add.w	r5, r4, #4
   8241e:	4628      	mov	r0, r5
   82420:	f241 0165 	movw	r1, #4197	; 0x1065
   82424:	f2c0 0108 	movt	r1, #8
   82428:	4788      	blx	r1
		prvAddTaskToReadyQueue( pxUnblockedTCB );
   8242a:	6ae0      	ldr	r0, [r4, #44]	; 0x2c
   8242c:	f64a 2268 	movw	r2, #43624	; 0xaa68
   82430:	f2c2 0207 	movt	r2, #8199	; 0x2007
   82434:	6813      	ldr	r3, [r2, #0]
   82436:	4298      	cmp	r0, r3
   82438:	d904      	bls.n	82444 <xTaskRemoveFromEventList+0x5c>
   8243a:	f64a 2168 	movw	r1, #43624	; 0xaa68
   8243e:	f2c2 0107 	movt	r1, #8199	; 0x2007
   82442:	6008      	str	r0, [r1, #0]
   82444:	eb00 0380 	add.w	r3, r0, r0, lsl #2
   82448:	f64a 206c 	movw	r0, #43628	; 0xaa6c
   8244c:	4602      	mov	r2, r0
   8244e:	f2c2 0207 	movt	r2, #8199	; 0x2007
   82452:	eb02 0083 	add.w	r0, r2, r3, lsl #2
   82456:	4629      	mov	r1, r5
   82458:	f241 0309 	movw	r3, #4105	; 0x1009
   8245c:	f2c0 0308 	movt	r3, #8
   82460:	4798      	blx	r3
   82462:	e009      	b.n	82478 <xTaskRemoveFromEventList+0x90>
	}
	else
	{
		/* We cannot access the delayed or ready lists, so will hold this
		task pending until the scheduler is resumed. */
		vListInsertEnd( ( xList * ) &( xPendingReadyList ), &( pxUnblockedTCB->xEventListItem ) );
   82464:	f64a 20d8 	movw	r0, #43736	; 0xaad8
   82468:	f2c2 0007 	movt	r0, #8199	; 0x2007
   8246c:	4629      	mov	r1, r5
   8246e:	f241 0309 	movw	r3, #4105	; 0x1009
   82472:	f2c0 0308 	movt	r3, #8
   82476:	4798      	blx	r3
	}

	if( pxUnblockedTCB->uxPriority >= pxCurrentTCB->uxPriority )
   82478:	f64a 21d4 	movw	r1, #43732	; 0xaad4
   8247c:	f2c2 0107 	movt	r1, #8199	; 0x2007
   82480:	680a      	ldr	r2, [r1, #0]
   82482:	6ae0      	ldr	r0, [r4, #44]	; 0x2c
   82484:	6ad3      	ldr	r3, [r2, #44]	; 0x2c
	{
		xReturn = pdFALSE;
	}

	return xReturn;
}
   82486:	4298      	cmp	r0, r3
   82488:	bf34      	ite	cc
   8248a:	2000      	movcc	r0, #0
   8248c:	2001      	movcs	r0, #1
   8248e:	bd38      	pop	{r3, r4, r5, pc}

00082490 <vTaskSetTimeOutState>:
/*-----------------------------------------------------------*/

void vTaskSetTimeOutState( xTimeOutType * const pxTimeOut )
{
   82490:	b508      	push	{r3, lr}
	configASSERT( pxTimeOut );
   82492:	4603      	mov	r3, r0
   82494:	b930      	cbnz	r0, 824a4 <vTaskSetTimeOutState+0x14>
   82496:	f241 03f5 	movw	r3, #4341	; 0x10f5
   8249a:	f2c0 0308 	movt	r3, #8
   8249e:	4798      	blx	r3
   824a0:	bf00      	nop
   824a2:	e7fd      	b.n	824a0 <vTaskSetTimeOutState+0x10>
	pxTimeOut->xOverflowCount = xNumOfOverflows;
   824a4:	f64a 22ec 	movw	r2, #43756	; 0xaaec
   824a8:	f2c2 0207 	movt	r2, #8199	; 0x2007
   824ac:	6810      	ldr	r0, [r2, #0]
   824ae:	6018      	str	r0, [r3, #0]
	pxTimeOut->xTimeOnEntering = xTickCount;
   824b0:	f64a 21f0 	movw	r1, #43760	; 0xaaf0
   824b4:	f2c2 0107 	movt	r1, #8199	; 0x2007
   824b8:	680a      	ldr	r2, [r1, #0]
   824ba:	605a      	str	r2, [r3, #4]
   824bc:	bd08      	pop	{r3, pc}
   824be:	bf00      	nop

000824c0 <xTaskCheckForTimeOut>:
}
/*-----------------------------------------------------------*/

portBASE_TYPE xTaskCheckForTimeOut( xTimeOutType * const pxTimeOut, portTickType * const pxTicksToWait )
{
   824c0:	b538      	push	{r3, r4, r5, lr}
   824c2:	460d      	mov	r5, r1
portBASE_TYPE xReturn;

	configASSERT( pxTimeOut );
   824c4:	4604      	mov	r4, r0
   824c6:	b930      	cbnz	r0, 824d6 <xTaskCheckForTimeOut+0x16>
   824c8:	f241 02f5 	movw	r2, #4341	; 0x10f5
   824cc:	f2c0 0208 	movt	r2, #8
   824d0:	4790      	blx	r2
   824d2:	bf00      	nop
   824d4:	e7fd      	b.n	824d2 <xTaskCheckForTimeOut+0x12>
	configASSERT( pxTicksToWait );
   824d6:	b931      	cbnz	r1, 824e6 <xTaskCheckForTimeOut+0x26>
   824d8:	f241 05f5 	movw	r5, #4341	; 0x10f5
   824dc:	f2c0 0508 	movt	r5, #8
   824e0:	47a8      	blx	r5
   824e2:	bf00      	nop
   824e4:	e7fd      	b.n	824e2 <xTaskCheckForTimeOut+0x22>

	taskENTER_CRITICAL();
   824e6:	f241 1309 	movw	r3, #4361	; 0x1109
   824ea:	f2c0 0308 	movt	r3, #8
   824ee:	4798      	blx	r3
	{
		#if ( INCLUDE_vTaskSuspend == 1 )
			/* If INCLUDE_vTaskSuspend is set to 1 and the block time specified is
			the maximum block time then the task should block indefinitely, and
			therefore never time out. */
			if( *pxTicksToWait == portMAX_DELAY )
   824f0:	6828      	ldr	r0, [r5, #0]
   824f2:	f1b0 3fff 	cmp.w	r0, #4294967295
   824f6:	d029      	beq.n	8254c <xTaskCheckForTimeOut+0x8c>
				xReturn = pdFALSE;
			}
			else /* We are not blocking indefinitely, perform the checks below. */
		#endif

		if( ( xNumOfOverflows != pxTimeOut->xOverflowCount ) && ( ( portTickType ) xTickCount >= ( portTickType ) pxTimeOut->xTimeOnEntering ) )
   824f8:	f64a 22ec 	movw	r2, #43756	; 0xaaec
   824fc:	f2c2 0207 	movt	r2, #8199	; 0x2007
   82500:	6811      	ldr	r1, [r2, #0]
   82502:	6823      	ldr	r3, [r4, #0]
   82504:	428b      	cmp	r3, r1
   82506:	d007      	beq.n	82518 <xTaskCheckForTimeOut+0x58>
   82508:	f64a 22f0 	movw	r2, #43760	; 0xaaf0
   8250c:	f2c2 0207 	movt	r2, #8199	; 0x2007
   82510:	6811      	ldr	r1, [r2, #0]
   82512:	6863      	ldr	r3, [r4, #4]
   82514:	428b      	cmp	r3, r1
   82516:	d91c      	bls.n	82552 <xTaskCheckForTimeOut+0x92>
			was called, but has also overflowed since vTaskSetTimeOut() was called.
			It must have wrapped all the way around and gone past us again. This
			passed since vTaskSetTimeout() was called. */
			xReturn = pdTRUE;
		}
		else if( ( ( portTickType ) ( ( portTickType ) xTickCount - ( portTickType ) pxTimeOut->xTimeOnEntering ) ) < ( portTickType ) *pxTicksToWait )
   82518:	f64a 22f0 	movw	r2, #43760	; 0xaaf0
   8251c:	f2c2 0207 	movt	r2, #8199	; 0x2007
   82520:	6811      	ldr	r1, [r2, #0]
   82522:	6863      	ldr	r3, [r4, #4]
   82524:	1aca      	subs	r2, r1, r3
   82526:	4290      	cmp	r0, r2
   82528:	d916      	bls.n	82558 <xTaskCheckForTimeOut+0x98>
		{
			/* Not a genuine timeout. Adjust parameters for time remaining. */
			*pxTicksToWait -= ( ( portTickType ) xTickCount - ( portTickType ) pxTimeOut->xTimeOnEntering );
   8252a:	f64a 21f0 	movw	r1, #43760	; 0xaaf0
   8252e:	f2c2 0107 	movt	r1, #8199	; 0x2007
   82532:	680a      	ldr	r2, [r1, #0]
   82534:	1a9b      	subs	r3, r3, r2
   82536:	1818      	adds	r0, r3, r0
   82538:	6028      	str	r0, [r5, #0]
			vTaskSetTimeOutState( pxTimeOut );
   8253a:	4620      	mov	r0, r4
   8253c:	f242 4491 	movw	r4, #9361	; 0x2491
   82540:	f2c0 0408 	movt	r4, #8
   82544:	47a0      	blx	r4
			xReturn = pdFALSE;
   82546:	f04f 0400 	mov.w	r4, #0
   8254a:	e007      	b.n	8255c <xTaskCheckForTimeOut+0x9c>
			/* If INCLUDE_vTaskSuspend is set to 1 and the block time specified is
			the maximum block time then the task should block indefinitely, and
			therefore never time out. */
			if( *pxTicksToWait == portMAX_DELAY )
			{
				xReturn = pdFALSE;
   8254c:	f04f 0400 	mov.w	r4, #0
   82550:	e004      	b.n	8255c <xTaskCheckForTimeOut+0x9c>
		{
			/* The tick count is greater than the time at which vTaskSetTimeout()
			was called, but has also overflowed since vTaskSetTimeOut() was called.
			It must have wrapped all the way around and gone past us again. This
			passed since vTaskSetTimeout() was called. */
			xReturn = pdTRUE;
   82552:	f04f 0401 	mov.w	r4, #1
   82556:	e001      	b.n	8255c <xTaskCheckForTimeOut+0x9c>
			vTaskSetTimeOutState( pxTimeOut );
			xReturn = pdFALSE;
		}
		else
		{
			xReturn = pdTRUE;
   82558:	f04f 0401 	mov.w	r4, #1
		}
	}
	taskEXIT_CRITICAL();
   8255c:	f241 1131 	movw	r1, #4401	; 0x1131
   82560:	f2c0 0108 	movt	r1, #8
   82564:	4788      	blx	r1

	return xReturn;
}
   82566:	4620      	mov	r0, r4
   82568:	bd38      	pop	{r3, r4, r5, pc}
   8256a:	bf00      	nop

0008256c <vTaskMissedYield>:
/*-----------------------------------------------------------*/

void vTaskMissedYield( void )
{
	xMissedYield = pdTRUE;
   8256c:	f64a 3310 	movw	r3, #43792	; 0xab10
   82570:	f2c2 0307 	movt	r3, #8199	; 0x2007
   82574:	f04f 0201 	mov.w	r2, #1
   82578:	601a      	str	r2, [r3, #0]
   8257a:	4770      	bx	lr

0008257c <xTaskGetCurrentTaskHandle>:
	xTaskHandle xReturn;

		/* A critical section is not required as this is not called from
		an interrupt and the current TCB will always be the same for any
		individual execution thread. */
		xReturn = pxCurrentTCB;
   8257c:	f64a 23d4 	movw	r3, #43732	; 0xaad4
   82580:	f2c2 0307 	movt	r3, #8199	; 0x2007
   82584:	6818      	ldr	r0, [r3, #0]

		return xReturn;
	}
   82586:	4770      	bx	lr

00082588 <xTaskGetSchedulerState>:

	portBASE_TYPE xTaskGetSchedulerState( void )
	{
	portBASE_TYPE xReturn;

		if( xSchedulerRunning == pdFALSE )
   82588:	f64a 2338 	movw	r3, #43576	; 0xaa38
   8258c:	f2c2 0307 	movt	r3, #8199	; 0x2007
   82590:	6818      	ldr	r0, [r3, #0]
   82592:	b148      	cbz	r0, 825a8 <xTaskGetSchedulerState+0x20>
		{
			xReturn = taskSCHEDULER_NOT_STARTED;
		}
		else
		{
			if( uxSchedulerSuspended == ( unsigned portBASE_TYPE ) pdFALSE )
   82594:	f64a 21d0 	movw	r1, #43728	; 0xaad0
   82598:	f2c2 0107 	movt	r1, #8199	; 0x2007
   8259c:	680a      	ldr	r2, [r1, #0]
			{
				xReturn = taskSCHEDULER_RUNNING;
   8259e:	2a00      	cmp	r2, #0
   825a0:	bf14      	ite	ne
   825a2:	2002      	movne	r0, #2
   825a4:	2001      	moveq	r0, #1
   825a6:	4770      	bx	lr
	{
	portBASE_TYPE xReturn;

		if( xSchedulerRunning == pdFALSE )
		{
			xReturn = taskSCHEDULER_NOT_STARTED;
   825a8:	f04f 0000 	mov.w	r0, #0
				xReturn = taskSCHEDULER_SUSPENDED;
			}
		}

		return xReturn;
	}
   825ac:	4770      	bx	lr
   825ae:	bf00      	nop

000825b0 <vTaskPriorityInherit>:
/*-----------------------------------------------------------*/

#if ( configUSE_MUTEXES == 1 )

	void vTaskPriorityInherit( xTaskHandle * const pxMutexHolder )
	{
   825b0:	b538      	push	{r3, r4, r5, lr}
	tskTCB * const pxTCB = ( tskTCB * ) pxMutexHolder;

		/* If the mutex was given back by an interrupt while the queue was
		locked then the mutex holder might now be NULL. */
		if( pxMutexHolder != NULL )
   825b2:	4604      	mov	r4, r0
   825b4:	2800      	cmp	r0, #0
   825b6:	d04e      	beq.n	82656 <vTaskPriorityInherit+0xa6>
		{
			if( pxTCB->uxPriority < pxCurrentTCB->uxPriority )
   825b8:	6ac3      	ldr	r3, [r0, #44]	; 0x2c
   825ba:	f64a 22d4 	movw	r2, #43732	; 0xaad4
   825be:	f2c2 0207 	movt	r2, #8199	; 0x2007
   825c2:	6810      	ldr	r0, [r2, #0]
   825c4:	6ac1      	ldr	r1, [r0, #44]	; 0x2c
   825c6:	428b      	cmp	r3, r1
   825c8:	d245      	bcs.n	82656 <vTaskPriorityInherit+0xa6>
			{
				/* Adjust the mutex holder state to account for its new priority. */
				listSET_LIST_ITEM_VALUE( &( pxTCB->xEventListItem ), configMAX_PRIORITIES - ( portTickType ) pxCurrentTCB->uxPriority );
   825ca:	f64a 22d4 	movw	r2, #43732	; 0xaad4
   825ce:	f2c2 0207 	movt	r2, #8199	; 0x2007
   825d2:	6810      	ldr	r0, [r2, #0]
   825d4:	6ac1      	ldr	r1, [r0, #44]	; 0x2c
   825d6:	f1c1 0205 	rsb	r2, r1, #5
   825da:	61a2      	str	r2, [r4, #24]

				/* If the task being modified is in the ready state it will need to
				be moved into a new list. */
				if( listIS_CONTAINED_WITHIN( &( pxReadyTasksLists[ pxTCB->uxPriority ] ), &( pxTCB->xGenericListItem ) ) != pdFALSE )
   825dc:	eb03 0383 	add.w	r3, r3, r3, lsl #2
   825e0:	f64a 206c 	movw	r0, #43628	; 0xaa6c
   825e4:	f2c2 0007 	movt	r0, #8199	; 0x2007
   825e8:	eb00 0183 	add.w	r1, r0, r3, lsl #2
   825ec:	6962      	ldr	r2, [r4, #20]
   825ee:	428a      	cmp	r2, r1
   825f0:	d12a      	bne.n	82648 <vTaskPriorityInherit+0x98>
				{
					if( uxListRemove( ( xListItem * ) &( pxTCB->xGenericListItem ) ) == 0 )
   825f2:	f104 0504 	add.w	r5, r4, #4
   825f6:	4628      	mov	r0, r5
   825f8:	f241 0265 	movw	r2, #4197	; 0x1065
   825fc:	f2c0 0208 	movt	r2, #8
   82600:	4790      	blx	r2
					{
						taskRESET_READY_PRIORITY( pxTCB->uxPriority );
					}

					/* Inherit the priority before being moved into the new list. */
					pxTCB->uxPriority = pxCurrentTCB->uxPriority;
   82602:	f64a 23d4 	movw	r3, #43732	; 0xaad4
   82606:	f2c2 0307 	movt	r3, #8199	; 0x2007
   8260a:	6818      	ldr	r0, [r3, #0]
   8260c:	6ac1      	ldr	r1, [r0, #44]	; 0x2c
   8260e:	62e1      	str	r1, [r4, #44]	; 0x2c
					prvAddTaskToReadyQueue( pxTCB );
   82610:	f64a 2268 	movw	r2, #43624	; 0xaa68
   82614:	f2c2 0207 	movt	r2, #8199	; 0x2007
   82618:	6813      	ldr	r3, [r2, #0]
   8261a:	4299      	cmp	r1, r3
   8261c:	d904      	bls.n	82628 <vTaskPriorityInherit+0x78>
   8261e:	f64a 2068 	movw	r0, #43624	; 0xaa68
   82622:	f2c2 0007 	movt	r0, #8199	; 0x2007
   82626:	6001      	str	r1, [r0, #0]
   82628:	eb01 0181 	add.w	r1, r1, r1, lsl #2
   8262c:	f64a 226c 	movw	r2, #43628	; 0xaa6c
   82630:	4613      	mov	r3, r2
   82632:	f2c2 0307 	movt	r3, #8199	; 0x2007
   82636:	eb03 0081 	add.w	r0, r3, r1, lsl #2
   8263a:	4629      	mov	r1, r5
   8263c:	f241 0209 	movw	r2, #4105	; 0x1009
   82640:	f2c0 0208 	movt	r2, #8
   82644:	4790      	blx	r2
   82646:	bd38      	pop	{r3, r4, r5, pc}
				}
				else
				{
					/* Just inherit the priority. */
					pxTCB->uxPriority = pxCurrentTCB->uxPriority;
   82648:	f64a 23d4 	movw	r3, #43732	; 0xaad4
   8264c:	f2c2 0307 	movt	r3, #8199	; 0x2007
   82650:	6818      	ldr	r0, [r3, #0]
   82652:	6ac1      	ldr	r1, [r0, #44]	; 0x2c
   82654:	62e1      	str	r1, [r4, #44]	; 0x2c
   82656:	bd38      	pop	{r3, r4, r5, pc}

00082658 <vTaskPriorityDisinherit>:
/*-----------------------------------------------------------*/

#if ( configUSE_MUTEXES == 1 )

	void vTaskPriorityDisinherit( xTaskHandle * const pxMutexHolder )
	{
   82658:	b538      	push	{r3, r4, r5, lr}
	tskTCB * const pxTCB = ( tskTCB * ) pxMutexHolder;

		if( pxMutexHolder != NULL )
   8265a:	4604      	mov	r4, r0
   8265c:	b350      	cbz	r0, 826b4 <vTaskPriorityDisinherit+0x5c>
		{
			if( pxTCB->uxPriority != pxTCB->uxBasePriority )
   8265e:	6ac2      	ldr	r2, [r0, #44]	; 0x2c
   82660:	6c83      	ldr	r3, [r0, #72]	; 0x48
   82662:	429a      	cmp	r2, r3
   82664:	d026      	beq.n	826b4 <vTaskPriorityDisinherit+0x5c>
			{
				/* We must be the running task to be able to give the mutex back.
				Remove ourselves from the ready list we currently appear in. */
				if( uxListRemove( ( xListItem * ) &( pxTCB->xGenericListItem ) ) == 0 )
   82666:	f100 0504 	add.w	r5, r0, #4
   8266a:	4628      	mov	r0, r5
   8266c:	f241 0165 	movw	r1, #4197	; 0x1065
   82670:	f2c0 0108 	movt	r1, #8
   82674:	4788      	blx	r1
				}

				/* Disinherit the priority before adding the task into the new
				ready list. */
				traceTASK_PRIORITY_DISINHERIT( pxTCB, pxTCB->uxBasePriority );
				pxTCB->uxPriority = pxTCB->uxBasePriority;
   82676:	6ca0      	ldr	r0, [r4, #72]	; 0x48
   82678:	62e0      	str	r0, [r4, #44]	; 0x2c
				listSET_LIST_ITEM_VALUE( &( pxTCB->xEventListItem ), configMAX_PRIORITIES - ( portTickType ) pxTCB->uxPriority );
   8267a:	f1c0 0205 	rsb	r2, r0, #5
   8267e:	61a2      	str	r2, [r4, #24]
				prvAddTaskToReadyQueue( pxTCB );
   82680:	f64a 2368 	movw	r3, #43624	; 0xaa68
   82684:	f2c2 0307 	movt	r3, #8199	; 0x2007
   82688:	6819      	ldr	r1, [r3, #0]
   8268a:	4288      	cmp	r0, r1
   8268c:	d904      	bls.n	82698 <vTaskPriorityDisinherit+0x40>
   8268e:	f64a 2268 	movw	r2, #43624	; 0xaa68
   82692:	f2c2 0207 	movt	r2, #8199	; 0x2007
   82696:	6010      	str	r0, [r2, #0]
   82698:	eb00 0380 	add.w	r3, r0, r0, lsl #2
   8269c:	f64a 206c 	movw	r0, #43628	; 0xaa6c
   826a0:	f2c2 0007 	movt	r0, #8199	; 0x2007
   826a4:	eb00 0083 	add.w	r0, r0, r3, lsl #2
   826a8:	4629      	mov	r1, r5
   826aa:	f241 0209 	movw	r2, #4105	; 0x1009
   826ae:	f2c0 0208 	movt	r2, #8
   826b2:	4790      	blx	r2
   826b4:	bd38      	pop	{r3, r4, r5, pc}
   826b6:	bf00      	nop

000826b8 <prvCheckForValidListAndQueue>:
	pxOverflowTimerList = pxTemp;
}
/*-----------------------------------------------------------*/

static void prvCheckForValidListAndQueue( void )
{
   826b8:	b570      	push	{r4, r5, r6, lr}
	/* Check that the list from which active timers are referenced, and the
	queue used to communicate with the timer service, have been
	initialised. */
	taskENTER_CRITICAL();
   826ba:	f241 1309 	movw	r3, #4361	; 0x1109
   826be:	f2c0 0308 	movt	r3, #8
   826c2:	4798      	blx	r3
	{
		if( xTimerQueue == NULL )
   826c4:	f64a 304c 	movw	r0, #43852	; 0xab4c
   826c8:	f2c2 0007 	movt	r0, #8199	; 0x2007
   826cc:	6801      	ldr	r1, [r0, #0]
   826ce:	bb49      	cbnz	r1, 82724 <prvCheckForValidListAndQueue+0x6c>
		{
			vListInitialise( &xActiveTimerList1 );
   826d0:	f64a 3520 	movw	r5, #43808	; 0xab20
   826d4:	f2c2 0507 	movt	r5, #8199	; 0x2007
   826d8:	4628      	mov	r0, r5
   826da:	f640 76e9 	movw	r6, #4073	; 0xfe9
   826de:	f2c0 0608 	movt	r6, #8
   826e2:	47b0      	blx	r6
			vListInitialise( &xActiveTimerList2 );
   826e4:	f64a 3434 	movw	r4, #43828	; 0xab34
   826e8:	f2c2 0407 	movt	r4, #8199	; 0x2007
   826ec:	4620      	mov	r0, r4
   826ee:	47b0      	blx	r6
			pxCurrentTimerList = &xActiveTimerList1;
   826f0:	f64a 321c 	movw	r2, #43804	; 0xab1c
   826f4:	f2c2 0207 	movt	r2, #8199	; 0x2007
   826f8:	6015      	str	r5, [r2, #0]
			pxOverflowTimerList = &xActiveTimerList2;
   826fa:	f64a 3350 	movw	r3, #43856	; 0xab50
   826fe:	f2c2 0307 	movt	r3, #8199	; 0x2007
   82702:	601c      	str	r4, [r3, #0]
			xTimerQueue = xQueueCreate( ( unsigned portBASE_TYPE ) configTIMER_QUEUE_LENGTH, sizeof( xTIMER_MESSAGE ) );
   82704:	f04f 0005 	mov.w	r0, #5
   82708:	f04f 010c 	mov.w	r1, #12
   8270c:	f04f 0200 	mov.w	r2, #0
   82710:	f241 53a5 	movw	r3, #5541	; 0x15a5
   82714:	f2c0 0308 	movt	r3, #8
   82718:	4798      	blx	r3
   8271a:	f64a 314c 	movw	r1, #43852	; 0xab4c
   8271e:	f2c2 0107 	movt	r1, #8199	; 0x2007
   82722:	6008      	str	r0, [r1, #0]
		}
	}
	taskEXIT_CRITICAL();
   82724:	f241 1031 	movw	r0, #4401	; 0x1131
   82728:	f2c0 0008 	movt	r0, #8
   8272c:	4780      	blx	r0
   8272e:	bd70      	pop	{r4, r5, r6, pc}

00082730 <prvInsertTimerInActiveList>:
	return xTimeNow;
}
/*-----------------------------------------------------------*/

static portBASE_TYPE prvInsertTimerInActiveList( xTIMER *pxTimer, portTickType xNextExpiryTime, portTickType xTimeNow, portTickType xCommandTime )
{
   82730:	b510      	push	{r4, lr}
   82732:	4604      	mov	r4, r0
portBASE_TYPE xProcessTimerNow = pdFALSE;

	listSET_LIST_ITEM_VALUE( &( pxTimer->xTimerListItem ), xNextExpiryTime );
   82734:	6041      	str	r1, [r0, #4]
	listSET_LIST_ITEM_OWNER( &( pxTimer->xTimerListItem ), pxTimer );
   82736:	6120      	str	r0, [r4, #16]

	if( xNextExpiryTime <= xTimeNow )
   82738:	4291      	cmp	r1, r2
   8273a:	d812      	bhi.n	82762 <prvInsertTimerInActiveList+0x32>
	{
		/* Has the expiry time elapsed between the command to start/reset a
		timer was issued, and the time the command was processed? */
		if( ( ( portTickType ) ( xTimeNow - xCommandTime ) ) >= pxTimer->xTimerPeriodInTicks )
   8273c:	1ad0      	subs	r0, r2, r3
   8273e:	69a1      	ldr	r1, [r4, #24]
   82740:	4288      	cmp	r0, r1
   82742:	d221      	bcs.n	82788 <prvInsertTimerInActiveList+0x58>
			processed actually exceeds the timers period.  */
			xProcessTimerNow = pdTRUE;
		}
		else
		{
			vListInsert( pxOverflowTimerList, &( pxTimer->xTimerListItem ) );
   82744:	f64a 3350 	movw	r3, #43856	; 0xab50
   82748:	f2c2 0307 	movt	r3, #8199	; 0x2007
   8274c:	6818      	ldr	r0, [r3, #0]
   8274e:	f104 0104 	add.w	r1, r4, #4
   82752:	f241 0229 	movw	r2, #4137	; 0x1029
   82756:	f2c0 0208 	movt	r2, #8
   8275a:	4790      	blx	r2
}
/*-----------------------------------------------------------*/

static portBASE_TYPE prvInsertTimerInActiveList( xTIMER *pxTimer, portTickType xNextExpiryTime, portTickType xTimeNow, portTickType xCommandTime )
{
portBASE_TYPE xProcessTimerNow = pdFALSE;
   8275c:	f04f 0000 	mov.w	r0, #0
   82760:	bd10      	pop	{r4, pc}
			vListInsert( pxOverflowTimerList, &( pxTimer->xTimerListItem ) );
		}
	}
	else
	{
		if( ( xTimeNow < xCommandTime ) && ( xNextExpiryTime >= xCommandTime ) )
   82762:	429a      	cmp	r2, r3
   82764:	d201      	bcs.n	8276a <prvInsertTimerInActiveList+0x3a>
   82766:	4299      	cmp	r1, r3
   82768:	d211      	bcs.n	8278e <prvInsertTimerInActiveList+0x5e>
			its expiry time and should be processed immediately. */
			xProcessTimerNow = pdTRUE;
		}
		else
		{
			vListInsert( pxCurrentTimerList, &( pxTimer->xTimerListItem ) );
   8276a:	f64a 331c 	movw	r3, #43804	; 0xab1c
   8276e:	f2c2 0307 	movt	r3, #8199	; 0x2007
   82772:	6818      	ldr	r0, [r3, #0]
   82774:	f104 0104 	add.w	r1, r4, #4
   82778:	f241 0229 	movw	r2, #4137	; 0x1029
   8277c:	f2c0 0208 	movt	r2, #8
   82780:	4790      	blx	r2
}
/*-----------------------------------------------------------*/

static portBASE_TYPE prvInsertTimerInActiveList( xTIMER *pxTimer, portTickType xNextExpiryTime, portTickType xTimeNow, portTickType xCommandTime )
{
portBASE_TYPE xProcessTimerNow = pdFALSE;
   82782:	f04f 0000 	mov.w	r0, #0
   82786:	bd10      	pop	{r4, pc}
		timer was issued, and the time the command was processed? */
		if( ( ( portTickType ) ( xTimeNow - xCommandTime ) ) >= pxTimer->xTimerPeriodInTicks )
		{
			/* The time between a command being issued and the command being
			processed actually exceeds the timers period.  */
			xProcessTimerNow = pdTRUE;
   82788:	f04f 0001 	mov.w	r0, #1
   8278c:	bd10      	pop	{r4, pc}
		if( ( xTimeNow < xCommandTime ) && ( xNextExpiryTime >= xCommandTime ) )
		{
			/* If, since the command was issued, the tick count has overflowed
			but the expiry time has not, then the timer must have already passed
			its expiry time and should be processed immediately. */
			xProcessTimerNow = pdTRUE;
   8278e:	f04f 0001 	mov.w	r0, #1
			vListInsert( pxCurrentTimerList, &( pxTimer->xTimerListItem ) );
		}
	}

	return xProcessTimerNow;
}
   82792:	bd10      	pop	{r4, pc}

00082794 <xTimerCreateTimerTask>:
static void prvProcessTimerOrBlockTask( portTickType xNextExpireTime, portBASE_TYPE xListWasEmpty ) PRIVILEGED_FUNCTION;

/*-----------------------------------------------------------*/

portBASE_TYPE xTimerCreateTimerTask( void )
{
   82794:	b510      	push	{r4, lr}
   82796:	b084      	sub	sp, #16

	/* This function is called when the scheduler is started if
	configUSE_TIMERS is set to 1.  Check that the infrastructure used by the
	timer service task has been created/initialised.  If timers have already
	been created then the initialisation will already have been performed. */
	prvCheckForValidListAndQueue();
   82798:	f242 63b9 	movw	r3, #9913	; 0x26b9
   8279c:	f2c0 0308 	movt	r3, #8
   827a0:	4798      	blx	r3

	if( xTimerQueue != NULL )
   827a2:	f64a 304c 	movw	r0, #43852	; 0xab4c
   827a6:	f2c2 0007 	movt	r0, #8199	; 0x2007
   827aa:	6801      	ldr	r1, [r0, #0]
   827ac:	b1b9      	cbz	r1, 827de <xTimerCreateTimerTask+0x4a>
			xReturn = xTaskCreate( prvTimerTask, ( const signed char * ) "Tmr Svc", ( unsigned short ) configTIMER_TASK_STACK_DEPTH, NULL, ( ( unsigned portBASE_TYPE ) configTIMER_TASK_PRIORITY ) | portPRIVILEGE_BIT, &xTimerTaskHandle );
		}
		#else
		{
			/* Create the timer task without storing its handle. */
			xReturn = xTaskCreate( prvTimerTask, ( const signed char * ) "Tmr Svc", ( unsigned short ) configTIMER_TASK_STACK_DEPTH, NULL, ( ( unsigned portBASE_TYPE ) configTIMER_TASK_PRIORITY ) | portPRIVILEGE_BIT, NULL);
   827ae:	f04f 0204 	mov.w	r2, #4
   827b2:	9200      	str	r2, [sp, #0]
   827b4:	f04f 0300 	mov.w	r3, #0
   827b8:	9301      	str	r3, [sp, #4]
   827ba:	9302      	str	r3, [sp, #8]
   827bc:	9303      	str	r3, [sp, #12]
   827be:	f642 1035 	movw	r0, #10549	; 0x2935
   827c2:	f2c0 0008 	movt	r0, #8
   827c6:	f649 21e0 	movw	r1, #39648	; 0x9ae0
   827ca:	f2c0 0108 	movt	r1, #8
   827ce:	f44f 7282 	mov.w	r2, #260	; 0x104
   827d2:	f641 24d1 	movw	r4, #6865	; 0x1ad1
   827d6:	f2c0 0408 	movt	r4, #8
   827da:	47a0      	blx	r4
		}
		#endif
	}

	configASSERT( xReturn );
   827dc:	b930      	cbnz	r0, 827ec <xTimerCreateTimerTask+0x58>
   827de:	f241 04f5 	movw	r4, #4341	; 0x10f5
   827e2:	f2c0 0408 	movt	r4, #8
   827e6:	47a0      	blx	r4
   827e8:	bf00      	nop
   827ea:	e7fd      	b.n	827e8 <xTimerCreateTimerTask+0x54>
	return xReturn;
}
   827ec:	b004      	add	sp, #16
   827ee:	bd10      	pop	{r4, pc}

000827f0 <xTimerGenericCommand>:
	return ( xTimerHandle ) pxNewTimer;
}
/*-----------------------------------------------------------*/

portBASE_TYPE xTimerGenericCommand( xTimerHandle xTimer, portBASE_TYPE xCommandID, portTickType xOptionalValue, signed portBASE_TYPE *pxHigherPriorityTaskWoken, portTickType xBlockTime )
{
   827f0:	b510      	push	{r4, lr}
   827f2:	b084      	sub	sp, #16
portBASE_TYPE xReturn = pdFAIL;
xTIMER_MESSAGE xMessage;

	/* Send a message to the timer service task to perform a particular action
	on a particular timer definition. */
	if( xTimerQueue != NULL )
   827f4:	f64a 344c 	movw	r4, #43852	; 0xab4c
   827f8:	f2c2 0407 	movt	r4, #8199	; 0x2007
   827fc:	6824      	ldr	r4, [r4, #0]
   827fe:	b32c      	cbz	r4, 8284c <xTimerGenericCommand+0x5c>
	{
		/* Send a command to the timer service task to start the xTimer timer. */
		xMessage.xMessageID = xCommandID;
   82800:	9101      	str	r1, [sp, #4]
		xMessage.xMessageValue = xOptionalValue;
   82802:	9202      	str	r2, [sp, #8]
		xMessage.pxTimer = ( xTIMER * ) xTimer;
   82804:	9003      	str	r0, [sp, #12]

		if( pxHigherPriorityTaskWoken == NULL )
   82806:	b9b3      	cbnz	r3, 82836 <xTimerGenericCommand+0x46>
		{
			if( xTaskGetSchedulerState() == taskSCHEDULER_RUNNING )
   82808:	f242 5389 	movw	r3, #9609	; 0x2589
   8280c:	f2c0 0308 	movt	r3, #8
   82810:	4798      	blx	r3
   82812:	2801      	cmp	r0, #1
			{
				xReturn = xQueueSendToBack( xTimerQueue, &xMessage, xBlockTime );
   82814:	f64a 334c 	movw	r3, #43852	; 0xab4c
   82818:	f2c2 0307 	movt	r3, #8199	; 0x2007
   8281c:	6818      	ldr	r0, [r3, #0]
   8281e:	a901      	add	r1, sp, #4
   82820:	bf07      	ittee	eq
   82822:	9a06      	ldreq	r2, [sp, #24]
   82824:	2300      	moveq	r3, #0
			}
			else
			{
				xReturn = xQueueSendToBack( xTimerQueue, &xMessage, tmrNO_DELAY );
   82826:	2200      	movne	r2, #0
   82828:	4613      	movne	r3, r2
   8282a:	f241 6411 	movw	r4, #5649	; 0x1611
   8282e:	f2c0 0408 	movt	r4, #8
   82832:	47a0      	blx	r4
   82834:	e00c      	b.n	82850 <xTimerGenericCommand+0x60>
			}
		}
		else
		{
			xReturn = xQueueSendToBackFromISR( xTimerQueue, &xMessage, pxHigherPriorityTaskWoken );
   82836:	4620      	mov	r0, r4
   82838:	a901      	add	r1, sp, #4
   8283a:	461a      	mov	r2, r3
   8283c:	f04f 0300 	mov.w	r3, #0
   82840:	f241 7485 	movw	r4, #6021	; 0x1785
   82844:	f2c0 0408 	movt	r4, #8
   82848:	47a0      	blx	r4
   8284a:	e001      	b.n	82850 <xTimerGenericCommand+0x60>
}
/*-----------------------------------------------------------*/

portBASE_TYPE xTimerGenericCommand( xTimerHandle xTimer, portBASE_TYPE xCommandID, portTickType xOptionalValue, signed portBASE_TYPE *pxHigherPriorityTaskWoken, portTickType xBlockTime )
{
portBASE_TYPE xReturn = pdFAIL;
   8284c:	f04f 0000 	mov.w	r0, #0

		traceTIMER_COMMAND_SEND( xTimer, xCommandID, xOptionalValue, xReturn );
	}

	return xReturn;
}
   82850:	b004      	add	sp, #16
   82852:	bd10      	pop	{r4, pc}

00082854 <prvSampleTimeNow>:
	return xNextExpireTime;
}
/*-----------------------------------------------------------*/

static portTickType prvSampleTimeNow( portBASE_TYPE *pxTimerListsWereSwitched )
{
   82854:	e92d 4ff0 	stmdb	sp!, {r4, r5, r6, r7, r8, r9, sl, fp, lr}
   82858:	b085      	sub	sp, #20
   8285a:	4682      	mov	sl, r0
portTickType xTimeNow;
PRIVILEGED_DATA static portTickType xLastTime = ( portTickType ) 0U;

	xTimeNow = xTaskGetTickCount();
   8285c:	f641 630d 	movw	r3, #7693	; 0x1e0d
   82860:	f2c0 0308 	movt	r3, #8
   82864:	4798      	blx	r3
   82866:	4681      	mov	r9, r0

	if( xTimeNow < xLastTime )
   82868:	f64a 3048 	movw	r0, #43848	; 0xab48
   8286c:	f2c2 0007 	movt	r0, #8199	; 0x2007
   82870:	6801      	ldr	r1, [r0, #0]
   82872:	4589      	cmp	r9, r1
   82874:	d24f      	bcs.n	82916 <prvSampleTimeNow+0xc2>
   82876:	e02b      	b.n	828d0 <prvSampleTimeNow+0x7c>
	If there are any timers still referenced from the current timer list
	then they must have expired and should be processed before the lists
	are switched. */
	while( listLIST_IS_EMPTY( pxCurrentTimerList ) == pdFALSE )
	{
		xNextExpireTime = listGET_ITEM_VALUE_OF_HEAD_ENTRY( pxCurrentTimerList );
   82878:	68dc      	ldr	r4, [r3, #12]
   8287a:	6826      	ldr	r6, [r4, #0]

		/* Remove the timer from the list. */
		pxTimer = ( xTIMER * ) listGET_OWNER_OF_HEAD_ENTRY( pxCurrentTimerList );
   8287c:	68dd      	ldr	r5, [r3, #12]
   8287e:	68ec      	ldr	r4, [r5, #12]
		uxListRemove( &( pxTimer->xTimerListItem ) );
   82880:	f104 0504 	add.w	r5, r4, #4
   82884:	4628      	mov	r0, r5
   82886:	47c0      	blx	r8

		/* Execute its callback, then send a command to restart the timer if
		it is an auto-reload timer.  It cannot be restarted here as the lists
		have not yet been switched. */
		pxTimer->pxCallbackFunction( ( xTimerHandle ) pxTimer );
   82888:	6a61      	ldr	r1, [r4, #36]	; 0x24
   8288a:	4620      	mov	r0, r4
   8288c:	4788      	blx	r1

		if( pxTimer->uxAutoReload == ( unsigned portBASE_TYPE ) pdTRUE )
   8288e:	69e0      	ldr	r0, [r4, #28]
   82890:	2801      	cmp	r0, #1
   82892:	d12c      	bne.n	828ee <prvSampleTimeNow+0x9a>
			the timer going into the same timer list then it has already expired
			and the timer should be re-inserted into the current list so it is
			processed again within this loop.  Otherwise a command should be sent
			to restart the timer to ensure it is only inserted into a list after
			the lists have been swapped. */
			xReloadTime = ( xNextExpireTime + pxTimer->xTimerPeriodInTicks );
   82894:	69a3      	ldr	r3, [r4, #24]
   82896:	18f2      	adds	r2, r6, r3
			if( xReloadTime > xNextExpireTime )
   82898:	42b2      	cmp	r2, r6
   8289a:	d909      	bls.n	828b0 <prvSampleTimeNow+0x5c>
			{
				listSET_LIST_ITEM_VALUE( &( pxTimer->xTimerListItem ), xReloadTime );
   8289c:	6062      	str	r2, [r4, #4]
				listSET_LIST_ITEM_OWNER( &( pxTimer->xTimerListItem ), pxTimer );
   8289e:	6124      	str	r4, [r4, #16]
				vListInsert( pxCurrentTimerList, &( pxTimer->xTimerListItem ) );
   828a0:	6838      	ldr	r0, [r7, #0]
   828a2:	4629      	mov	r1, r5
   828a4:	f241 0329 	movw	r3, #4137	; 0x1029
   828a8:	f2c0 0308 	movt	r3, #8
   828ac:	4798      	blx	r3
   828ae:	e01e      	b.n	828ee <prvSampleTimeNow+0x9a>
			}
			else
			{
				xResult = xTimerGenericCommand( pxTimer, tmrCOMMAND_START, xNextExpireTime, NULL, tmrNO_DELAY );
   828b0:	f8cd b000 	str.w	fp, [sp]
   828b4:	4620      	mov	r0, r4
   828b6:	4659      	mov	r1, fp
   828b8:	4632      	mov	r2, r6
   828ba:	465b      	mov	r3, fp
   828bc:	9c03      	ldr	r4, [sp, #12]
   828be:	47a0      	blx	r4
				configASSERT( xResult );
   828c0:	b9a8      	cbnz	r0, 828ee <prvSampleTimeNow+0x9a>
   828c2:	f241 06f5 	movw	r6, #4341	; 0x10f5
   828c6:	f2c0 0608 	movt	r6, #8
   828ca:	47b0      	blx	r6
   828cc:	bf00      	nop
   828ce:	e7fd      	b.n	828cc <prvSampleTimeNow+0x78>

	/* The tick count has overflowed.  The timer lists must be switched.
	If there are any timers still referenced from the current timer list
	then they must have expired and should be processed before the lists
	are switched. */
	while( listLIST_IS_EMPTY( pxCurrentTimerList ) == pdFALSE )
   828d0:	f64a 371c 	movw	r7, #43804	; 0xab1c
   828d4:	f2c2 0707 	movt	r7, #8199	; 0x2007
	{
		xNextExpireTime = listGET_ITEM_VALUE_OF_HEAD_ENTRY( pxCurrentTimerList );

		/* Remove the timer from the list. */
		pxTimer = ( xTIMER * ) listGET_OWNER_OF_HEAD_ENTRY( pxCurrentTimerList );
		uxListRemove( &( pxTimer->xTimerListItem ) );
   828d8:	f241 0865 	movw	r8, #4197	; 0x1065
   828dc:	f2c0 0808 	movt	r8, #8
				listSET_LIST_ITEM_OWNER( &( pxTimer->xTimerListItem ), pxTimer );
				vListInsert( pxCurrentTimerList, &( pxTimer->xTimerListItem ) );
			}
			else
			{
				xResult = xTimerGenericCommand( pxTimer, tmrCOMMAND_START, xNextExpireTime, NULL, tmrNO_DELAY );
   828e0:	f04f 0b00 	mov.w	fp, #0
   828e4:	f242 73f1 	movw	r3, #10225	; 0x27f1
   828e8:	f2c0 0308 	movt	r3, #8
   828ec:	9303      	str	r3, [sp, #12]

	/* The tick count has overflowed.  The timer lists must be switched.
	If there are any timers still referenced from the current timer list
	then they must have expired and should be processed before the lists
	are switched. */
	while( listLIST_IS_EMPTY( pxCurrentTimerList ) == pdFALSE )
   828ee:	683b      	ldr	r3, [r7, #0]
   828f0:	6818      	ldr	r0, [r3, #0]
   828f2:	2800      	cmp	r0, #0
   828f4:	d1c0      	bne.n	82878 <prvSampleTimeNow+0x24>
			}
		}
	}

	pxTemp = pxCurrentTimerList;
	pxCurrentTimerList = pxOverflowTimerList;
   828f6:	f64a 3250 	movw	r2, #43856	; 0xab50
   828fa:	f2c2 0207 	movt	r2, #8199	; 0x2007
   828fe:	6811      	ldr	r1, [r2, #0]
   82900:	f64a 301c 	movw	r0, #43804	; 0xab1c
   82904:	f2c2 0007 	movt	r0, #8199	; 0x2007
   82908:	6001      	str	r1, [r0, #0]
	pxOverflowTimerList = pxTemp;
   8290a:	6013      	str	r3, [r2, #0]
	xTimeNow = xTaskGetTickCount();

	if( xTimeNow < xLastTime )
	{
		prvSwitchTimerLists( xLastTime );
		*pxTimerListsWereSwitched = pdTRUE;
   8290c:	f04f 0301 	mov.w	r3, #1
   82910:	f8ca 3000 	str.w	r3, [sl]
   82914:	e003      	b.n	8291e <prvSampleTimeNow+0xca>
	}
	else
	{
		*pxTimerListsWereSwitched = pdFALSE;
   82916:	f04f 0200 	mov.w	r2, #0
   8291a:	f8ca 2000 	str.w	r2, [sl]
	}

	xLastTime = xTimeNow;
   8291e:	f64a 3248 	movw	r2, #43848	; 0xab48
   82922:	f2c2 0207 	movt	r2, #8199	; 0x2007
   82926:	f8c2 9000 	str.w	r9, [r2]

	return xTimeNow;
}
   8292a:	4648      	mov	r0, r9
   8292c:	b005      	add	sp, #20
   8292e:	e8bd 8ff0 	ldmia.w	sp!, {r4, r5, r6, r7, r8, r9, sl, fp, pc}
   82932:	bf00      	nop

00082934 <prvTimerTask>:
	pxTimer->pxCallbackFunction( ( xTimerHandle ) pxTimer );
}
/*-----------------------------------------------------------*/

static void prvTimerTask( void *pvParameters )
{
   82934:	e92d 4ff0 	stmdb	sp!, {r4, r5, r6, r7, r8, r9, sl, fp, lr}
   82938:	b089      	sub	sp, #36	; 0x24
	the timer with the nearest expiry time will expire.  If there are no
	active timers then just set the next expire time to 0.  That will cause
	this task to unblock when the tick count overflows, at which point the
	timer lists will be switched and the next expiry time can be
	re-assessed.  */
	*pxListWasEmpty = listLIST_IS_EMPTY( pxCurrentTimerList );
   8293a:	f64a 3b1c 	movw	fp, #43804	; 0xab1c
   8293e:	f2c2 0b07 	movt	fp, #8199	; 0x2007
static void prvProcessTimerOrBlockTask( portTickType xNextExpireTime, portBASE_TYPE xListWasEmpty )
{
portTickType xTimeNow;
portBASE_TYPE xTimerListsWereSwitched;

	vTaskSuspendAll();
   82942:	f641 53f9 	movw	r3, #7673	; 0x1df9
   82946:	f2c0 0308 	movt	r3, #8
   8294a:	9303      	str	r3, [sp, #12]
		/* Obtain the time now to make an assessment as to whether the timer
		has expired or not.  If obtaining the time causes the lists to switch
		then don't process this timer as any timers that remained in the list
		when the lists were switched will have been processed within the
		prvSampelTimeNow() function. */
		xTimeNow = prvSampleTimeNow( &xTimerListsWereSwitched );
   8294c:	f642 0a55 	movw	sl, #10325	; 0x2855
   82950:	f2c0 0a08 	movt	sl, #8
	the timer with the nearest expiry time will expire.  If there are no
	active timers then just set the next expire time to 0.  That will cause
	this task to unblock when the tick count overflows, at which point the
	timer lists will be switched and the next expiry time can be
	re-assessed.  */
	*pxListWasEmpty = listLIST_IS_EMPTY( pxCurrentTimerList );
   82954:	f8db 0000 	ldr.w	r0, [fp]
   82958:	6802      	ldr	r2, [r0, #0]
	if( *pxListWasEmpty == pdFALSE )
   8295a:	2a00      	cmp	r2, #0
   8295c:	f000 80c4 	beq.w	82ae8 <prvTimerTask+0x1b4>
	{
		xNextExpireTime = listGET_ITEM_VALUE_OF_HEAD_ENTRY( pxCurrentTimerList );
   82960:	68c7      	ldr	r7, [r0, #12]
   82962:	683d      	ldr	r5, [r7, #0]
static void prvProcessTimerOrBlockTask( portTickType xNextExpireTime, portBASE_TYPE xListWasEmpty )
{
portTickType xTimeNow;
portBASE_TYPE xTimerListsWereSwitched;

	vTaskSuspendAll();
   82964:	9b03      	ldr	r3, [sp, #12]
   82966:	4798      	blx	r3
		/* Obtain the time now to make an assessment as to whether the timer
		has expired or not.  If obtaining the time causes the lists to switch
		then don't process this timer as any timers that remained in the list
		when the lists were switched will have been processed within the
		prvSampelTimeNow() function. */
		xTimeNow = prvSampleTimeNow( &xTimerListsWereSwitched );
   82968:	a804      	add	r0, sp, #16
   8296a:	47d0      	blx	sl
   8296c:	4606      	mov	r6, r0
		if( xTimerListsWereSwitched == pdFALSE )
   8296e:	9804      	ldr	r0, [sp, #16]
   82970:	2800      	cmp	r0, #0
   82972:	d150      	bne.n	82a16 <prvTimerTask+0xe2>
		{
			/* The tick count has not overflowed, has the timer expired? */
			if( ( xListWasEmpty == pdFALSE ) && ( xNextExpireTime <= xTimeNow ) )
   82974:	42b5      	cmp	r5, r6
   82976:	d837      	bhi.n	829e8 <prvTimerTask+0xb4>
			{
				xTaskResumeAll();
   82978:	f641 77c1 	movw	r7, #8129	; 0x1fc1
   8297c:	f2c0 0708 	movt	r7, #8
   82980:	47b8      	blx	r7
xTIMER *pxTimer;
portBASE_TYPE xResult;

	/* Remove the timer from the list of active timers.  A check has already
	been performed to ensure the list is not empty. */
	pxTimer = ( xTIMER * ) listGET_OWNER_OF_HEAD_ENTRY( pxCurrentTimerList );
   82982:	f8db 3000 	ldr.w	r3, [fp]
   82986:	68d8      	ldr	r0, [r3, #12]
   82988:	68c4      	ldr	r4, [r0, #12]
	uxListRemove( &( pxTimer->xTimerListItem ) );
   8298a:	f104 0004 	add.w	r0, r4, #4
   8298e:	f241 0265 	movw	r2, #4197	; 0x1065
   82992:	f2c0 0208 	movt	r2, #8
   82996:	4790      	blx	r2
	traceTIMER_EXPIRED( pxTimer );

	/* If the timer is an auto reload timer then calculate the next
	expiry time and re-insert the timer in the list of active timers. */
	if( pxTimer->uxAutoReload == ( unsigned portBASE_TYPE ) pdTRUE )
   82998:	69e1      	ldr	r1, [r4, #28]
   8299a:	2901      	cmp	r1, #1
   8299c:	d11e      	bne.n	829dc <prvTimerTask+0xa8>
		a time relative to anything other than the current time.  It
		will therefore be inserted into the correct list relative to
		the time this task thinks it is now, even if a command to
		switch lists due to a tick count overflow is already waiting in
		the timer queue. */
		if( prvInsertTimerInActiveList( pxTimer, ( xNextExpireTime + pxTimer->xTimerPeriodInTicks ), xTimeNow, xNextExpireTime ) == pdTRUE )
   8299e:	69a7      	ldr	r7, [r4, #24]
   829a0:	4620      	mov	r0, r4
   829a2:	19e9      	adds	r1, r5, r7
   829a4:	4632      	mov	r2, r6
   829a6:	462b      	mov	r3, r5
   829a8:	f242 7631 	movw	r6, #10033	; 0x2731
   829ac:	f2c0 0608 	movt	r6, #8
   829b0:	47b0      	blx	r6
   829b2:	2801      	cmp	r0, #1
   829b4:	d112      	bne.n	829dc <prvTimerTask+0xa8>
		{
			/* The timer expired before it was added to the active timer
			list.  Reload it now.  */
			xResult = xTimerGenericCommand( pxTimer, tmrCOMMAND_START, xNextExpireTime, NULL, tmrNO_DELAY );
   829b6:	f04f 0300 	mov.w	r3, #0
   829ba:	9300      	str	r3, [sp, #0]
   829bc:	4620      	mov	r0, r4
   829be:	4619      	mov	r1, r3
   829c0:	462a      	mov	r2, r5
   829c2:	f242 75f1 	movw	r5, #10225	; 0x27f1
   829c6:	f2c0 0508 	movt	r5, #8
   829ca:	47a8      	blx	r5
			configASSERT( xResult );
   829cc:	b930      	cbnz	r0, 829dc <prvTimerTask+0xa8>
   829ce:	f241 07f5 	movw	r7, #4341	; 0x10f5
   829d2:	f2c0 0708 	movt	r7, #8
   829d6:	47b8      	blx	r7
   829d8:	bf00      	nop
   829da:	e7fd      	b.n	829d8 <prvTimerTask+0xa4>
			( void ) xResult;
		}
	}

	/* Call the timer callback. */
	pxTimer->pxCallbackFunction( ( xTimerHandle ) pxTimer );
   829dc:	6a63      	ldr	r3, [r4, #36]	; 0x24
   829de:	4620      	mov	r0, r4
   829e0:	4798      	blx	r3
   829e2:	e01d      	b.n	82a20 <prvTimerTask+0xec>
		xNextExpireTime = listGET_ITEM_VALUE_OF_HEAD_ENTRY( pxCurrentTimerList );
	}
	else
	{
		/* Ensure the task unblocks when the tick count rolls over. */
		xNextExpireTime = ( portTickType ) 0U;
   829e4:	f04f 0500 	mov.w	r5, #0
				time has not been reached yet.  This task should therefore
				block to wait for the next expire time or a command to be
				received - whichever comes first.  The following line cannot
				be reached unless xNextExpireTime > xTimeNow, except in the
				case when the current timer list is empty. */
				vQueueWaitForMessageRestricted( xTimerQueue, ( xNextExpireTime - xTimeNow ) );
   829e8:	f64a 314c 	movw	r1, #43852	; 0xab4c
   829ec:	f2c2 0107 	movt	r1, #8199	; 0x2007
   829f0:	6808      	ldr	r0, [r1, #0]
   829f2:	1ba9      	subs	r1, r5, r6
   829f4:	f641 16fd 	movw	r6, #6653	; 0x19fd
   829f8:	f2c0 0608 	movt	r6, #8
   829fc:	47b0      	blx	r6

				if( xTaskResumeAll() == pdFALSE )
   829fe:	f641 74c1 	movw	r4, #8129	; 0x1fc1
   82a02:	f2c0 0408 	movt	r4, #8
   82a06:	47a0      	blx	r4
   82a08:	b950      	cbnz	r0, 82a20 <prvTimerTask+0xec>
				{
					/* Yield to wait for either a command to arrive, or the block time
					to expire.  If a command arrived between the critical section being
					exited and this yield then the yield will not cause the task
					to block. */
					portYIELD_WITHIN_API();
   82a0a:	f241 05e5 	movw	r5, #4325	; 0x10e5
   82a0e:	f2c0 0508 	movt	r5, #8
   82a12:	47a8      	blx	r5
   82a14:	e004      	b.n	82a20 <prvTimerTask+0xec>
				}
			}
		}
		else
		{
			xTaskResumeAll();
   82a16:	f641 72c1 	movw	r2, #8129	; 0x1fc1
   82a1a:	f2c0 0208 	movt	r2, #8
   82a1e:	4790      	blx	r2
portBASE_TYPE xTimerListsWereSwitched, xResult;
portTickType xTimeNow;

	/* In this case the xTimerListsWereSwitched parameter is not used, but it
	must be present in the function call. */
	xTimeNow = prvSampleTimeNow( &xTimerListsWereSwitched );
   82a20:	a804      	add	r0, sp, #16
   82a22:	47d0      	blx	sl
   82a24:	4607      	mov	r7, r0

	while( xQueueReceive( xTimerQueue, &xMessage, tmrNO_DELAY ) != pdFAIL )
   82a26:	f64a 364c 	movw	r6, #43852	; 0xab4c
   82a2a:	f2c2 0607 	movt	r6, #8199	; 0x2007
   82a2e:	f641 0535 	movw	r5, #6197	; 0x1835
   82a32:	f2c0 0508 	movt	r5, #8
		if( pxTimer != NULL )
		{
			if( listIS_CONTAINED_WITHIN( NULL, &( pxTimer->xTimerListItem ) ) == pdFALSE )
			{
				/* The timer is in a list, remove it. */
				uxListRemove( &( pxTimer->xTimerListItem ) );
   82a36:	f241 0865 	movw	r8, #4197	; 0x1065
   82a3a:	f2c0 0808 	movt	r8, #8
				break;

			case tmrCOMMAND_CHANGE_PERIOD :
				pxTimer->xTimerPeriodInTicks = xMessage.xMessageValue;
				configASSERT( ( pxTimer->xTimerPeriodInTicks > 0 ) );
				prvInsertTimerInActiveList( pxTimer, ( xTimeNow + pxTimer->xTimerPeriodInTicks ), xTimeNow, xTimeNow );
   82a3e:	f242 7931 	movw	r9, #10033	; 0x2731
   82a42:	f2c0 0908 	movt	r9, #8
   82a46:	e046      	b.n	82ad6 <prvTimerTask+0x1a2>
	must be present in the function call. */
	xTimeNow = prvSampleTimeNow( &xTimerListsWereSwitched );

	while( xQueueReceive( xTimerQueue, &xMessage, tmrNO_DELAY ) != pdFAIL )
	{
		pxTimer = xMessage.pxTimer;
   82a48:	9c07      	ldr	r4, [sp, #28]

		/* Is the timer already in a list of active timers?  When the command
		is trmCOMMAND_PROCESS_TIMER_OVERFLOW, the timer will be NULL as the
		command is to the task rather than to an individual timer. */
		if( pxTimer != NULL )
   82a4a:	b124      	cbz	r4, 82a56 <prvTimerTask+0x122>
		{
			if( listIS_CONTAINED_WITHIN( NULL, &( pxTimer->xTimerListItem ) ) == pdFALSE )
   82a4c:	6960      	ldr	r0, [r4, #20]
   82a4e:	b110      	cbz	r0, 82a56 <prvTimerTask+0x122>
			{
				/* The timer is in a list, remove it. */
				uxListRemove( &( pxTimer->xTimerListItem ) );
   82a50:	f104 0004 	add.w	r0, r4, #4
   82a54:	47c0      	blx	r8
			}
		}

		traceTIMER_COMMAND_RECEIVED( pxTimer, xMessage.xMessageID, xMessage.xMessageValue );

		switch( xMessage.xMessageID )
   82a56:	9a05      	ldr	r2, [sp, #20]
   82a58:	2a02      	cmp	r2, #2
   82a5a:	d026      	beq.n	82aaa <prvTimerTask+0x176>
   82a5c:	2a03      	cmp	r2, #3
   82a5e:	d034      	beq.n	82aca <prvTimerTask+0x196>
   82a60:	2a00      	cmp	r2, #0
   82a62:	d138      	bne.n	82ad6 <prvTimerTask+0x1a2>
		{
			case tmrCOMMAND_START :
				/* Start or restart a timer. */
				if( prvInsertTimerInActiveList( pxTimer,  xMessage.xMessageValue + pxTimer->xTimerPeriodInTicks, xTimeNow, xMessage.xMessageValue ) == pdTRUE )
   82a64:	9b06      	ldr	r3, [sp, #24]
   82a66:	69a1      	ldr	r1, [r4, #24]
   82a68:	4620      	mov	r0, r4
   82a6a:	1859      	adds	r1, r3, r1
   82a6c:	463a      	mov	r2, r7
   82a6e:	47c8      	blx	r9
   82a70:	2801      	cmp	r0, #1
   82a72:	d130      	bne.n	82ad6 <prvTimerTask+0x1a2>
				{
					/* The timer expired before it was added to the active timer
					list.  Process it now. */
					pxTimer->pxCallbackFunction( ( xTimerHandle ) pxTimer );
   82a74:	6a63      	ldr	r3, [r4, #36]	; 0x24
   82a76:	4620      	mov	r0, r4
   82a78:	4798      	blx	r3

					if( pxTimer->uxAutoReload == ( unsigned portBASE_TYPE ) pdTRUE )
   82a7a:	69e0      	ldr	r0, [r4, #28]
   82a7c:	2801      	cmp	r0, #1
   82a7e:	d12a      	bne.n	82ad6 <prvTimerTask+0x1a2>
					{
						xResult = xTimerGenericCommand( pxTimer, tmrCOMMAND_START, xMessage.xMessageValue + pxTimer->xTimerPeriodInTicks, NULL, tmrNO_DELAY );
   82a80:	69a2      	ldr	r2, [r4, #24]
   82a82:	f04f 0300 	mov.w	r3, #0
   82a86:	9300      	str	r3, [sp, #0]
   82a88:	4620      	mov	r0, r4
   82a8a:	4619      	mov	r1, r3
   82a8c:	9c06      	ldr	r4, [sp, #24]
   82a8e:	1912      	adds	r2, r2, r4
   82a90:	f242 74f1 	movw	r4, #10225	; 0x27f1
   82a94:	f2c0 0408 	movt	r4, #8
   82a98:	47a0      	blx	r4
						configASSERT( xResult );
   82a9a:	b9e0      	cbnz	r0, 82ad6 <prvTimerTask+0x1a2>
   82a9c:	f241 05f5 	movw	r5, #4341	; 0x10f5
   82aa0:	f2c0 0508 	movt	r5, #8
   82aa4:	47a8      	blx	r5
   82aa6:	bf00      	nop
   82aa8:	e7fd      	b.n	82aa6 <prvTimerTask+0x172>
				/* The timer has already been removed from the active list.
				There is nothing to do here. */
				break;

			case tmrCOMMAND_CHANGE_PERIOD :
				pxTimer->xTimerPeriodInTicks = xMessage.xMessageValue;
   82aaa:	9b06      	ldr	r3, [sp, #24]
   82aac:	61a3      	str	r3, [r4, #24]
				configASSERT( ( pxTimer->xTimerPeriodInTicks > 0 ) );
   82aae:	b933      	cbnz	r3, 82abe <prvTimerTask+0x18a>
   82ab0:	f241 06f5 	movw	r6, #4341	; 0x10f5
   82ab4:	f2c0 0608 	movt	r6, #8
   82ab8:	47b0      	blx	r6
   82aba:	bf00      	nop
   82abc:	e7fd      	b.n	82aba <prvTimerTask+0x186>
				prvInsertTimerInActiveList( pxTimer, ( xTimeNow + pxTimer->xTimerPeriodInTicks ), xTimeNow, xTimeNow );
   82abe:	4620      	mov	r0, r4
   82ac0:	18f9      	adds	r1, r7, r3
   82ac2:	463a      	mov	r2, r7
   82ac4:	463b      	mov	r3, r7
   82ac6:	47c8      	blx	r9
   82ac8:	e005      	b.n	82ad6 <prvTimerTask+0x1a2>
				break;

			case tmrCOMMAND_DELETE :
				/* The timer has already been removed from the active list,
				just free up the memory. */
				vPortFree( pxTimer );
   82aca:	4620      	mov	r0, r4
   82acc:	f241 3185 	movw	r1, #4997	; 0x1385
   82ad0:	f2c0 0108 	movt	r1, #8
   82ad4:	4788      	blx	r1

	/* In this case the xTimerListsWereSwitched parameter is not used, but it
	must be present in the function call. */
	xTimeNow = prvSampleTimeNow( &xTimerListsWereSwitched );

	while( xQueueReceive( xTimerQueue, &xMessage, tmrNO_DELAY ) != pdFAIL )
   82ad6:	6830      	ldr	r0, [r6, #0]
   82ad8:	a905      	add	r1, sp, #20
   82ada:	f04f 0200 	mov.w	r2, #0
   82ade:	4613      	mov	r3, r2
   82ae0:	47a8      	blx	r5
   82ae2:	2800      	cmp	r0, #0
   82ae4:	d1b0      	bne.n	82a48 <prvTimerTask+0x114>
   82ae6:	e735      	b.n	82954 <prvTimerTask+0x20>
static void prvProcessTimerOrBlockTask( portTickType xNextExpireTime, portBASE_TYPE xListWasEmpty )
{
portTickType xTimeNow;
portBASE_TYPE xTimerListsWereSwitched;

	vTaskSuspendAll();
   82ae8:	9903      	ldr	r1, [sp, #12]
   82aea:	4788      	blx	r1
		/* Obtain the time now to make an assessment as to whether the timer
		has expired or not.  If obtaining the time causes the lists to switch
		then don't process this timer as any timers that remained in the list
		when the lists were switched will have been processed within the
		prvSampelTimeNow() function. */
		xTimeNow = prvSampleTimeNow( &xTimerListsWereSwitched );
   82aec:	a804      	add	r0, sp, #16
   82aee:	47d0      	blx	sl
   82af0:	4606      	mov	r6, r0
		if( xTimerListsWereSwitched == pdFALSE )
   82af2:	9c04      	ldr	r4, [sp, #16]
   82af4:	2c00      	cmp	r4, #0
   82af6:	f43f af75 	beq.w	829e4 <prvTimerTask+0xb0>
   82afa:	e78c      	b.n	82a16 <prvTimerTask+0xe2>

00082afc <_write>:
int __attribute__((weak))
_write (int file, const char *ptr, int len);

int __attribute__((weak))
_write (int file, const char *ptr, int len)
{
   82afc:	e92d 43f8 	stmdb	sp!, {r3, r4, r5, r6, r7, r8, r9, lr}
   82b00:	460d      	mov	r5, r1
   82b02:	4690      	mov	r8, r2
	int nChars = 0;

	if ((file != 1) && (file != 2) && (file!=3)) {
   82b04:	f100 30ff 	add.w	r0, r0, #4294967295
   82b08:	2802      	cmp	r0, #2
   82b0a:	d824      	bhi.n	82b56 <_write+0x5a>
		return -1;
	}

	for (; len != 0; --len) {
   82b0c:	b332      	cbz	r2, 82b5c <_write+0x60>
		if (ptr_put(stdio_base, *ptr++) < 0) {
   82b0e:	f64a 46f4 	movw	r6, #44276	; 0xacf4
   82b12:	f2c2 0607 	movt	r6, #8199	; 0x2007
   82b16:	f64a 47f0 	movw	r7, #44272	; 0xacf0
   82b1a:	f2c2 0707 	movt	r7, #8199	; 0x2007
   82b1e:	f04f 0400 	mov.w	r4, #0
   82b22:	f102 39ff 	add.w	r9, r2, #4294967295
   82b26:	f009 0901 	and.w	r9, r9, #1
   82b2a:	6830      	ldr	r0, [r6, #0]
   82b2c:	683b      	ldr	r3, [r7, #0]
   82b2e:	5d09      	ldrb	r1, [r1, r4]
   82b30:	4798      	blx	r3
   82b32:	42a0      	cmp	r0, r4
   82b34:	da1a      	bge.n	82b6c <_write+0x70>
   82b36:	e014      	b.n	82b62 <_write+0x66>
   82b38:	6830      	ldr	r0, [r6, #0]
   82b3a:	683b      	ldr	r3, [r7, #0]
   82b3c:	5d29      	ldrb	r1, [r5, r4]
   82b3e:	4798      	blx	r3
   82b40:	2800      	cmp	r0, #0
   82b42:	db0e      	blt.n	82b62 <_write+0x66>
			return -1;
		}
		++nChars;
   82b44:	f104 0401 	add.w	r4, r4, #1
	if ((file != 1) && (file != 2) && (file!=3)) {
		return -1;
	}

	for (; len != 0; --len) {
		if (ptr_put(stdio_base, *ptr++) < 0) {
   82b48:	6830      	ldr	r0, [r6, #0]
   82b4a:	683a      	ldr	r2, [r7, #0]
   82b4c:	5d29      	ldrb	r1, [r5, r4]
   82b4e:	4790      	blx	r2
   82b50:	2800      	cmp	r0, #0
   82b52:	da1d      	bge.n	82b90 <_write+0x94>
   82b54:	e005      	b.n	82b62 <_write+0x66>
_write (int file, const char *ptr, int len)
{
	int nChars = 0;

	if ((file != 1) && (file != 2) && (file!=3)) {
		return -1;
   82b56:	f04f 34ff 	mov.w	r4, #4294967295
   82b5a:	e004      	b.n	82b66 <_write+0x6a>
	}

	for (; len != 0; --len) {
   82b5c:	f04f 0400 	mov.w	r4, #0
   82b60:	e001      	b.n	82b66 <_write+0x6a>
		if (ptr_put(stdio_base, *ptr++) < 0) {
			return -1;
   82b62:	f04f 34ff 	mov.w	r4, #4294967295
		}
		++nChars;
	}
	return nChars;
}
   82b66:	4620      	mov	r0, r4
   82b68:	e8bd 83f8 	ldmia.w	sp!, {r3, r4, r5, r6, r7, r8, r9, pc}

	for (; len != 0; --len) {
		if (ptr_put(stdio_base, *ptr++) < 0) {
			return -1;
		}
		++nChars;
   82b6c:	f104 0401 	add.w	r4, r4, #1

	if ((file != 1) && (file != 2) && (file!=3)) {
		return -1;
	}

	for (; len != 0; --len) {
   82b70:	45a0      	cmp	r8, r4
   82b72:	d0f8      	beq.n	82b66 <_write+0x6a>
   82b74:	f1b9 0f00 	cmp.w	r9, #0
   82b78:	d0de      	beq.n	82b38 <_write+0x3c>
		if (ptr_put(stdio_base, *ptr++) < 0) {
   82b7a:	6830      	ldr	r0, [r6, #0]
   82b7c:	683a      	ldr	r2, [r7, #0]
   82b7e:	5d29      	ldrb	r1, [r5, r4]
   82b80:	4790      	blx	r2
   82b82:	2800      	cmp	r0, #0
   82b84:	dbed      	blt.n	82b62 <_write+0x66>
			return -1;
		}
		++nChars;
   82b86:	f104 0401 	add.w	r4, r4, #1

	if ((file != 1) && (file != 2) && (file!=3)) {
		return -1;
	}

	for (; len != 0; --len) {
   82b8a:	45a0      	cmp	r8, r4
   82b8c:	d1d4      	bne.n	82b38 <_write+0x3c>
   82b8e:	e7ea      	b.n	82b66 <_write+0x6a>
		if (ptr_put(stdio_base, *ptr++) < 0) {
			return -1;
		}
		++nChars;
   82b90:	f104 0401 	add.w	r4, r4, #1

	if ((file != 1) && (file != 2) && (file!=3)) {
		return -1;
	}

	for (; len != 0; --len) {
   82b94:	45a0      	cmp	r8, r4
   82b96:	d1cf      	bne.n	82b38 <_write+0x3c>
   82b98:	e7e5      	b.n	82b66 <_write+0x6a>
   82b9a:	bf00      	nop

00082b9c <pwm_clocks_generate>:
 *
 * \retval Return the value to be set in the PWM Clock Register (PWM Mode Register for
 * SAM3N/SAM4N/SAM4C/SAM4CP/SAM4CM) or PWM_INVALID_ARGUMENT if the configuration cannot be met.
 */
static uint32_t pwm_clocks_generate(uint32_t ul_frequency, uint32_t ul_mck)
{
   82b9c:	b4f0      	push	{r4, r5, r6, r7}
   82b9e:	b08c      	sub	sp, #48	; 0x30
   82ba0:	4606      	mov	r6, r0
   82ba2:	460f      	mov	r7, r1
	uint32_t ul_divisors[PWM_CLOCK_PRE_MAX] =
   82ba4:	ac01      	add	r4, sp, #4
   82ba6:	f649 25e8 	movw	r5, #39656	; 0x9ae8
   82baa:	f2c0 0508 	movt	r5, #8
   82bae:	cd0f      	ldmia	r5!, {r0, r1, r2, r3}
   82bb0:	c40f      	stmia	r4!, {r0, r1, r2, r3}
   82bb2:	cd0f      	ldmia	r5!, {r0, r1, r2, r3}
   82bb4:	c40f      	stmia	r4!, {r0, r1, r2, r3}
   82bb6:	e895 0007 	ldmia.w	r5, {r0, r1, r2}
   82bba:	e884 0007 	stmia.w	r4, {r0, r1, r2}
	uint32_t ul_pre = 0;
	uint32_t ul_div;

	/* Find prescaler and divisor values */
	do {
		ul_div = (ul_mck / ul_divisors[ul_pre]) / ul_frequency;
   82bbe:	9b01      	ldr	r3, [sp, #4]
   82bc0:	fbb7 f0f3 	udiv	r0, r7, r3
   82bc4:	fbb0 f1f6 	udiv	r1, r0, r6
		if (ul_div <= PWM_CLOCK_DIV_MAX) {
   82bc8:	f5b1 7f80 	cmp.w	r1, #256	; 0x100
   82bcc:	d952      	bls.n	82c74 <pwm_clocks_generate+0xd8>
	uint32_t ul_pre = 0;
	uint32_t ul_div;

	/* Find prescaler and divisor values */
	do {
		ul_div = (ul_mck / ul_divisors[ul_pre]) / ul_frequency;
   82bce:	9902      	ldr	r1, [sp, #8]
   82bd0:	fbb7 f2f1 	udiv	r2, r7, r1
   82bd4:	fbb2 f1f6 	udiv	r1, r2, r6
		if (ul_div <= PWM_CLOCK_DIV_MAX) {
   82bd8:	f5b1 7f80 	cmp.w	r1, #256	; 0x100
   82bdc:	d94d      	bls.n	82c7a <pwm_clocks_generate+0xde>
	uint32_t ul_pre = 0;
	uint32_t ul_div;

	/* Find prescaler and divisor values */
	do {
		ul_div = (ul_mck / ul_divisors[ul_pre]) / ul_frequency;
   82bde:	9b03      	ldr	r3, [sp, #12]
   82be0:	fbb7 f0f3 	udiv	r0, r7, r3
   82be4:	fbb0 f1f6 	udiv	r1, r0, r6
		if (ul_div <= PWM_CLOCK_DIV_MAX) {
   82be8:	f5b1 7f80 	cmp.w	r1, #256	; 0x100
   82bec:	d948      	bls.n	82c80 <pwm_clocks_generate+0xe4>
	uint32_t ul_pre = 0;
	uint32_t ul_div;

	/* Find prescaler and divisor values */
	do {
		ul_div = (ul_mck / ul_divisors[ul_pre]) / ul_frequency;
   82bee:	9904      	ldr	r1, [sp, #16]
   82bf0:	fbb7 f2f1 	udiv	r2, r7, r1
   82bf4:	fbb2 f1f6 	udiv	r1, r2, r6
		if (ul_div <= PWM_CLOCK_DIV_MAX) {
   82bf8:	f5b1 7f80 	cmp.w	r1, #256	; 0x100
   82bfc:	d943      	bls.n	82c86 <pwm_clocks_generate+0xea>
	uint32_t ul_pre = 0;
	uint32_t ul_div;

	/* Find prescaler and divisor values */
	do {
		ul_div = (ul_mck / ul_divisors[ul_pre]) / ul_frequency;
   82bfe:	9b05      	ldr	r3, [sp, #20]
   82c00:	fbb7 f0f3 	udiv	r0, r7, r3
   82c04:	fbb0 f1f6 	udiv	r1, r0, r6
		if (ul_div <= PWM_CLOCK_DIV_MAX) {
   82c08:	f5b1 7f80 	cmp.w	r1, #256	; 0x100
   82c0c:	d93e      	bls.n	82c8c <pwm_clocks_generate+0xf0>
	uint32_t ul_pre = 0;
	uint32_t ul_div;

	/* Find prescaler and divisor values */
	do {
		ul_div = (ul_mck / ul_divisors[ul_pre]) / ul_frequency;
   82c0e:	9906      	ldr	r1, [sp, #24]
   82c10:	fbb7 f2f1 	udiv	r2, r7, r1
   82c14:	fbb2 f1f6 	udiv	r1, r2, r6
		if (ul_div <= PWM_CLOCK_DIV_MAX) {
   82c18:	f5b1 7f80 	cmp.w	r1, #256	; 0x100
   82c1c:	d939      	bls.n	82c92 <pwm_clocks_generate+0xf6>
	uint32_t ul_pre = 0;
	uint32_t ul_div;

	/* Find prescaler and divisor values */
	do {
		ul_div = (ul_mck / ul_divisors[ul_pre]) / ul_frequency;
   82c1e:	9b07      	ldr	r3, [sp, #28]
   82c20:	fbb7 f0f3 	udiv	r0, r7, r3
   82c24:	fbb0 f1f6 	udiv	r1, r0, r6
		if (ul_div <= PWM_CLOCK_DIV_MAX) {
   82c28:	f5b1 7f80 	cmp.w	r1, #256	; 0x100
   82c2c:	d934      	bls.n	82c98 <pwm_clocks_generate+0xfc>
	uint32_t ul_pre = 0;
	uint32_t ul_div;

	/* Find prescaler and divisor values */
	do {
		ul_div = (ul_mck / ul_divisors[ul_pre]) / ul_frequency;
   82c2e:	9908      	ldr	r1, [sp, #32]
   82c30:	fbb7 f2f1 	udiv	r2, r7, r1
   82c34:	fbb2 f1f6 	udiv	r1, r2, r6
		if (ul_div <= PWM_CLOCK_DIV_MAX) {
   82c38:	f5b1 7f80 	cmp.w	r1, #256	; 0x100
   82c3c:	d92f      	bls.n	82c9e <pwm_clocks_generate+0x102>
	uint32_t ul_pre = 0;
	uint32_t ul_div;

	/* Find prescaler and divisor values */
	do {
		ul_div = (ul_mck / ul_divisors[ul_pre]) / ul_frequency;
   82c3e:	9b09      	ldr	r3, [sp, #36]	; 0x24
   82c40:	fbb7 f0f3 	udiv	r0, r7, r3
   82c44:	fbb0 f1f6 	udiv	r1, r0, r6
		if (ul_div <= PWM_CLOCK_DIV_MAX) {
   82c48:	f5b1 7f80 	cmp.w	r1, #256	; 0x100
   82c4c:	d92a      	bls.n	82ca4 <pwm_clocks_generate+0x108>
	uint32_t ul_pre = 0;
	uint32_t ul_div;

	/* Find prescaler and divisor values */
	do {
		ul_div = (ul_mck / ul_divisors[ul_pre]) / ul_frequency;
   82c4e:	990a      	ldr	r1, [sp, #40]	; 0x28
   82c50:	fbb7 f2f1 	udiv	r2, r7, r1
   82c54:	fbb2 f1f6 	udiv	r1, r2, r6
		if (ul_div <= PWM_CLOCK_DIV_MAX) {
   82c58:	f5b1 7f80 	cmp.w	r1, #256	; 0x100
   82c5c:	d925      	bls.n	82caa <pwm_clocks_generate+0x10e>
	uint32_t ul_pre = 0;
	uint32_t ul_div;

	/* Find prescaler and divisor values */
	do {
		ul_div = (ul_mck / ul_divisors[ul_pre]) / ul_frequency;
   82c5e:	9b0b      	ldr	r3, [sp, #44]	; 0x2c
   82c60:	fbb7 f0f3 	udiv	r0, r7, r3
   82c64:	fbb0 f1f6 	udiv	r1, r0, r6
		if (ul_div <= PWM_CLOCK_DIV_MAX) {
   82c68:	f5b1 7f80 	cmp.w	r1, #256	; 0x100
   82c6c:	d920      	bls.n	82cb0 <pwm_clocks_generate+0x114>

	/* Return result */
	if (ul_pre < PWM_CLOCK_PRE_MAX) {
		return ul_div | (ul_pre << 8);
	} else {
		return PWM_INVALID_ARGUMENT;
   82c6e:	f64f 70ff 	movw	r0, #65535	; 0xffff
   82c72:	e021      	b.n	82cb8 <pwm_clocks_generate+0x11c>
 */
static uint32_t pwm_clocks_generate(uint32_t ul_frequency, uint32_t ul_mck)
{
	uint32_t ul_divisors[PWM_CLOCK_PRE_MAX] =
			{1, 2, 4, 8, 16, 32, 64, 128, 256, 512, 1024 };
	uint32_t ul_pre = 0;
   82c74:	f04f 0200 	mov.w	r2, #0
   82c78:	e01c      	b.n	82cb4 <pwm_clocks_generate+0x118>
	do {
		ul_div = (ul_mck / ul_divisors[ul_pre]) / ul_frequency;
		if (ul_div <= PWM_CLOCK_DIV_MAX) {
			break;
		}
		ul_pre++;
   82c7a:	f04f 0201 	mov.w	r2, #1
   82c7e:	e019      	b.n	82cb4 <pwm_clocks_generate+0x118>
   82c80:	f04f 0202 	mov.w	r2, #2
   82c84:	e016      	b.n	82cb4 <pwm_clocks_generate+0x118>
   82c86:	f04f 0203 	mov.w	r2, #3
   82c8a:	e013      	b.n	82cb4 <pwm_clocks_generate+0x118>
   82c8c:	f04f 0204 	mov.w	r2, #4
   82c90:	e010      	b.n	82cb4 <pwm_clocks_generate+0x118>
   82c92:	f04f 0205 	mov.w	r2, #5
   82c96:	e00d      	b.n	82cb4 <pwm_clocks_generate+0x118>
   82c98:	f04f 0206 	mov.w	r2, #6
   82c9c:	e00a      	b.n	82cb4 <pwm_clocks_generate+0x118>
   82c9e:	f04f 0207 	mov.w	r2, #7
   82ca2:	e007      	b.n	82cb4 <pwm_clocks_generate+0x118>
   82ca4:	f04f 0208 	mov.w	r2, #8
   82ca8:	e004      	b.n	82cb4 <pwm_clocks_generate+0x118>
   82caa:	f04f 0209 	mov.w	r2, #9
   82cae:	e001      	b.n	82cb4 <pwm_clocks_generate+0x118>
	uint32_t ul_div;

	/* Find prescaler and divisor values */
	do {
		ul_div = (ul_mck / ul_divisors[ul_pre]) / ul_frequency;
		if (ul_div <= PWM_CLOCK_DIV_MAX) {
   82cb0:	f04f 020a 	mov.w	r2, #10
		ul_pre++;
	} while (ul_pre < PWM_CLOCK_PRE_MAX);

	/* Return result */
	if (ul_pre < PWM_CLOCK_PRE_MAX) {
		return ul_div | (ul_pre << 8);
   82cb4:	ea41 2002 	orr.w	r0, r1, r2, lsl #8
	} else {
		return PWM_INVALID_ARGUMENT;
	}
}
   82cb8:	b00c      	add	sp, #48	; 0x30
   82cba:	bcf0      	pop	{r4, r5, r6, r7}
   82cbc:	4770      	bx	lr
   82cbe:	bf00      	nop

00082cc0 <pwm_init>:
 * \param clock_config PWM clock configuration.
 *
 * \retval 0 if initialization succeeds, otherwise fails.
 */
uint32_t pwm_init(Pwm *p_pwm, pwm_clock_t *clock_config)
{
   82cc0:	b570      	push	{r4, r5, r6, lr}
   82cc2:	4606      	mov	r6, r0
   82cc4:	460c      	mov	r4, r1
	uint32_t clock = 0;
	uint32_t result;

	/* Clock A */
	if (clock_config->ul_clka != 0) {
   82cc6:	6808      	ldr	r0, [r1, #0]
   82cc8:	b158      	cbz	r0, 82ce2 <pwm_init+0x22>
		result = pwm_clocks_generate(clock_config->ul_clka, clock_config->ul_mck);
   82cca:	6889      	ldr	r1, [r1, #8]
   82ccc:	f642 339d 	movw	r3, #11165	; 0x2b9d
   82cd0:	f2c0 0308 	movt	r3, #8
   82cd4:	4798      	blx	r3
		if (result == PWM_INVALID_ARGUMENT) {
   82cd6:	f64f 71ff 	movw	r1, #65535	; 0xffff
   82cda:	4288      	cmp	r0, r1
   82cdc:	d014      	beq.n	82d08 <pwm_init+0x48>
			return result;
		}

		clock = result;
   82cde:	4605      	mov	r5, r0
   82ce0:	e001      	b.n	82ce6 <pwm_init+0x26>
 *
 * \retval 0 if initialization succeeds, otherwise fails.
 */
uint32_t pwm_init(Pwm *p_pwm, pwm_clock_t *clock_config)
{
	uint32_t clock = 0;
   82ce2:	f04f 0500 	mov.w	r5, #0

		clock = result;
	}

	/* Clock B */
	if (clock_config->ul_clkb != 0) {
   82ce6:	6860      	ldr	r0, [r4, #4]
   82ce8:	b158      	cbz	r0, 82d02 <pwm_init+0x42>
		result = pwm_clocks_generate(clock_config->ul_clkb, clock_config->ul_mck);
   82cea:	68a1      	ldr	r1, [r4, #8]
   82cec:	f642 329d 	movw	r2, #11165	; 0x2b9d
   82cf0:	f2c0 0208 	movt	r2, #8
   82cf4:	4790      	blx	r2

		if (result == PWM_INVALID_ARGUMENT) {
   82cf6:	f64f 73ff 	movw	r3, #65535	; 0xffff
   82cfa:	4298      	cmp	r0, r3
   82cfc:	d004      	beq.n	82d08 <pwm_init+0x48>
			return result;
		}

		clock |= (result << 16);
   82cfe:	ea45 4500 	orr.w	r5, r5, r0, lsl #16
	}
#if (SAM3N || SAM4N || SAM4C || SAM4CP || SAM4CM)
	p_pwm->PWM_MR = clock;
#else
	p_pwm->PWM_CLK = clock;
   82d02:	6035      	str	r5, [r6, #0]
#endif
	return 0;
   82d04:	f04f 0000 	mov.w	r0, #0
}
   82d08:	bd70      	pop	{r4, r5, r6, pc}
   82d0a:	bf00      	nop

00082d0c <pwm_channel_init>:
 * \param p_channel Configurations of the specified PWM channel.
 *
 * \retval 0 if initialization succeeds, otherwise fails.
 */
uint32_t pwm_channel_init(Pwm *p_pwm, pwm_channel_t *p_channel)
{
   82d0c:	b470      	push	{r4, r5, r6}
	uint32_t tmp_reg = 0;
	uint32_t ch_num = p_channel->channel;
   82d0e:	680b      	ldr	r3, [r1, #0]

	/* Channel Mode/Clock Register */
	tmp_reg = (p_channel->ul_prescaler & 0xF) |
			(p_channel->polarity << 9) |
   82d10:	8a8d      	ldrh	r5, [r1, #20]
{
	uint32_t tmp_reg = 0;
	uint32_t ch_num = p_channel->channel;

	/* Channel Mode/Clock Register */
	tmp_reg = (p_channel->ul_prescaler & 0xF) |
   82d12:	684a      	ldr	r2, [r1, #4]
   82d14:	f002 040f 	and.w	r4, r2, #15
   82d18:	4325      	orrs	r5, r4
			(p_channel->polarity << 9) |
#if (SAM3U || SAM3S || SAM3XA || SAM4S || SAM4E)
			(p_channel->counter_event) |
			(p_channel->b_deadtime_generator << 16) |
			(p_channel->b_pwmh_output_inverted << 17) |
			(p_channel->b_pwml_output_inverted << 18) |
   82d1a:	890e      	ldrh	r6, [r1, #8]
	uint32_t tmp_reg = 0;
	uint32_t ch_num = p_channel->channel;

	/* Channel Mode/Clock Register */
	tmp_reg = (p_channel->ul_prescaler & 0xF) |
			(p_channel->polarity << 9) |
   82d1c:	4335      	orrs	r5, r6
   82d1e:	7a8a      	ldrb	r2, [r1, #10]
#if (SAM3U || SAM3S || SAM3XA || SAM4S || SAM4E)
			(p_channel->counter_event) |
   82d20:	ea45 2542 	orr.w	r5, r5, r2, lsl #9
			(p_channel->b_deadtime_generator << 16) |
   82d24:	7d8c      	ldrb	r4, [r1, #22]
   82d26:	ea45 4604 	orr.w	r6, r5, r4, lsl #16
			(p_channel->b_pwmh_output_inverted << 17) |
   82d2a:	7dca      	ldrb	r2, [r1, #23]
   82d2c:	ea46 4542 	orr.w	r5, r6, r2, lsl #17
			(p_channel->b_pwml_output_inverted << 18) |
   82d30:	7e0c      	ldrb	r4, [r1, #24]
{
	uint32_t tmp_reg = 0;
	uint32_t ch_num = p_channel->channel;

	/* Channel Mode/Clock Register */
	tmp_reg = (p_channel->ul_prescaler & 0xF) |
   82d32:	ea45 4684 	orr.w	r6, r5, r4, lsl #18
			(p_channel->b_deadtime_generator << 16) |
			(p_channel->b_pwmh_output_inverted << 17) |
			(p_channel->b_pwml_output_inverted << 18) |
#endif
			(p_channel->alignment);
	p_pwm->PWM_CH_NUM[ch_num].PWM_CMR = tmp_reg;
   82d36:	f103 0210 	add.w	r2, r3, #16
   82d3a:	ea4f 1542 	mov.w	r5, r2, lsl #5
   82d3e:	1944      	adds	r4, r0, r5
   82d40:	5146      	str	r6, [r0, r5]

	/* Channel Duty Cycle Register */
	p_pwm->PWM_CH_NUM[ch_num].PWM_CDTY = p_channel->ul_duty;
   82d42:	68ce      	ldr	r6, [r1, #12]
   82d44:	6066      	str	r6, [r4, #4]

	/* Channel Period Register */
	p_pwm->PWM_CH_NUM[ch_num].PWM_CPRD = p_channel->ul_period;
   82d46:	690a      	ldr	r2, [r1, #16]
   82d48:	eb00 1543 	add.w	r5, r0, r3, lsl #5
   82d4c:	f8c5 220c 	str.w	r2, [r5, #524]	; 0x20c
	
#if (SAM3U || SAM3S || SAM3XA || SAM4S || SAM4E)
	/* Channel Dead Time Register */
	if (p_channel->b_deadtime_generator) {
   82d50:	7d8c      	ldrb	r4, [r1, #22]
   82d52:	b13c      	cbz	r4, 82d64 <pwm_channel_init+0x58>
		p_pwm->PWM_CH_NUM[ch_num].PWM_DT =
				PWM_DT_DTL(p_channel->
   82d54:	8b8e      	ldrh	r6, [r1, #28]
				us_deadtime_pwml) | PWM_DT_DTH(p_channel->
   82d56:	8b4a      	ldrh	r2, [r1, #26]
   82d58:	ea42 4506 	orr.w	r5, r2, r6, lsl #16
	p_pwm->PWM_CH_NUM[ch_num].PWM_CPRD = p_channel->ul_period;
	
#if (SAM3U || SAM3S || SAM3XA || SAM4S || SAM4E)
	/* Channel Dead Time Register */
	if (p_channel->b_deadtime_generator) {
		p_pwm->PWM_CH_NUM[ch_num].PWM_DT =
   82d5c:	eb00 1443 	add.w	r4, r0, r3, lsl #5
   82d60:	f8c4 5218 	str.w	r5, [r4, #536]	; 0x218
				us_deadtime_pwml) | PWM_DT_DTH(p_channel->
				us_deadtime_pwmh);
	}

	/* Output Selection Register */
	tmp_reg  = p_pwm->PWM_OS & (~((PWM_OS_OSH0 | PWM_OS_OSL0) << ch_num));
   82d64:	6c85      	ldr	r5, [r0, #72]	; 0x48
   82d66:	f04f 1601 	mov.w	r6, #65537	; 0x10001
   82d6a:	fa06 f603 	lsl.w	r6, r6, r3
   82d6e:	ea6f 0206 	mvn.w	r2, r6
   82d72:	4015      	ands	r5, r2
	tmp_reg |= ((p_channel->output_selection.b_override_pwmh) << ch_num) |
			(((p_channel->output_selection.b_override_pwml) << ch_num)
   82d74:	7fce      	ldrb	r6, [r1, #31]
   82d76:	fa06 f603 	lsl.w	r6, r6, r3
				us_deadtime_pwmh);
	}

	/* Output Selection Register */
	tmp_reg  = p_pwm->PWM_OS & (~((PWM_OS_OSH0 | PWM_OS_OSL0) << ch_num));
	tmp_reg |= ((p_channel->output_selection.b_override_pwmh) << ch_num) |
   82d7a:	7f8c      	ldrb	r4, [r1, #30]
   82d7c:	fa04 f403 	lsl.w	r4, r4, r3
   82d80:	ea44 4406 	orr.w	r4, r4, r6, lsl #16
   82d84:	432c      	orrs	r4, r5
			(((p_channel->output_selection.b_override_pwml) << ch_num)
					<< 16);
	p_pwm->PWM_OS = tmp_reg;
   82d86:	6484      	str	r4, [r0, #72]	; 0x48

	/* Output Override Value Register */
	tmp_reg  = p_pwm->PWM_OOV & (~((PWM_OOV_OOVH0 | PWM_OOV_OOVL0) << ch_num));
   82d88:	6c45      	ldr	r5, [r0, #68]	; 0x44
   82d8a:	402a      	ands	r2, r5
	tmp_reg |= ((p_channel->output_selection.override_level_pwmh) << ch_num) |
			(((p_channel->output_selection.override_level_pwml) << ch_num)
   82d8c:	f891 5021 	ldrb.w	r5, [r1, #33]	; 0x21
   82d90:	fa05 f503 	lsl.w	r5, r5, r3
					<< 16);
	p_pwm->PWM_OS = tmp_reg;

	/* Output Override Value Register */
	tmp_reg  = p_pwm->PWM_OOV & (~((PWM_OOV_OOVH0 | PWM_OOV_OOVL0) << ch_num));
	tmp_reg |= ((p_channel->output_selection.override_level_pwmh) << ch_num) |
   82d94:	f891 4020 	ldrb.w	r4, [r1, #32]
   82d98:	fa04 f403 	lsl.w	r4, r4, r3
   82d9c:	ea44 4405 	orr.w	r4, r4, r5, lsl #16
   82da0:	4322      	orrs	r2, r4
			(((p_channel->output_selection.override_level_pwml) << ch_num)
					<< 16);
	p_pwm->PWM_OOV = tmp_reg;
   82da2:	6442      	str	r2, [r0, #68]	; 0x44

	/* Sync Channels Mode Register */
	uint32_t channel = (1 << ch_num);
   82da4:	f04f 0201 	mov.w	r2, #1
   82da8:	fa02 f203 	lsl.w	r2, r2, r3
	if (p_channel->b_sync_ch) {
   82dac:	f891 4022 	ldrb.w	r4, [r1, #34]	; 0x22
   82db0:	b11c      	cbz	r4, 82dba <pwm_channel_init+0xae>
		p_pwm->PWM_SCM |= channel;
   82db2:	6a04      	ldr	r4, [r0, #32]
   82db4:	4314      	orrs	r4, r2
   82db6:	6204      	str	r4, [r0, #32]
   82db8:	e003      	b.n	82dc2 <pwm_channel_init+0xb6>
	} else {
		p_pwm->PWM_SCM &= ~((uint32_t) channel);
   82dba:	6a04      	ldr	r4, [r0, #32]
   82dbc:	ea24 0402 	bic.w	r4, r4, r2
   82dc0:	6204      	str	r4, [r0, #32]
		} else {
			p_pwm->PWM_FPV1 &= (~((0x01 << ch_num) << 16));
		}
	}
#else
	if (p_channel->ul_fault_output_pwmh == PWM_HIGH) {
   82dc2:	f891 4024 	ldrb.w	r4, [r1, #36]	; 0x24
   82dc6:	2c01      	cmp	r4, #1
		p_pwm->PWM_FPV |= (0x01 << ch_num);
   82dc8:	6e84      	ldr	r4, [r0, #104]	; 0x68
   82dca:	bf0c      	ite	eq
   82dcc:	4314      	orreq	r4, r2
	} else {
		p_pwm->PWM_FPV &= (~(0x01 << ch_num));
   82dce:	4394      	bicne	r4, r2
   82dd0:	6684      	str	r4, [r0, #104]	; 0x68
	}
	if (p_channel->ul_fault_output_pwml == PWM_HIGH) {
   82dd2:	f891 4025 	ldrb.w	r4, [r1, #37]	; 0x25
   82dd6:	2c01      	cmp	r4, #1
		p_pwm->PWM_FPV |= ((0x01 << ch_num) << 16);
   82dd8:	6e84      	ldr	r4, [r0, #104]	; 0x68
   82dda:	bf0c      	ite	eq
   82ddc:	ea44 4202 	orreq.w	r2, r4, r2, lsl #16
	} else {
		p_pwm->PWM_FPV &= (~((0x01 << ch_num) << 16));
   82de0:	ea24 4202 	bicne.w	r2, r4, r2, lsl #16
   82de4:	6682      	str	r2, [r0, #104]	; 0x68
	}
#endif
	/* Fault Protection Enable Register */
	uint32_t fault_enable_reg = 0;
#if (SAM3XA)
	if (ch_num < 4) {
   82de6:	2b03      	cmp	r3, #3
   82de8:	d80f      	bhi.n	82e0a <pwm_channel_init+0xfe>
		ch_num *= 8;
		fault_enable_reg = p_pwm->PWM_FPE1;
   82dea:	6ec4      	ldr	r4, [r0, #108]	; 0x6c
#endif
	/* Fault Protection Enable Register */
	uint32_t fault_enable_reg = 0;
#if (SAM3XA)
	if (ch_num < 4) {
		ch_num *= 8;
   82dec:	ea4f 03c3 	mov.w	r3, r3, lsl #3
		fault_enable_reg = p_pwm->PWM_FPE1;
		fault_enable_reg &= ~(0xFF << ch_num);
   82df0:	f04f 02ff 	mov.w	r2, #255	; 0xff
   82df4:	fa02 f203 	lsl.w	r2, r2, r3
   82df8:	ea24 0202 	bic.w	r2, r4, r2
		fault_enable_reg |= ((p_channel->fault_id) << ch_num);
   82dfc:	f891 1023 	ldrb.w	r1, [r1, #35]	; 0x23
   82e00:	fa01 f303 	lsl.w	r3, r1, r3
   82e04:	431a      	orrs	r2, r3
		p_pwm->PWM_FPE1 = fault_enable_reg;
   82e06:	66c2      	str	r2, [r0, #108]	; 0x6c
   82e08:	e010      	b.n	82e2c <pwm_channel_init+0x120>
	} else {
		ch_num -= 4;
   82e0a:	f1a3 0304 	sub.w	r3, r3, #4
		ch_num *= 8;
		fault_enable_reg = p_pwm->PWM_FPE2;
   82e0e:	6f04      	ldr	r4, [r0, #112]	; 0x70
		fault_enable_reg &= ~(0xFF << ch_num);
		fault_enable_reg |= ((p_channel->fault_id) << ch_num);
		p_pwm->PWM_FPE1 = fault_enable_reg;
	} else {
		ch_num -= 4;
		ch_num *= 8;
   82e10:	ea4f 03c3 	mov.w	r3, r3, lsl #3
		fault_enable_reg = p_pwm->PWM_FPE2;
		fault_enable_reg &= ~(0xFF << ch_num);
   82e14:	f04f 02ff 	mov.w	r2, #255	; 0xff
   82e18:	fa02 f203 	lsl.w	r2, r2, r3
   82e1c:	ea24 0202 	bic.w	r2, r4, r2
		fault_enable_reg |= ((p_channel->fault_id) << ch_num);
   82e20:	f891 1023 	ldrb.w	r1, [r1, #35]	; 0x23
   82e24:	fa01 f303 	lsl.w	r3, r1, r3
   82e28:	431a      	orrs	r2, r3
		p_pwm->PWM_FPE2 = fault_enable_reg;
   82e2a:	6702      	str	r2, [r0, #112]	; 0x70
			PWM_CAE_ADEDGV(p_channel->ul_additional_edge) |
			p_channel->additional_edge_mode;
#endif

	return 0;
}
   82e2c:	f04f 0000 	mov.w	r0, #0
   82e30:	bc70      	pop	{r4, r5, r6}
   82e32:	4770      	bx	lr

00082e34 <pwm_channel_update_duty>:
 *
 * \retval 0 if changing succeeds, otherwise fails.
 */
uint32_t pwm_channel_update_duty(Pwm *p_pwm, pwm_channel_t *p_channel,
		uint32_t ul_duty)
{
   82e34:	b410      	push	{r4}
	uint32_t ch_num = p_channel->channel;
   82e36:	680c      	ldr	r4, [r1, #0]

		/** Check parameter */
	if (p_channel->ul_period < ul_duty) {
   82e38:	690b      	ldr	r3, [r1, #16]
   82e3a:	4293      	cmp	r3, r2
   82e3c:	d307      	bcc.n	82e4e <pwm_channel_update_duty+0x1a>
		return PWM_INVALID_ARGUMENT;
	} else {
		/* Save new duty cycle value */
		p_channel->ul_duty = ul_duty;
   82e3e:	60ca      	str	r2, [r1, #12]
		mode &= ~PWM_CMR_CPD;
		p_pwm->PWM_CH_NUM[ch_num].PWM_CMR = mode;

		p_pwm->PWM_CH_NUM[ch_num].PWM_CUPD = ul_duty;
#else
		p_pwm->PWM_CH_NUM[ch_num].PWM_CDTYUPD = ul_duty;
   82e40:	eb00 1044 	add.w	r0, r0, r4, lsl #5
   82e44:	f8c0 2208 	str.w	r2, [r0, #520]	; 0x208
#endif
	}

	return 0;
   82e48:	f04f 0000 	mov.w	r0, #0
   82e4c:	e001      	b.n	82e52 <pwm_channel_update_duty+0x1e>
{
	uint32_t ch_num = p_channel->channel;

		/** Check parameter */
	if (p_channel->ul_period < ul_duty) {
		return PWM_INVALID_ARGUMENT;
   82e4e:	f64f 70ff 	movw	r0, #65535	; 0xffff
		p_pwm->PWM_CH_NUM[ch_num].PWM_CDTYUPD = ul_duty;
#endif
	}

	return 0;
}
   82e52:	bc10      	pop	{r4}
   82e54:	4770      	bx	lr
   82e56:	bf00      	nop

00082e58 <pwm_channel_enable>:
 * \param p_pwm Pointer to a PWM instance.
 * \param ul_channel PWM channel number to enable.
 */
void pwm_channel_enable(Pwm *p_pwm, uint32_t ul_channel)
{
	p_pwm->PWM_ENA = (1 << ul_channel);
   82e58:	f04f 0301 	mov.w	r3, #1
   82e5c:	fa03 f101 	lsl.w	r1, r3, r1
   82e60:	6041      	str	r1, [r0, #4]
   82e62:	4770      	bx	lr

00082e64 <pwm_channel_disable>:
 * \param p_pwm Pointer to a PWM instance.
 * \param ul_channel PWM channel number to disable.
 */
void pwm_channel_disable(Pwm *p_pwm, uint32_t ul_channel)
{
	p_pwm->PWM_DIS = (1 << ul_channel);
   82e64:	f04f 0301 	mov.w	r3, #1
   82e68:	fa03 f101 	lsl.w	r1, r3, r1
   82e6c:	6081      	str	r1, [r0, #8]
   82e6e:	4770      	bx	lr

00082e70 <tc_init>:
 */
void tc_init(
		Tc *p_tc,
		uint32_t ul_channel,
		uint32_t ul_mode)
{
   82e70:	b410      	push	{r4}

	/* Validate inputs. */
	Assert(p_tc);
	Assert(ul_channel <
			(sizeof(p_tc->TC_CHANNEL) / sizeof(p_tc->TC_CHANNEL[0])));
	tc_channel = p_tc->TC_CHANNEL + ul_channel;
   82e72:	ea4f 1181 	mov.w	r1, r1, lsl #6
   82e76:	1843      	adds	r3, r0, r1

	/*  Disable TC clock. */
	tc_channel->TC_CCR = TC_CCR_CLKDIS;
   82e78:	f04f 0402 	mov.w	r4, #2
   82e7c:	5044      	str	r4, [r0, r1]

	/*  Disable interrupts. */
	tc_channel->TC_IDR = 0xFFFFFFFF;
   82e7e:	f04f 30ff 	mov.w	r0, #4294967295
   82e82:	6298      	str	r0, [r3, #40]	; 0x28

	/*  Clear status register. */
	tc_channel->TC_SR;
   82e84:	6a19      	ldr	r1, [r3, #32]

	/*  Set mode. */
	tc_channel->TC_CMR = ul_mode;
   82e86:	605a      	str	r2, [r3, #4]
}
   82e88:	bc10      	pop	{r4}
   82e8a:	4770      	bx	lr

00082e8c <tc_set_block_mode>:
		uint32_t ul_blockmode)
{
	/* Validate inputs. */
	Assert(p_tc);
	
	p_tc->TC_BMR = ul_blockmode;
   82e8c:	f8c0 10c4 	str.w	r1, [r0, #196]	; 0xc4
   82e90:	4770      	bx	lr
   82e92:	bf00      	nop

00082e94 <tc_stop>:
	/* Validate inputs. */
	Assert(p_tc);
	Assert(ul_channel <
			(sizeof(p_tc->TC_CHANNEL) / sizeof(p_tc->TC_CHANNEL[0])));

	p_tc->TC_CHANNEL[ul_channel].TC_CCR = TC_CCR_CLKDIS;
   82e94:	ea4f 1181 	mov.w	r1, r1, lsl #6
   82e98:	f04f 0302 	mov.w	r3, #2
   82e9c:	5043      	str	r3, [r0, r1]
   82e9e:	4770      	bx	lr

00082ea0 <uart_init>:
 *
 * \retval 0 Success.
 * \retval 1 Bad baud rate generator value.
 */
uint32_t uart_init(Uart *p_uart, const sam_uart_opt_t *p_uart_opt)
{
   82ea0:	b410      	push	{r4}
	uint32_t cd = 0;

	/* Reset and disable receiver & transmitter */
	p_uart->UART_CR = UART_CR_RSTRX | UART_CR_RSTTX
   82ea2:	f04f 03ac 	mov.w	r3, #172	; 0xac
   82ea6:	6003      	str	r3, [r0, #0]
			| UART_CR_RXDIS | UART_CR_TXDIS;

	/* Check and configure baudrate */
	/* Asynchronous, no oversampling */
	cd = (p_uart_opt->ul_mck / p_uart_opt->ul_baudrate) / UART_MCK_DIV;
   82ea8:	680a      	ldr	r2, [r1, #0]
   82eaa:	684c      	ldr	r4, [r1, #4]
   82eac:	fbb2 f3f4 	udiv	r3, r2, r4
   82eb0:	ea4f 1313 	mov.w	r3, r3, lsr #4
	if (cd < UART_MCK_DIV_MIN_FACTOR || cd > UART_MCK_DIV_MAX_FACTOR)
   82eb4:	f103 34ff 	add.w	r4, r3, #4294967295
   82eb8:	f64f 72fe 	movw	r2, #65534	; 0xfffe
   82ebc:	4294      	cmp	r4, r2
   82ebe:	d80c      	bhi.n	82eda <uart_init+0x3a>
		return 1;

	p_uart->UART_BRGR = cd;
   82ec0:	6203      	str	r3, [r0, #32]
	/* Configure mode */
	p_uart->UART_MR = p_uart_opt->ul_mode;
   82ec2:	6889      	ldr	r1, [r1, #8]
   82ec4:	6041      	str	r1, [r0, #4]

	/* Disable PDC channel */
	p_uart->UART_PTCR = UART_PTCR_RXTDIS | UART_PTCR_TXTDIS;
   82ec6:	f240 2302 	movw	r3, #514	; 0x202
   82eca:	f8c0 3120 	str.w	r3, [r0, #288]	; 0x120

	/* Enable receiver and transmitter */
	p_uart->UART_CR = UART_CR_RXEN | UART_CR_TXEN;
   82ece:	f04f 0250 	mov.w	r2, #80	; 0x50
   82ed2:	6002      	str	r2, [r0, #0]

	return 0;
   82ed4:	f04f 0000 	mov.w	r0, #0
   82ed8:	e001      	b.n	82ede <uart_init+0x3e>

	/* Check and configure baudrate */
	/* Asynchronous, no oversampling */
	cd = (p_uart_opt->ul_mck / p_uart_opt->ul_baudrate) / UART_MCK_DIV;
	if (cd < UART_MCK_DIV_MIN_FACTOR || cd > UART_MCK_DIV_MAX_FACTOR)
		return 1;
   82eda:	f04f 0001 	mov.w	r0, #1

	/* Enable receiver and transmitter */
	p_uart->UART_CR = UART_CR_RXEN | UART_CR_TXEN;

	return 0;
}
   82ede:	bc10      	pop	{r4}
   82ee0:	4770      	bx	lr
   82ee2:	bf00      	nop

00082ee4 <uart_write>:
 * \retval 1 I/O Failure, UART is not ready.
 */
uint32_t uart_write(Uart *p_uart, const uint8_t uc_data)
{
	/* Check if the transmitter is ready */
	if (!(p_uart->UART_SR & UART_SR_TXRDY))
   82ee4:	6943      	ldr	r3, [r0, #20]
   82ee6:	f013 0f02 	tst.w	r3, #2
   82eea:	d003      	beq.n	82ef4 <uart_write+0x10>
		return 1;

	/* Send character */
	p_uart->UART_THR = uc_data;
   82eec:	61c1      	str	r1, [r0, #28]
	return 0;
   82eee:	f04f 0000 	mov.w	r0, #0
   82ef2:	4770      	bx	lr
 */
uint32_t uart_write(Uart *p_uart, const uint8_t uc_data)
{
	/* Check if the transmitter is ready */
	if (!(p_uart->UART_SR & UART_SR_TXRDY))
		return 1;
   82ef4:	f04f 0001 	mov.w	r0, #1

	/* Send character */
	p_uart->UART_THR = uc_data;
	return 0;
}
   82ef8:	4770      	bx	lr
   82efa:	bf00      	nop

00082efc <uart_read>:
 * \retval 1 I/O Failure, UART is not ready.
 */
uint32_t uart_read(Uart *p_uart, uint8_t *puc_data)
{
	/* Check if the receiver is ready */
	if ((p_uart->UART_SR & UART_SR_RXRDY) == 0)
   82efc:	6943      	ldr	r3, [r0, #20]
   82efe:	f013 0f01 	tst.w	r3, #1
   82f02:	d004      	beq.n	82f0e <uart_read+0x12>
		return 1;

	/* Read character */
	*puc_data = (uint8_t) p_uart->UART_RHR;
   82f04:	6980      	ldr	r0, [r0, #24]
   82f06:	7008      	strb	r0, [r1, #0]
	return 0;
   82f08:	f04f 0000 	mov.w	r0, #0
   82f0c:	4770      	bx	lr
 */
uint32_t uart_read(Uart *p_uart, uint8_t *puc_data)
{
	/* Check if the receiver is ready */
	if ((p_uart->UART_SR & UART_SR_RXRDY) == 0)
		return 1;
   82f0e:	f04f 0001 	mov.w	r0, #1

	/* Read character */
	*puc_data = (uint8_t) p_uart->UART_RHR;
	return 0;
}
   82f12:	4770      	bx	lr

00082f14 <usart_write>:
 * \retval 0 on success.
 * \retval 1 on failure.
 */
uint32_t usart_write(Usart *p_usart, uint32_t c)
{
	if (!(p_usart->US_CSR & US_CSR_TXRDY)) {
   82f14:	6943      	ldr	r3, [r0, #20]
   82f16:	f013 0f02 	tst.w	r3, #2
   82f1a:	d007      	beq.n	82f2c <usart_write+0x18>
		return 1;
	}

	p_usart->US_THR = US_THR_TXCHR(c);
   82f1c:	ea4f 51c1 	mov.w	r1, r1, lsl #23
   82f20:	ea4f 52d1 	mov.w	r2, r1, lsr #23
   82f24:	61c2      	str	r2, [r0, #28]
	return 0;
   82f26:	f04f 0000 	mov.w	r0, #0
   82f2a:	4770      	bx	lr
 * \retval 1 on failure.
 */
uint32_t usart_write(Usart *p_usart, uint32_t c)
{
	if (!(p_usart->US_CSR & US_CSR_TXRDY)) {
		return 1;
   82f2c:	f04f 0001 	mov.w	r0, #1
	}

	p_usart->US_THR = US_THR_TXCHR(c);
	return 0;
}
   82f30:	4770      	bx	lr
   82f32:	bf00      	nop

00082f34 <usart_read>:
 * \retval 0 on success.
 * \retval 1 if no data is available or errors.
 */
uint32_t usart_read(Usart *p_usart, uint32_t *c)
{
	if (!(p_usart->US_CSR & US_CSR_RXRDY)) {
   82f34:	6943      	ldr	r3, [r0, #20]
   82f36:	f013 0f01 	tst.w	r3, #1
   82f3a:	d008      	beq.n	82f4e <usart_read+0x1a>
		return 1;
	}

	/* Read character */
	*c = p_usart->US_RHR & US_RHR_RXCHR_Msk;
   82f3c:	6980      	ldr	r0, [r0, #24]
   82f3e:	ea4f 52c0 	mov.w	r2, r0, lsl #23
   82f42:	ea4f 53d2 	mov.w	r3, r2, lsr #23
   82f46:	600b      	str	r3, [r1, #0]

	return 0;
   82f48:	f04f 0000 	mov.w	r0, #0
   82f4c:	4770      	bx	lr
 * \retval 1 if no data is available or errors.
 */
uint32_t usart_read(Usart *p_usart, uint32_t *c)
{
	if (!(p_usart->US_CSR & US_CSR_RXRDY)) {
		return 1;
   82f4e:	f04f 0001 	mov.w	r0, #1

	/* Read character */
	*c = p_usart->US_RHR & US_RHR_RXCHR_Msk;

	return 0;
}
   82f52:	4770      	bx	lr

00082f54 <sysclk_init>:
	pmc_disable_udpck();
}
#endif // CONFIG_USBCLK_SOURCE

void sysclk_init(void)
{
   82f54:	b510      	push	{r4, lr}
	struct pll_config pllcfg;

	/* Set flash wait state to max in case the below clock switching. */
	system_init_flash(CHIP_FREQ_CPU_MAX);
   82f56:	f44f 403d 	mov.w	r0, #48384	; 0xbd00
   82f5a:	f2c0 5001 	movt	r0, #1281	; 0x501
   82f5e:	f643 2341 	movw	r3, #14913	; 0x3a41
   82f62:	f2c0 0308 	movt	r3, #8
   82f66:	4798      	blx	r3
		pmc_switch_mainck_to_fastrc(CKGR_MOR_MOSCRCF_12_MHz);
		break;


	case OSC_MAINCK_XTAL:
		pmc_switch_mainck_to_xtal(PMC_OSC_XTAL,
   82f68:	f04f 0000 	mov.w	r0, #0
   82f6c:	f04f 013e 	mov.w	r1, #62	; 0x3e
   82f70:	f243 6219 	movw	r2, #13849	; 0x3619
   82f74:	f2c0 0208 	movt	r2, #8
   82f78:	4790      	blx	r2
	case OSC_MAINCK_4M_RC:
	case OSC_MAINCK_8M_RC:
	case OSC_MAINCK_12M_RC:
	case OSC_MAINCK_XTAL:
	case OSC_MAINCK_BYPASS:
		return pmc_osc_is_ready_mainck();
   82f7a:	f243 6489 	movw	r4, #13961	; 0x3689
   82f7e:	f2c0 0408 	movt	r4, #8
   82f82:	47a0      	blx	r4
 *
 * \param id A number identifying the oscillator to wait for.
 */
static inline void osc_wait_ready(uint8_t id)
{
	while (!osc_is_ready(id)) {
   82f84:	2800      	cmp	r0, #0
   82f86:	d0fc      	beq.n	82f82 <sysclk_init+0x2e>
static inline void pll_enable(const struct pll_config *p_cfg, uint32_t ul_pll_id)
{
	Assert(ul_pll_id < NR_PLLS);

	if (ul_pll_id == PLLA_ID) {
		pmc_disable_pllack(); // Always stop PLL first!
   82f88:	f243 6099 	movw	r0, #13977	; 0x3699
   82f8c:	f2c0 0008 	movt	r0, #8
   82f90:	4780      	blx	r0
		PMC->CKGR_PLLAR = CKGR_PLLAR_ONE | p_cfg->ctrl;
   82f92:	f44f 61c0 	mov.w	r1, #1536	; 0x600
   82f96:	f2c4 010e 	movt	r1, #16398	; 0x400e
   82f9a:	f643 7301 	movw	r3, #16129	; 0x3f01
   82f9e:	f2c2 030d 	movt	r3, #8205	; 0x200d
   82fa2:	628b      	str	r3, [r1, #40]	; 0x28
static inline uint32_t pll_is_locked(uint32_t ul_pll_id)
{
	Assert(ul_pll_id < NR_PLLS);

	if (ul_pll_id == PLLA_ID) {
		return pmc_is_locked_pllack();
   82fa4:	f243 64a9 	movw	r4, #13993	; 0x36a9
   82fa8:	f2c0 0408 	movt	r4, #8
   82fac:	47a0      	blx	r4
 */
static inline int pll_wait_for_lock(unsigned int pll_id)
{
	Assert(pll_id < NR_PLLS);

	while (!pll_is_locked(pll_id)) {
   82fae:	2800      	cmp	r0, #0
   82fb0:	d0fc      	beq.n	82fac <sysclk_init+0x58>
	else if (CONFIG_SYSCLK_SOURCE == SYSCLK_SRC_PLLACK) {
		pll_enable_source(CONFIG_PLL0_SOURCE);
		pll_config_defaults(&pllcfg, 0);
		pll_enable(&pllcfg, 0);
		pll_wait_for_lock(0);
		pmc_switch_mck_to_pllack(CONFIG_SYSCLK_PRES);
   82fb2:	f04f 0010 	mov.w	r0, #16
   82fb6:	f243 5279 	movw	r2, #13689	; 0x3579
   82fba:	f2c0 0208 	movt	r2, #8
   82fbe:	4790      	blx	r2
		pll_wait_for_lock(1);
		pmc_switch_mck_to_upllck(CONFIG_SYSCLK_PRES);
	}

	/* Update the SystemFrequency variable */
	SystemCoreClockUpdate();
   82fc0:	f643 0079 	movw	r0, #14457	; 0x3879
   82fc4:	f2c0 0008 	movt	r0, #8
   82fc8:	4780      	blx	r0

	/* Set a flash wait state depending on the new cpu frequency */
	system_init_flash(sysclk_get_cpu_hz());
   82fca:	f44f 403d 	mov.w	r0, #48384	; 0xbd00
   82fce:	f2c0 5001 	movt	r0, #1281	; 0x501
   82fd2:	f643 2141 	movw	r1, #14913	; 0x3a41
   82fd6:	f2c0 0108 	movt	r1, #8
   82fda:	4788      	blx	r1
   82fdc:	bd10      	pop	{r4, pc}
   82fde:	bf00      	nop

00082fe0 <board_init>:
#include "conf_board.h"
#include "gpio.h"
#include "ioport.h"

void board_init(void)
{
   82fe0:	b510      	push	{r4, lr}
#ifndef CONF_BOARD_KEEP_WATCHDOG_AT_INIT
	/* Disable the watchdog */
	WDT->WDT_MR = WDT_MR_WDDIS;
   82fe2:	f641 2350 	movw	r3, #6736	; 0x1a50
   82fe6:	f2c4 030e 	movt	r3, #16398	; 0x400e
   82fea:	f44f 4200 	mov.w	r2, #32768	; 0x8000
   82fee:	605a      	str	r2, [r3, #4]
   82ff0:	f04f 000b 	mov.w	r0, #11
   82ff4:	f243 64b9 	movw	r4, #14009	; 0x36b9
   82ff8:	f2c0 0408 	movt	r4, #8
   82ffc:	47a0      	blx	r4
   82ffe:	f04f 000c 	mov.w	r0, #12
   83002:	47a0      	blx	r4
   83004:	f04f 000d 	mov.w	r0, #13
   83008:	47a0      	blx	r4
   8300a:	f04f 000e 	mov.w	r0, #14
   8300e:	47a0      	blx	r4
	 * In new designs IOPORT is used instead.
	 * Here IOPORT must be initialized for others to use before setting up IO.
	 */
	ioport_init();
	/* Configure LED pins */
	gpio_configure_pin(LED0_GPIO, LED0_FLAGS);
   83010:	f04f 003b 	mov.w	r0, #59	; 0x3b
   83014:	f04f 5160 	mov.w	r1, #939524096	; 0x38000000
   83018:	f243 24cd 	movw	r4, #13005	; 0x32cd
   8301c:	f2c0 0408 	movt	r4, #8
   83020:	47a0      	blx	r4
	gpio_configure_pin(LED1_GPIO, LED1_FLAGS);
   83022:	f04f 0055 	mov.w	r0, #85	; 0x55
   83026:	f04f 5160 	mov.w	r1, #939524096	; 0x38000000
   8302a:	47a0      	blx	r4
	gpio_configure_pin(LED2_GPIO, LED2_FLAGS);
   8302c:	f04f 0056 	mov.w	r0, #86	; 0x56
   83030:	f04f 5160 	mov.w	r1, #939524096	; 0x38000000
   83034:	47a0      	blx	r4

	/* Configure Push Button pins */
	gpio_configure_pin(GPIO_PUSH_BUTTON_1, GPIO_PUSH_BUTTON_1_FLAGS);
   83036:	f04f 0068 	mov.w	r0, #104	; 0x68
   8303a:	f04f 0179 	mov.w	r1, #121	; 0x79
   8303e:	f6c2 0100 	movt	r1, #10240	; 0x2800
   83042:	47a0      	blx	r4
	gpio_configure_pin(GPIO_PUSH_BUTTON_2, GPIO_PUSH_BUTTON_2_FLAGS);
   83044:	f04f 005c 	mov.w	r0, #92	; 0x5c
   83048:	f04f 0101 	mov.w	r1, #1
   8304c:	f6c2 0100 	movt	r1, #10240	; 0x2800
   83050:	47a0      	blx	r4

#ifdef CONF_BOARD_UART_CONSOLE
	/* Configure UART pins */
	gpio_configure_group(PINS_UART_PIO, PINS_UART, PINS_UART_FLAGS);
   83052:	f44f 6060 	mov.w	r0, #3584	; 0xe00
   83056:	f2c4 000e 	movt	r0, #16398	; 0x400e
   8305a:	f44f 7140 	mov.w	r1, #768	; 0x300
   8305e:	f04f 6200 	mov.w	r2, #134217728	; 0x8000000
   83062:	f243 13f1 	movw	r3, #12785	; 0x31f1
   83066:	f2c0 0308 	movt	r3, #8
   8306a:	4798      	blx	r3
   8306c:	bd10      	pop	{r4, pc}
   8306e:	bf00      	nop

00083070 <pio_pull_up>:
 */
void pio_pull_up(Pio *p_pio, const uint32_t ul_mask,
		const uint32_t ul_pull_up_enable)
{
	/* Enable the pull-up(s) if necessary */
	if (ul_pull_up_enable) {
   83070:	b10a      	cbz	r2, 83076 <pio_pull_up+0x6>
		p_pio->PIO_PUER = ul_mask;
   83072:	6641      	str	r1, [r0, #100]	; 0x64
   83074:	4770      	bx	lr
	} else {
		p_pio->PIO_PUDR = ul_mask;
   83076:	6601      	str	r1, [r0, #96]	; 0x60
   83078:	4770      	bx	lr
   8307a:	bf00      	nop

0008307c <pio_set_peripheral>:
		const uint32_t ul_mask)
{
	uint32_t ul_sr;

	/* Disable interrupts on the pin(s) */
	p_pio->PIO_IDR = ul_mask;
   8307c:	6442      	str	r2, [r0, #68]	; 0x44
	case PIO_OUTPUT_1:
	case PIO_NOT_A_PIN:
		return;
	}
#elif (SAM3XA|| SAM3U)
	switch (ul_type) {
   8307e:	f1b1 5f80 	cmp.w	r1, #268435456	; 0x10000000
   83082:	d016      	beq.n	830b2 <pio_set_peripheral+0x36>
   83084:	d804      	bhi.n	83090 <pio_set_peripheral+0x14>
   83086:	b1c9      	cbz	r1, 830bc <pio_set_peripheral+0x40>
   83088:	f1b1 6f00 	cmp.w	r1, #134217728	; 0x8000000
   8308c:	d115      	bne.n	830ba <pio_set_peripheral+0x3e>
   8308e:	e009      	b.n	830a4 <pio_set_peripheral+0x28>
   83090:	f1b1 5f40 	cmp.w	r1, #805306368	; 0x30000000
   83094:	d012      	beq.n	830bc <pio_set_peripheral+0x40>
   83096:	f1b1 5f60 	cmp.w	r1, #939524096	; 0x38000000
   8309a:	d00f      	beq.n	830bc <pio_set_peripheral+0x40>
   8309c:	f1b1 5f20 	cmp.w	r1, #671088640	; 0x28000000
   830a0:	d10b      	bne.n	830ba <pio_set_peripheral+0x3e>
   830a2:	4770      	bx	lr
	case PIO_PERIPH_A:
		ul_sr = p_pio->PIO_ABSR;
   830a4:	6f03      	ldr	r3, [r0, #112]	; 0x70
		p_pio->PIO_ABSR &= (~ul_mask & ul_sr);
   830a6:	6f01      	ldr	r1, [r0, #112]	; 0x70
   830a8:	400b      	ands	r3, r1
   830aa:	ea23 0302 	bic.w	r3, r3, r2
   830ae:	6703      	str	r3, [r0, #112]	; 0x70
		break;
   830b0:	e003      	b.n	830ba <pio_set_peripheral+0x3e>

	case PIO_PERIPH_B:
		ul_sr = p_pio->PIO_ABSR;
   830b2:	6f03      	ldr	r3, [r0, #112]	; 0x70
		p_pio->PIO_ABSR = (ul_mask | ul_sr);
   830b4:	ea42 0103 	orr.w	r1, r2, r3
   830b8:	6701      	str	r1, [r0, #112]	; 0x70
#else
#error "Unsupported device"
#endif

	/* Remove the pins from under the control of PIO */
	p_pio->PIO_PDR = ul_mask;
   830ba:	6042      	str	r2, [r0, #4]
   830bc:	4770      	bx	lr
   830be:	bf00      	nop

000830c0 <pio_disable_interrupt>:
 * \param p_pio Pointer to a PIO instance.
 * \param ul_mask Interrupt sources bit map.
 */
void pio_disable_interrupt(Pio *p_pio, const uint32_t ul_mask)
{
	p_pio->PIO_IDR = ul_mask;
   830c0:	6441      	str	r1, [r0, #68]	; 0x44
   830c2:	4770      	bx	lr

000830c4 <pio_set_output>:
 */
void pio_set_output(Pio *p_pio, const uint32_t ul_mask,
		const uint32_t ul_default_level,
		const uint32_t ul_multidrive_enable,
		const uint32_t ul_pull_up_enable)
{
   830c4:	b5f8      	push	{r3, r4, r5, r6, r7, lr}
   830c6:	4604      	mov	r4, r0
   830c8:	460d      	mov	r5, r1
   830ca:	4616      	mov	r6, r2
   830cc:	461f      	mov	r7, r3
	pio_disable_interrupt(p_pio, ul_mask);
   830ce:	f243 03c1 	movw	r3, #12481	; 0x30c1
   830d2:	f2c0 0308 	movt	r3, #8
   830d6:	4798      	blx	r3
	pio_pull_up(p_pio, ul_mask, ul_pull_up_enable);
   830d8:	4620      	mov	r0, r4
   830da:	4629      	mov	r1, r5
   830dc:	9a06      	ldr	r2, [sp, #24]
   830de:	f243 0371 	movw	r3, #12401	; 0x3071
   830e2:	f2c0 0308 	movt	r3, #8
   830e6:	4798      	blx	r3

	/* Enable multi-drive if necessary */
	if (ul_multidrive_enable) {
   830e8:	b10f      	cbz	r7, 830ee <pio_set_output+0x2a>
		p_pio->PIO_MDER = ul_mask;
   830ea:	6525      	str	r5, [r4, #80]	; 0x50
   830ec:	e000      	b.n	830f0 <pio_set_output+0x2c>
	} else {
		p_pio->PIO_MDDR = ul_mask;
   830ee:	6565      	str	r5, [r4, #84]	; 0x54
	}

	/* Set default value */
	if (ul_default_level) {
   830f0:	b10e      	cbz	r6, 830f6 <pio_set_output+0x32>
		p_pio->PIO_SODR = ul_mask;
   830f2:	6325      	str	r5, [r4, #48]	; 0x30
   830f4:	e000      	b.n	830f8 <pio_set_output+0x34>
	} else {
		p_pio->PIO_CODR = ul_mask;
   830f6:	6365      	str	r5, [r4, #52]	; 0x34
	}

	/* Configure pin(s) as output(s) */
	p_pio->PIO_OER = ul_mask;
   830f8:	6125      	str	r5, [r4, #16]
	p_pio->PIO_PER = ul_mask;
   830fa:	6025      	str	r5, [r4, #0]
   830fc:	bdf8      	pop	{r3, r4, r5, r6, r7, pc}
   830fe:	bf00      	nop

00083100 <pio_set_input>:
 * \param ul_mask Bitmask indicating which pin(s) to configure as input(s).
 * \param ul_attribute PIO attribute(s).
 */
void pio_set_input(Pio *p_pio, const uint32_t ul_mask,
		const uint32_t ul_attribute)
{
   83100:	b570      	push	{r4, r5, r6, lr}
   83102:	4604      	mov	r4, r0
   83104:	460d      	mov	r5, r1
   83106:	4616      	mov	r6, r2
	pio_disable_interrupt(p_pio, ul_mask);
   83108:	f243 03c1 	movw	r3, #12481	; 0x30c1
   8310c:	f2c0 0308 	movt	r3, #8
   83110:	4798      	blx	r3
	pio_pull_up(p_pio, ul_mask, ul_attribute & PIO_PULLUP);
   83112:	4620      	mov	r0, r4
   83114:	4629      	mov	r1, r5
   83116:	f006 0201 	and.w	r2, r6, #1
   8311a:	f243 0371 	movw	r3, #12401	; 0x3071
   8311e:	f2c0 0308 	movt	r3, #8
   83122:	4798      	blx	r3

	/* Enable Input Filter if necessary */
	if (ul_attribute & (PIO_DEGLITCH | PIO_DEBOUNCE)) {
   83124:	f016 0f0a 	tst.w	r6, #10
		p_pio->PIO_IFER = ul_mask;
   83128:	bf14      	ite	ne
   8312a:	6225      	strne	r5, [r4, #32]
	} else {
		p_pio->PIO_IFDR = ul_mask;
   8312c:	6265      	streq	r5, [r4, #36]	; 0x24
			p_pio->PIO_IFSCER = ul_mask;
		}
	}
#elif (SAM3XA|| SAM3U)
	/* Enable de-glitch or de-bounce if necessary */
	if (ul_attribute & PIO_DEGLITCH) {
   8312e:	f016 0f02 	tst.w	r6, #2
   83132:	d002      	beq.n	8313a <pio_set_input+0x3a>
		p_pio->PIO_SCIFSR = ul_mask;
   83134:	f8c4 5080 	str.w	r5, [r4, #128]	; 0x80
   83138:	e004      	b.n	83144 <pio_set_input+0x44>
	} else {
		if (ul_attribute & PIO_DEBOUNCE) {
   8313a:	f016 0f08 	tst.w	r6, #8
			p_pio->PIO_DIFSR = ul_mask;
   8313e:	bf18      	it	ne
   83140:	f8c4 5084 	strne.w	r5, [r4, #132]	; 0x84
#else
#error "Unsupported device"
#endif

	/* Configure pin as input */
	p_pio->PIO_ODR = ul_mask;
   83144:	6165      	str	r5, [r4, #20]
	p_pio->PIO_PER = ul_mask;
   83146:	6025      	str	r5, [r4, #0]
   83148:	bd70      	pop	{r4, r5, r6, pc}
   8314a:	bf00      	nop

0008314c <pio_configure>:
 *
 * \return Whether the pin(s) have been configured properly.
 */
uint32_t pio_configure(Pio *p_pio, const pio_type_t ul_type,
		const uint32_t ul_mask, const uint32_t ul_attribute)
{
   8314c:	b5f0      	push	{r4, r5, r6, r7, lr}
   8314e:	b083      	sub	sp, #12
   83150:	4607      	mov	r7, r0
   83152:	460c      	mov	r4, r1
   83154:	4616      	mov	r6, r2
   83156:	461d      	mov	r5, r3
	/* Configure pins */
	switch (ul_type) {
   83158:	f1b1 5f20 	cmp.w	r1, #671088640	; 0x28000000
   8315c:	d022      	beq.n	831a4 <pio_configure+0x58>
   8315e:	d806      	bhi.n	8316e <pio_configure+0x22>
   83160:	f1b1 6f00 	cmp.w	r1, #134217728	; 0x8000000
   83164:	d00a      	beq.n	8317c <pio_configure+0x30>
   83166:	f1b1 5f80 	cmp.w	r1, #268435456	; 0x10000000
   8316a:	d139      	bne.n	831e0 <pio_configure+0x94>
   8316c:	e006      	b.n	8317c <pio_configure+0x30>
   8316e:	f1b1 5f40 	cmp.w	r1, #805306368	; 0x30000000
   83172:	d021      	beq.n	831b8 <pio_configure+0x6c>
   83174:	f1b1 5f60 	cmp.w	r1, #939524096	; 0x38000000
   83178:	d132      	bne.n	831e0 <pio_configure+0x94>
   8317a:	e01d      	b.n	831b8 <pio_configure+0x6c>
	case PIO_PERIPH_B:
#if (SAM3S || SAM3N || SAM4S || SAM4E || SAM4N || SAM4C || SAM4CP || SAM4CM)
	case PIO_PERIPH_C:
	case PIO_PERIPH_D:
#endif
		pio_set_peripheral(p_pio, ul_type, ul_mask);
   8317c:	4638      	mov	r0, r7
   8317e:	4621      	mov	r1, r4
   83180:	4632      	mov	r2, r6
   83182:	f243 037d 	movw	r3, #12413	; 0x307d
   83186:	f2c0 0308 	movt	r3, #8
   8318a:	4798      	blx	r3
		pio_pull_up(p_pio, ul_mask, (ul_attribute & PIO_PULLUP));
   8318c:	4638      	mov	r0, r7
   8318e:	4631      	mov	r1, r6
   83190:	f005 0201 	and.w	r2, r5, #1
   83194:	f243 0371 	movw	r3, #12401	; 0x3071
   83198:	f2c0 0308 	movt	r3, #8
   8319c:	4798      	blx	r3

	default:
		return 0;
	}

	return 1;
   8319e:	f04f 0001 	mov.w	r0, #1
	case PIO_PERIPH_C:
	case PIO_PERIPH_D:
#endif
		pio_set_peripheral(p_pio, ul_type, ul_mask);
		pio_pull_up(p_pio, ul_mask, (ul_attribute & PIO_PULLUP));
		break;
   831a2:	e01f      	b.n	831e4 <pio_configure+0x98>

	case PIO_INPUT:
		pio_set_input(p_pio, ul_mask, ul_attribute);
   831a4:	4611      	mov	r1, r2
   831a6:	461a      	mov	r2, r3
   831a8:	f243 1301 	movw	r3, #12545	; 0x3101
   831ac:	f2c0 0308 	movt	r3, #8
   831b0:	4798      	blx	r3

	default:
		return 0;
	}

	return 1;
   831b2:	f04f 0001 	mov.w	r0, #1
		pio_pull_up(p_pio, ul_mask, (ul_attribute & PIO_PULLUP));
		break;

	case PIO_INPUT:
		pio_set_input(p_pio, ul_mask, ul_attribute);
		break;
   831b6:	e015      	b.n	831e4 <pio_configure+0x98>

	case PIO_OUTPUT_0:
	case PIO_OUTPUT_1:
		pio_set_output(p_pio, ul_mask, (ul_type == PIO_OUTPUT_1),
   831b8:	f005 0001 	and.w	r0, r5, #1
   831bc:	9000      	str	r0, [sp, #0]
   831be:	4638      	mov	r0, r7
   831c0:	4631      	mov	r1, r6
   831c2:	f1b4 5f60 	cmp.w	r4, #939524096	; 0x38000000
   831c6:	bf14      	ite	ne
   831c8:	2200      	movne	r2, #0
   831ca:	2201      	moveq	r2, #1
   831cc:	f3c5 0380 	ubfx	r3, r5, #2, #1
   831d0:	f243 04c5 	movw	r4, #12485	; 0x30c5
   831d4:	f2c0 0408 	movt	r4, #8
   831d8:	47a0      	blx	r4

	default:
		return 0;
	}

	return 1;
   831da:	f04f 0001 	mov.w	r0, #1
	case PIO_OUTPUT_0:
	case PIO_OUTPUT_1:
		pio_set_output(p_pio, ul_mask, (ul_type == PIO_OUTPUT_1),
				(ul_attribute & PIO_OPENDRAIN) ? 1 : 0,
				(ul_attribute & PIO_PULLUP) ? 1 : 0);
		break;
   831de:	e001      	b.n	831e4 <pio_configure+0x98>

	default:
		return 0;
   831e0:	f04f 0000 	mov.w	r0, #0
	}

	return 1;
}
   831e4:	b003      	add	sp, #12
   831e6:	bdf0      	pop	{r4, r5, r6, r7, pc}

000831e8 <pio_get_interrupt_status>:
 *
 * \return The interrupt status mask value.
 */
uint32_t pio_get_interrupt_status(const Pio *p_pio)
{
	return p_pio->PIO_ISR;
   831e8:	6cc0      	ldr	r0, [r0, #76]	; 0x4c
}
   831ea:	4770      	bx	lr

000831ec <pio_get_interrupt_mask>:
 *
 * \return The interrupt mask value.
 */
uint32_t pio_get_interrupt_mask(const Pio *p_pio)
{
	return p_pio->PIO_IMR;
   831ec:	6c80      	ldr	r0, [r0, #72]	; 0x48
}
   831ee:	4770      	bx	lr

000831f0 <pio_configure_pin_group>:
 *
 * \return Whether the pin(s) have been configured properly.
 */
uint32_t pio_configure_pin_group(Pio *p_pio,
		uint32_t ul_mask, const uint32_t ul_flags)
{
   831f0:	b5f0      	push	{r4, r5, r6, r7, lr}
   831f2:	b083      	sub	sp, #12
   831f4:	4607      	mov	r7, r0
   831f6:	460e      	mov	r6, r1
   831f8:	4615      	mov	r5, r2
	/* Configure pins */
	switch (ul_flags & PIO_TYPE_Msk) {
   831fa:	f002 44f0 	and.w	r4, r2, #2013265920	; 0x78000000
   831fe:	f1b4 5f20 	cmp.w	r4, #671088640	; 0x28000000
   83202:	d036      	beq.n	83272 <pio_configure_pin_group+0x82>
   83204:	d806      	bhi.n	83214 <pio_configure_pin_group+0x24>
   83206:	f1b4 6f00 	cmp.w	r4, #134217728	; 0x8000000
   8320a:	d00a      	beq.n	83222 <pio_configure_pin_group+0x32>
   8320c:	f1b4 5f80 	cmp.w	r4, #268435456	; 0x10000000
   83210:	d14d      	bne.n	832ae <pio_configure_pin_group+0xbe>
   83212:	e01a      	b.n	8324a <pio_configure_pin_group+0x5a>
   83214:	f1b4 5f40 	cmp.w	r4, #805306368	; 0x30000000
   83218:	d033      	beq.n	83282 <pio_configure_pin_group+0x92>
   8321a:	f1b4 5f60 	cmp.w	r4, #939524096	; 0x38000000
   8321e:	d146      	bne.n	832ae <pio_configure_pin_group+0xbe>
   83220:	e02f      	b.n	83282 <pio_configure_pin_group+0x92>
	case PIO_TYPE_PIO_PERIPH_A:
		pio_set_peripheral(p_pio, PIO_PERIPH_A, ul_mask);
   83222:	f04f 6100 	mov.w	r1, #134217728	; 0x8000000
   83226:	4632      	mov	r2, r6
   83228:	f243 037d 	movw	r3, #12413	; 0x307d
   8322c:	f2c0 0308 	movt	r3, #8
   83230:	4798      	blx	r3
		pio_pull_up(p_pio, ul_mask, (ul_flags & PIO_PULLUP));
   83232:	4638      	mov	r0, r7
   83234:	4631      	mov	r1, r6
   83236:	f005 0201 	and.w	r2, r5, #1
   8323a:	f243 0371 	movw	r3, #12401	; 0x3071
   8323e:	f2c0 0308 	movt	r3, #8
   83242:	4798      	blx	r3

	default:
		return 0;
	}

	return 1;
   83244:	f04f 0001 	mov.w	r0, #1
	/* Configure pins */
	switch (ul_flags & PIO_TYPE_Msk) {
	case PIO_TYPE_PIO_PERIPH_A:
		pio_set_peripheral(p_pio, PIO_PERIPH_A, ul_mask);
		pio_pull_up(p_pio, ul_mask, (ul_flags & PIO_PULLUP));
		break;
   83248:	e033      	b.n	832b2 <pio_configure_pin_group+0xc2>
	case PIO_TYPE_PIO_PERIPH_B:
		pio_set_peripheral(p_pio, PIO_PERIPH_B, ul_mask);
   8324a:	f04f 5180 	mov.w	r1, #268435456	; 0x10000000
   8324e:	4632      	mov	r2, r6
   83250:	f243 037d 	movw	r3, #12413	; 0x307d
   83254:	f2c0 0308 	movt	r3, #8
   83258:	4798      	blx	r3
		pio_pull_up(p_pio, ul_mask, (ul_flags & PIO_PULLUP));
   8325a:	4638      	mov	r0, r7
   8325c:	4631      	mov	r1, r6
   8325e:	f005 0201 	and.w	r2, r5, #1
   83262:	f243 0371 	movw	r3, #12401	; 0x3071
   83266:	f2c0 0308 	movt	r3, #8
   8326a:	4798      	blx	r3

	default:
		return 0;
	}

	return 1;
   8326c:	f04f 0001 	mov.w	r0, #1
		pio_pull_up(p_pio, ul_mask, (ul_flags & PIO_PULLUP));
		break;
	case PIO_TYPE_PIO_PERIPH_B:
		pio_set_peripheral(p_pio, PIO_PERIPH_B, ul_mask);
		pio_pull_up(p_pio, ul_mask, (ul_flags & PIO_PULLUP));
		break;
   83270:	e01f      	b.n	832b2 <pio_configure_pin_group+0xc2>
		pio_pull_up(p_pio, ul_mask, (ul_flags & PIO_PULLUP));
		break;
#endif

	case PIO_TYPE_PIO_INPUT:
		pio_set_input(p_pio, ul_mask, ul_flags);
   83272:	f243 1301 	movw	r3, #12545	; 0x3101
   83276:	f2c0 0308 	movt	r3, #8
   8327a:	4798      	blx	r3

	default:
		return 0;
	}

	return 1;
   8327c:	f04f 0001 	mov.w	r0, #1
		break;
#endif

	case PIO_TYPE_PIO_INPUT:
		pio_set_input(p_pio, ul_mask, ul_flags);
		break;
   83280:	e017      	b.n	832b2 <pio_configure_pin_group+0xc2>

	case PIO_TYPE_PIO_OUTPUT_0:
	case PIO_TYPE_PIO_OUTPUT_1:
		pio_set_output(p_pio, ul_mask,
				((ul_flags & PIO_TYPE_PIO_OUTPUT_1)
   83282:	f005 5260 	and.w	r2, r5, #939524096	; 0x38000000
		pio_set_input(p_pio, ul_mask, ul_flags);
		break;

	case PIO_TYPE_PIO_OUTPUT_0:
	case PIO_TYPE_PIO_OUTPUT_1:
		pio_set_output(p_pio, ul_mask,
   83286:	f005 0001 	and.w	r0, r5, #1
   8328a:	9000      	str	r0, [sp, #0]
   8328c:	4638      	mov	r0, r7
   8328e:	4631      	mov	r1, r6
   83290:	f1b2 5f60 	cmp.w	r2, #939524096	; 0x38000000
   83294:	bf14      	ite	ne
   83296:	2200      	movne	r2, #0
   83298:	2201      	moveq	r2, #1
   8329a:	f3c5 0380 	ubfx	r3, r5, #2, #1
   8329e:	f243 04c5 	movw	r4, #12485	; 0x30c5
   832a2:	f2c0 0408 	movt	r4, #8
   832a6:	47a0      	blx	r4

	default:
		return 0;
	}

	return 1;
   832a8:	f04f 0001 	mov.w	r0, #1
		pio_set_output(p_pio, ul_mask,
				((ul_flags & PIO_TYPE_PIO_OUTPUT_1)
				== PIO_TYPE_PIO_OUTPUT_1) ? 1 : 0,
				(ul_flags & PIO_OPENDRAIN) ? 1 : 0,
				(ul_flags & PIO_PULLUP) ? 1 : 0);
		break;
   832ac:	e001      	b.n	832b2 <pio_configure_pin_group+0xc2>

	default:
		return 0;
   832ae:	f04f 0000 	mov.w	r0, #0
	}

	return 1;
}
   832b2:	b003      	add	sp, #12
   832b4:	bdf0      	pop	{r4, r5, r6, r7, pc}
   832b6:	bf00      	nop

000832b8 <pio_get_pin_group>:
		p_pio = PIOC;
	} else {
		p_pio = (Pio *)((uint32_t)PIOA + (PIO_DELTA * (ul_pin >> 5)));
	}
#else
	p_pio = (Pio *)((uint32_t)PIOA + (PIO_DELTA * (ul_pin >> 5)));
   832b8:	ea4f 1050 	mov.w	r0, r0, lsr #5
   832bc:	f500 1100 	add.w	r1, r0, #2097152	; 0x200000
   832c0:	f201 7207 	addw	r2, r1, #1799	; 0x707
#endif
	return p_pio;
}
   832c4:	ea4f 2042 	mov.w	r0, r2, lsl #9
   832c8:	4770      	bx	lr
   832ca:	bf00      	nop

000832cc <pio_configure_pin>:
 * \param ul_flags Pins attributes.
 *
 * \return Whether the pin(s) have been configured properly.
 */
uint32_t pio_configure_pin(uint32_t ul_pin, const uint32_t ul_flags)
{
   832cc:	b5f0      	push	{r4, r5, r6, r7, lr}
   832ce:	b083      	sub	sp, #12
   832d0:	4607      	mov	r7, r0
   832d2:	460d      	mov	r5, r1
	Pio *p_pio = pio_get_pin_group(ul_pin);
   832d4:	f243 23b9 	movw	r3, #12985	; 0x32b9
   832d8:	f2c0 0308 	movt	r3, #8
   832dc:	4798      	blx	r3
   832de:	4606      	mov	r6, r0

	/* Configure pins */
	switch (ul_flags & PIO_TYPE_Msk) {
   832e0:	f005 44f0 	and.w	r4, r5, #2013265920	; 0x78000000
   832e4:	f1b4 5f20 	cmp.w	r4, #671088640	; 0x28000000
   832e8:	d041      	beq.n	8336e <pio_configure_pin+0xa2>
   832ea:	d806      	bhi.n	832fa <pio_configure_pin+0x2e>
   832ec:	f1b4 6f00 	cmp.w	r4, #134217728	; 0x8000000
   832f0:	d00a      	beq.n	83308 <pio_configure_pin+0x3c>
   832f2:	f1b4 5f80 	cmp.w	r4, #268435456	; 0x10000000
   832f6:	d162      	bne.n	833be <pio_configure_pin+0xf2>
   832f8:	e020      	b.n	8333c <pio_configure_pin+0x70>
   832fa:	f1b4 5f40 	cmp.w	r4, #805306368	; 0x30000000
   832fe:	d044      	beq.n	8338a <pio_configure_pin+0xbe>
   83300:	f1b4 5f60 	cmp.w	r4, #939524096	; 0x38000000
   83304:	d15b      	bne.n	833be <pio_configure_pin+0xf2>
   83306:	e040      	b.n	8338a <pio_configure_pin+0xbe>
	case PIO_TYPE_PIO_PERIPH_A:
		pio_set_peripheral(p_pio, PIO_PERIPH_A, (1 << (ul_pin & 0x1F)));
   83308:	f007 001f 	and.w	r0, r7, #31
   8330c:	f04f 0401 	mov.w	r4, #1
   83310:	fa04 f700 	lsl.w	r7, r4, r0
   83314:	4630      	mov	r0, r6
   83316:	f04f 6100 	mov.w	r1, #134217728	; 0x8000000
   8331a:	463a      	mov	r2, r7
   8331c:	f243 037d 	movw	r3, #12413	; 0x307d
   83320:	f2c0 0308 	movt	r3, #8
   83324:	4798      	blx	r3
		pio_pull_up(p_pio, (1 << (ul_pin & 0x1F)),
   83326:	4630      	mov	r0, r6
   83328:	4639      	mov	r1, r7
   8332a:	ea05 0204 	and.w	r2, r5, r4
   8332e:	f243 0371 	movw	r3, #12401	; 0x3071
   83332:	f2c0 0308 	movt	r3, #8
   83336:	4798      	blx	r3

	default:
		return 0;
	}

	return 1;
   83338:	4620      	mov	r0, r4
	switch (ul_flags & PIO_TYPE_Msk) {
	case PIO_TYPE_PIO_PERIPH_A:
		pio_set_peripheral(p_pio, PIO_PERIPH_A, (1 << (ul_pin & 0x1F)));
		pio_pull_up(p_pio, (1 << (ul_pin & 0x1F)),
				(ul_flags & PIO_PULLUP));
		break;
   8333a:	e042      	b.n	833c2 <pio_configure_pin+0xf6>
	case PIO_TYPE_PIO_PERIPH_B:
		pio_set_peripheral(p_pio, PIO_PERIPH_B, (1 << (ul_pin & 0x1F)));
   8333c:	f007 071f 	and.w	r7, r7, #31
   83340:	f04f 0401 	mov.w	r4, #1
   83344:	fa04 f707 	lsl.w	r7, r4, r7
   83348:	f04f 5180 	mov.w	r1, #268435456	; 0x10000000
   8334c:	463a      	mov	r2, r7
   8334e:	f243 037d 	movw	r3, #12413	; 0x307d
   83352:	f2c0 0308 	movt	r3, #8
   83356:	4798      	blx	r3
		pio_pull_up(p_pio, (1 << (ul_pin & 0x1F)),
   83358:	4630      	mov	r0, r6
   8335a:	4639      	mov	r1, r7
   8335c:	ea05 0204 	and.w	r2, r5, r4
   83360:	f243 0371 	movw	r3, #12401	; 0x3071
   83364:	f2c0 0308 	movt	r3, #8
   83368:	4798      	blx	r3

	default:
		return 0;
	}

	return 1;
   8336a:	4620      	mov	r0, r4
		break;
	case PIO_TYPE_PIO_PERIPH_B:
		pio_set_peripheral(p_pio, PIO_PERIPH_B, (1 << (ul_pin & 0x1F)));
		pio_pull_up(p_pio, (1 << (ul_pin & 0x1F)),
				(ul_flags & PIO_PULLUP));
		break;
   8336c:	e029      	b.n	833c2 <pio_configure_pin+0xf6>
				(ul_flags & PIO_PULLUP));
		break;
#endif

	case PIO_TYPE_PIO_INPUT:
		pio_set_input(p_pio, (1 << (ul_pin & 0x1F)), ul_flags);
   8336e:	f007 021f 	and.w	r2, r7, #31
   83372:	f04f 0401 	mov.w	r4, #1
   83376:	fa04 f102 	lsl.w	r1, r4, r2
   8337a:	462a      	mov	r2, r5
   8337c:	f243 1301 	movw	r3, #12545	; 0x3101
   83380:	f2c0 0308 	movt	r3, #8
   83384:	4798      	blx	r3

	default:
		return 0;
	}

	return 1;
   83386:	4620      	mov	r0, r4
		break;
#endif

	case PIO_TYPE_PIO_INPUT:
		pio_set_input(p_pio, (1 << (ul_pin & 0x1F)), ul_flags);
		break;
   83388:	e01b      	b.n	833c2 <pio_configure_pin+0xf6>

	case PIO_TYPE_PIO_OUTPUT_0:
	case PIO_TYPE_PIO_OUTPUT_1:
		pio_set_output(p_pio, (1 << (ul_pin & 0x1F)),
   8338a:	f007 011f 	and.w	r1, r7, #31
   8338e:	f04f 0401 	mov.w	r4, #1
				((ul_flags & PIO_TYPE_PIO_OUTPUT_1)
   83392:	f005 5260 	and.w	r2, r5, #939524096	; 0x38000000
		pio_set_input(p_pio, (1 << (ul_pin & 0x1F)), ul_flags);
		break;

	case PIO_TYPE_PIO_OUTPUT_0:
	case PIO_TYPE_PIO_OUTPUT_1:
		pio_set_output(p_pio, (1 << (ul_pin & 0x1F)),
   83396:	ea05 0004 	and.w	r0, r5, r4
   8339a:	9000      	str	r0, [sp, #0]
   8339c:	4630      	mov	r0, r6
   8339e:	fa04 f101 	lsl.w	r1, r4, r1
   833a2:	f1b2 5f60 	cmp.w	r2, #939524096	; 0x38000000
   833a6:	bf14      	ite	ne
   833a8:	2200      	movne	r2, #0
   833aa:	2201      	moveq	r2, #1
   833ac:	f3c5 0380 	ubfx	r3, r5, #2, #1
   833b0:	f243 05c5 	movw	r5, #12485	; 0x30c5
   833b4:	f2c0 0508 	movt	r5, #8
   833b8:	47a8      	blx	r5

	default:
		return 0;
	}

	return 1;
   833ba:	4620      	mov	r0, r4
		pio_set_output(p_pio, (1 << (ul_pin & 0x1F)),
				((ul_flags & PIO_TYPE_PIO_OUTPUT_1)
				== PIO_TYPE_PIO_OUTPUT_1) ? 1 : 0,
				(ul_flags & PIO_OPENDRAIN) ? 1 : 0,
				(ul_flags & PIO_PULLUP) ? 1 : 0);
		break;
   833bc:	e001      	b.n	833c2 <pio_configure_pin+0xf6>

	default:
		return 0;
   833be:	f04f 0000 	mov.w	r0, #0
	}

	return 1;
}
   833c2:	b003      	add	sp, #12
   833c4:	bdf0      	pop	{r4, r5, r6, r7, pc}
   833c6:	bf00      	nop

000833c8 <pio_handler_process>:
 *
 * \param p_pio PIO controller base address.
 * \param ul_id PIO controller ID.
 */
void pio_handler_process(Pio *p_pio, uint32_t ul_id)
{
   833c8:	b570      	push	{r4, r5, r6, lr}
   833ca:	4606      	mov	r6, r0
   833cc:	460c      	mov	r4, r1
	uint32_t status;
	uint32_t i;

	/* Read PIO controller status */
	status = pio_get_interrupt_status(p_pio);
   833ce:	f243 13e9 	movw	r3, #12777	; 0x31e9
   833d2:	f2c0 0308 	movt	r3, #8
   833d6:	4798      	blx	r3
   833d8:	4605      	mov	r5, r0
	status &= pio_get_interrupt_mask(p_pio);
   833da:	4630      	mov	r0, r6
   833dc:	f243 11ed 	movw	r1, #12781	; 0x31ed
   833e0:	f2c0 0108 	movt	r1, #8
   833e4:	4788      	blx	r1

	/* Check pending events */
	if (status != 0) {
   833e6:	4005      	ands	r5, r0
   833e8:	f000 808c 	beq.w	83504 <pio_handler_process+0x13c>
		/* Find triggering source */
		i = 0;
		while (status != 0) {
			/* Source is configured on the same controller */
			if (gs_interrupt_sources[i].id == ul_id) {
   833ec:	f64a 3054 	movw	r0, #43860	; 0xab54
   833f0:	f2c2 0007 	movt	r0, #8199	; 0x2007
   833f4:	6800      	ldr	r0, [r0, #0]
   833f6:	42a0      	cmp	r0, r4
   833f8:	d10c      	bne.n	83414 <pio_handler_process+0x4c>
				/* Source has PIOs whose statuses have changed */
				if ((status & gs_interrupt_sources[i].mask) != 0) {
   833fa:	f64a 3254 	movw	r2, #43860	; 0xab54
   833fe:	f2c2 0207 	movt	r2, #8199	; 0x2007
   83402:	6851      	ldr	r1, [r2, #4]
   83404:	420d      	tst	r5, r1
   83406:	d005      	beq.n	83414 <pio_handler_process+0x4c>
					gs_interrupt_sources[i].handler(gs_interrupt_sources[i].id,
   83408:	4616      	mov	r6, r2
   8340a:	68d3      	ldr	r3, [r2, #12]
   8340c:	4798      	blx	r3
							gs_interrupt_sources[i].mask);
					status &= ~(gs_interrupt_sources[i].mask);
   8340e:	6871      	ldr	r1, [r6, #4]

	/* Check pending events */
	if (status != 0) {
		/* Find triggering source */
		i = 0;
		while (status != 0) {
   83410:	438d      	bics	r5, r1
   83412:	d077      	beq.n	83504 <pio_handler_process+0x13c>
			/* Source is configured on the same controller */
			if (gs_interrupt_sources[i].id == ul_id) {
   83414:	f64a 3054 	movw	r0, #43860	; 0xab54
   83418:	f2c2 0007 	movt	r0, #8199	; 0x2007
   8341c:	6900      	ldr	r0, [r0, #16]
   8341e:	42a0      	cmp	r0, r4
   83420:	d10c      	bne.n	8343c <pio_handler_process+0x74>
				/* Source has PIOs whose statuses have changed */
				if ((status & gs_interrupt_sources[i].mask) != 0) {
   83422:	f64a 3254 	movw	r2, #43860	; 0xab54
   83426:	f2c2 0207 	movt	r2, #8199	; 0x2007
   8342a:	6951      	ldr	r1, [r2, #20]
   8342c:	420d      	tst	r5, r1
   8342e:	d005      	beq.n	8343c <pio_handler_process+0x74>
					gs_interrupt_sources[i].handler(gs_interrupt_sources[i].id,
   83430:	4616      	mov	r6, r2
   83432:	69d3      	ldr	r3, [r2, #28]
   83434:	4798      	blx	r3
							gs_interrupt_sources[i].mask);
					status &= ~(gs_interrupt_sources[i].mask);
   83436:	6971      	ldr	r1, [r6, #20]

	/* Check pending events */
	if (status != 0) {
		/* Find triggering source */
		i = 0;
		while (status != 0) {
   83438:	438d      	bics	r5, r1
   8343a:	d063      	beq.n	83504 <pio_handler_process+0x13c>
			/* Source is configured on the same controller */
			if (gs_interrupt_sources[i].id == ul_id) {
   8343c:	f64a 3054 	movw	r0, #43860	; 0xab54
   83440:	f2c2 0007 	movt	r0, #8199	; 0x2007
   83444:	6a00      	ldr	r0, [r0, #32]
   83446:	42a0      	cmp	r0, r4
   83448:	d10c      	bne.n	83464 <pio_handler_process+0x9c>
				/* Source has PIOs whose statuses have changed */
				if ((status & gs_interrupt_sources[i].mask) != 0) {
   8344a:	f64a 3254 	movw	r2, #43860	; 0xab54
   8344e:	f2c2 0207 	movt	r2, #8199	; 0x2007
   83452:	6a51      	ldr	r1, [r2, #36]	; 0x24
   83454:	420d      	tst	r5, r1
   83456:	d005      	beq.n	83464 <pio_handler_process+0x9c>
					gs_interrupt_sources[i].handler(gs_interrupt_sources[i].id,
   83458:	4616      	mov	r6, r2
   8345a:	6ad3      	ldr	r3, [r2, #44]	; 0x2c
   8345c:	4798      	blx	r3
							gs_interrupt_sources[i].mask);
					status &= ~(gs_interrupt_sources[i].mask);
   8345e:	6a71      	ldr	r1, [r6, #36]	; 0x24

	/* Check pending events */
	if (status != 0) {
		/* Find triggering source */
		i = 0;
		while (status != 0) {
   83460:	438d      	bics	r5, r1
   83462:	d04f      	beq.n	83504 <pio_handler_process+0x13c>
			/* Source is configured on the same controller */
			if (gs_interrupt_sources[i].id == ul_id) {
   83464:	f64a 3054 	movw	r0, #43860	; 0xab54
   83468:	f2c2 0007 	movt	r0, #8199	; 0x2007
   8346c:	6b00      	ldr	r0, [r0, #48]	; 0x30
   8346e:	42a0      	cmp	r0, r4
   83470:	d10c      	bne.n	8348c <pio_handler_process+0xc4>
				/* Source has PIOs whose statuses have changed */
				if ((status & gs_interrupt_sources[i].mask) != 0) {
   83472:	f64a 3254 	movw	r2, #43860	; 0xab54
   83476:	f2c2 0207 	movt	r2, #8199	; 0x2007
   8347a:	6b51      	ldr	r1, [r2, #52]	; 0x34
   8347c:	420d      	tst	r5, r1
   8347e:	d005      	beq.n	8348c <pio_handler_process+0xc4>
					gs_interrupt_sources[i].handler(gs_interrupt_sources[i].id,
   83480:	4616      	mov	r6, r2
   83482:	6bd3      	ldr	r3, [r2, #60]	; 0x3c
   83484:	4798      	blx	r3
							gs_interrupt_sources[i].mask);
					status &= ~(gs_interrupt_sources[i].mask);
   83486:	6b71      	ldr	r1, [r6, #52]	; 0x34

	/* Check pending events */
	if (status != 0) {
		/* Find triggering source */
		i = 0;
		while (status != 0) {
   83488:	438d      	bics	r5, r1
   8348a:	d03b      	beq.n	83504 <pio_handler_process+0x13c>
			/* Source is configured on the same controller */
			if (gs_interrupt_sources[i].id == ul_id) {
   8348c:	f64a 3054 	movw	r0, #43860	; 0xab54
   83490:	f2c2 0007 	movt	r0, #8199	; 0x2007
   83494:	6c00      	ldr	r0, [r0, #64]	; 0x40
   83496:	42a0      	cmp	r0, r4
   83498:	d10c      	bne.n	834b4 <pio_handler_process+0xec>
				/* Source has PIOs whose statuses have changed */
				if ((status & gs_interrupt_sources[i].mask) != 0) {
   8349a:	f64a 3254 	movw	r2, #43860	; 0xab54
   8349e:	f2c2 0207 	movt	r2, #8199	; 0x2007
   834a2:	6c51      	ldr	r1, [r2, #68]	; 0x44
   834a4:	420d      	tst	r5, r1
   834a6:	d005      	beq.n	834b4 <pio_handler_process+0xec>
					gs_interrupt_sources[i].handler(gs_interrupt_sources[i].id,
   834a8:	4616      	mov	r6, r2
   834aa:	6cd3      	ldr	r3, [r2, #76]	; 0x4c
   834ac:	4798      	blx	r3
							gs_interrupt_sources[i].mask);
					status &= ~(gs_interrupt_sources[i].mask);
   834ae:	6c71      	ldr	r1, [r6, #68]	; 0x44

	/* Check pending events */
	if (status != 0) {
		/* Find triggering source */
		i = 0;
		while (status != 0) {
   834b0:	438d      	bics	r5, r1
   834b2:	d027      	beq.n	83504 <pio_handler_process+0x13c>
			/* Source is configured on the same controller */
			if (gs_interrupt_sources[i].id == ul_id) {
   834b4:	f64a 3054 	movw	r0, #43860	; 0xab54
   834b8:	f2c2 0007 	movt	r0, #8199	; 0x2007
   834bc:	6d00      	ldr	r0, [r0, #80]	; 0x50
   834be:	42a0      	cmp	r0, r4
   834c0:	d10c      	bne.n	834dc <pio_handler_process+0x114>
				/* Source has PIOs whose statuses have changed */
				if ((status & gs_interrupt_sources[i].mask) != 0) {
   834c2:	f64a 3254 	movw	r2, #43860	; 0xab54
   834c6:	f2c2 0207 	movt	r2, #8199	; 0x2007
   834ca:	6d51      	ldr	r1, [r2, #84]	; 0x54
   834cc:	420d      	tst	r5, r1
   834ce:	d005      	beq.n	834dc <pio_handler_process+0x114>
					gs_interrupt_sources[i].handler(gs_interrupt_sources[i].id,
   834d0:	4616      	mov	r6, r2
   834d2:	6dd3      	ldr	r3, [r2, #92]	; 0x5c
   834d4:	4798      	blx	r3
							gs_interrupt_sources[i].mask);
					status &= ~(gs_interrupt_sources[i].mask);
   834d6:	6d71      	ldr	r1, [r6, #84]	; 0x54

	/* Check pending events */
	if (status != 0) {
		/* Find triggering source */
		i = 0;
		while (status != 0) {
   834d8:	438d      	bics	r5, r1
   834da:	d013      	beq.n	83504 <pio_handler_process+0x13c>
			/* Source is configured on the same controller */
			if (gs_interrupt_sources[i].id == ul_id) {
   834dc:	f64a 3054 	movw	r0, #43860	; 0xab54
   834e0:	f2c2 0007 	movt	r0, #8199	; 0x2007
   834e4:	6e00      	ldr	r0, [r0, #96]	; 0x60
   834e6:	42a0      	cmp	r0, r4
   834e8:	d10c      	bne.n	83504 <pio_handler_process+0x13c>
				/* Source has PIOs whose statuses have changed */
				if ((status & gs_interrupt_sources[i].mask) != 0) {
   834ea:	f64a 3254 	movw	r2, #43860	; 0xab54
   834ee:	f2c2 0207 	movt	r2, #8199	; 0x2007
   834f2:	6e51      	ldr	r1, [r2, #100]	; 0x64
   834f4:	4229      	tst	r1, r5
   834f6:	d005      	beq.n	83504 <pio_handler_process+0x13c>
					gs_interrupt_sources[i].handler(gs_interrupt_sources[i].id,
   834f8:	f64a 3354 	movw	r3, #43860	; 0xab54
   834fc:	f2c2 0307 	movt	r3, #8199	; 0x2007
   83500:	6eda      	ldr	r2, [r3, #108]	; 0x6c
   83502:	4790      	blx	r2
   83504:	bd70      	pop	{r4, r5, r6, pc}
   83506:	bf00      	nop

00083508 <PIOA_Handler>:
/**
 * \brief Parallel IO Controller A interrupt handler.
 * Redefined PIOA interrupt handler for NVIC interrupt table.
 */
void PIOA_Handler(void)
{
   83508:	b508      	push	{r3, lr}
	pio_handler_process(PIOA, ID_PIOA);
   8350a:	f44f 6060 	mov.w	r0, #3584	; 0xe00
   8350e:	f2c4 000e 	movt	r0, #16398	; 0x400e
   83512:	f04f 010b 	mov.w	r1, #11
   83516:	f243 33c9 	movw	r3, #13257	; 0x33c9
   8351a:	f2c0 0308 	movt	r3, #8
   8351e:	4798      	blx	r3
   83520:	bd08      	pop	{r3, pc}
   83522:	bf00      	nop

00083524 <PIOB_Handler>:
/**
 * \brief Parallel IO Controller B interrupt handler
 * Redefined PIOB interrupt handler for NVIC interrupt table.
 */
void PIOB_Handler(void)
{
   83524:	b508      	push	{r3, lr}
    pio_handler_process(PIOB, ID_PIOB);
   83526:	f44f 5080 	mov.w	r0, #4096	; 0x1000
   8352a:	f2c4 000e 	movt	r0, #16398	; 0x400e
   8352e:	f04f 010c 	mov.w	r1, #12
   83532:	f243 33c9 	movw	r3, #13257	; 0x33c9
   83536:	f2c0 0308 	movt	r3, #8
   8353a:	4798      	blx	r3
   8353c:	bd08      	pop	{r3, pc}
   8353e:	bf00      	nop

00083540 <PIOC_Handler>:
/**
 * \brief Parallel IO Controller C interrupt handler.
 * Redefined PIOC interrupt handler for NVIC interrupt table.
 */
void PIOC_Handler(void)
{
   83540:	b508      	push	{r3, lr}
	pio_handler_process(PIOC, ID_PIOC);
   83542:	f44f 5090 	mov.w	r0, #4608	; 0x1200
   83546:	f2c4 000e 	movt	r0, #16398	; 0x400e
   8354a:	f04f 010d 	mov.w	r1, #13
   8354e:	f243 33c9 	movw	r3, #13257	; 0x33c9
   83552:	f2c0 0308 	movt	r3, #8
   83556:	4798      	blx	r3
   83558:	bd08      	pop	{r3, pc}
   8355a:	bf00      	nop

0008355c <PIOD_Handler>:
/**
 * \brief Parallel IO Controller D interrupt handler.
 * Redefined PIOD interrupt handler for NVIC interrupt table.
 */
void PIOD_Handler(void)
{
   8355c:	b508      	push	{r3, lr}
	pio_handler_process(PIOD, ID_PIOD);
   8355e:	f44f 50a0 	mov.w	r0, #5120	; 0x1400
   83562:	f2c4 000e 	movt	r0, #16398	; 0x400e
   83566:	f04f 010e 	mov.w	r1, #14
   8356a:	f243 33c9 	movw	r3, #13257	; 0x33c9
   8356e:	f2c0 0308 	movt	r3, #8
   83572:	4798      	blx	r3
   83574:	bd08      	pop	{r3, pc}
   83576:	bf00      	nop

00083578 <pmc_switch_mck_to_pllack>:
 */
uint32_t pmc_switch_mck_to_pllack(uint32_t ul_pres)
{
	uint32_t ul_timeout;

	PMC->PMC_MCKR = (PMC->PMC_MCKR & (~PMC_MCKR_PRES_Msk)) | ul_pres;
   83578:	f44f 63c0 	mov.w	r3, #1536	; 0x600
   8357c:	f2c4 030e 	movt	r3, #16398	; 0x400e
   83580:	6b1a      	ldr	r2, [r3, #48]	; 0x30
   83582:	f022 0170 	bic.w	r1, r2, #112	; 0x70
   83586:	4308      	orrs	r0, r1
   83588:	6318      	str	r0, [r3, #48]	; 0x30
	for (ul_timeout = PMC_TIMEOUT; !(PMC->PMC_SR & PMC_SR_MCKRDY);
   8358a:	6e98      	ldr	r0, [r3, #104]	; 0x68
   8358c:	f010 0f08 	tst.w	r0, #8
   83590:	d007      	beq.n	835a2 <pmc_switch_mck_to_pllack+0x2a>
   83592:	e010      	b.n	835b6 <pmc_switch_mck_to_pllack+0x3e>
   83594:	f100 33ff 	add.w	r3, r0, #4294967295
   83598:	6e90      	ldr	r0, [r2, #104]	; 0x68
   8359a:	f010 0f08 	tst.w	r0, #8
   8359e:	d038      	beq.n	83612 <pmc_switch_mck_to_pllack+0x9a>
   835a0:	e009      	b.n	835b6 <pmc_switch_mck_to_pllack+0x3e>
   835a2:	f44f 6000 	mov.w	r0, #2048	; 0x800
   835a6:	f44f 62c0 	mov.w	r2, #1536	; 0x600
   835aa:	f2c4 020e 	movt	r2, #16398	; 0x400e
   835ae:	6e91      	ldr	r1, [r2, #104]	; 0x68
   835b0:	f011 0f08 	tst.w	r1, #8
   835b4:	d0ee      	beq.n	83594 <pmc_switch_mck_to_pllack+0x1c>
		if (ul_timeout == 0) {
			return 1;
		}
	}

	PMC->PMC_MCKR = (PMC->PMC_MCKR & (~PMC_MCKR_CSS_Msk)) |
   835b6:	f44f 61c0 	mov.w	r1, #1536	; 0x600
   835ba:	f2c4 010e 	movt	r1, #16398	; 0x400e
   835be:	6b0a      	ldr	r2, [r1, #48]	; 0x30
   835c0:	f022 0303 	bic.w	r3, r2, #3
   835c4:	f043 0002 	orr.w	r0, r3, #2
   835c8:	6308      	str	r0, [r1, #48]	; 0x30
			PMC_MCKR_CSS_PLLA_CLK;

	for (ul_timeout = PMC_TIMEOUT; !(PMC->PMC_SR & PMC_SR_MCKRDY);
   835ca:	6e89      	ldr	r1, [r1, #104]	; 0x68
   835cc:	f011 0f08 	tst.w	r1, #8
   835d0:	d009      	beq.n	835e6 <pmc_switch_mck_to_pllack+0x6e>
		if (ul_timeout == 0) {
			return 1;
		}
	}

	return 0;
   835d2:	f04f 0000 	mov.w	r0, #0
   835d6:	4770      	bx	lr
   835d8:	f103 33ff 	add.w	r3, r3, #4294967295
	}

	PMC->PMC_MCKR = (PMC->PMC_MCKR & (~PMC_MCKR_CSS_Msk)) |
			PMC_MCKR_CSS_PLLA_CLK;

	for (ul_timeout = PMC_TIMEOUT; !(PMC->PMC_SR & PMC_SR_MCKRDY);
   835dc:	6e91      	ldr	r1, [r2, #104]	; 0x68
   835de:	f011 0f08 	tst.w	r1, #8
   835e2:	d013      	beq.n	8360c <pmc_switch_mck_to_pllack+0x94>
   835e4:	e009      	b.n	835fa <pmc_switch_mck_to_pllack+0x82>
   835e6:	f44f 6300 	mov.w	r3, #2048	; 0x800
   835ea:	f44f 62c0 	mov.w	r2, #1536	; 0x600
   835ee:	f2c4 020e 	movt	r2, #16398	; 0x400e
   835f2:	6e90      	ldr	r0, [r2, #104]	; 0x68
   835f4:	f010 0f08 	tst.w	r0, #8
   835f8:	d0ee      	beq.n	835d8 <pmc_switch_mck_to_pllack+0x60>
		if (ul_timeout == 0) {
			return 1;
		}
	}

	return 0;
   835fa:	f04f 0000 	mov.w	r0, #0
   835fe:	4770      	bx	lr

	PMC->PMC_MCKR = (PMC->PMC_MCKR & (~PMC_MCKR_PRES_Msk)) | ul_pres;
	for (ul_timeout = PMC_TIMEOUT; !(PMC->PMC_SR & PMC_SR_MCKRDY);
			--ul_timeout) {
		if (ul_timeout == 0) {
			return 1;
   83600:	f04f 0001 	mov.w	r0, #1
   83604:	4770      	bx	lr
			PMC_MCKR_CSS_PLLA_CLK;

	for (ul_timeout = PMC_TIMEOUT; !(PMC->PMC_SR & PMC_SR_MCKRDY);
			--ul_timeout) {
		if (ul_timeout == 0) {
			return 1;
   83606:	f04f 0001 	mov.w	r0, #1
		}
	}

	return 0;
}
   8360a:	4770      	bx	lr
	PMC->PMC_MCKR = (PMC->PMC_MCKR & (~PMC_MCKR_CSS_Msk)) |
			PMC_MCKR_CSS_PLLA_CLK;

	for (ul_timeout = PMC_TIMEOUT; !(PMC->PMC_SR & PMC_SR_MCKRDY);
			--ul_timeout) {
		if (ul_timeout == 0) {
   8360c:	3b01      	subs	r3, #1
   8360e:	d1f0      	bne.n	835f2 <pmc_switch_mck_to_pllack+0x7a>
   83610:	e7f9      	b.n	83606 <pmc_switch_mck_to_pllack+0x8e>
	uint32_t ul_timeout;

	PMC->PMC_MCKR = (PMC->PMC_MCKR & (~PMC_MCKR_PRES_Msk)) | ul_pres;
	for (ul_timeout = PMC_TIMEOUT; !(PMC->PMC_SR & PMC_SR_MCKRDY);
			--ul_timeout) {
		if (ul_timeout == 0) {
   83612:	1e58      	subs	r0, r3, #1
   83614:	d1cb      	bne.n	835ae <pmc_switch_mck_to_pllack+0x36>
   83616:	e7f3      	b.n	83600 <pmc_switch_mck_to_pllack+0x88>

00083618 <pmc_switch_mainck_to_xtal>:
 */
void pmc_switch_mainck_to_xtal(uint32_t ul_bypass,
		uint32_t ul_xtal_startup_time)
{
	/* Enable Main Xtal oscillator */
	if (ul_bypass) {
   83618:	b188      	cbz	r0, 8363e <pmc_switch_mainck_to_xtal+0x26>
		PMC->CKGR_MOR = (PMC->CKGR_MOR & ~CKGR_MOR_MOSCXTEN) |
   8361a:	f44f 61c0 	mov.w	r1, #1536	; 0x600
   8361e:	f2c4 010e 	movt	r1, #16398	; 0x400e
   83622:	6a08      	ldr	r0, [r1, #32]
				CKGR_MOR_KEY_PASSWD | CKGR_MOR_MOSCXTBY |
   83624:	f64f 72fc 	movw	r2, #65532	; 0xfffc
   83628:	f6cf 62c8 	movt	r2, #65224	; 0xfec8
   8362c:	4002      	ands	r2, r0
   8362e:	f04f 0302 	mov.w	r3, #2
   83632:	f2c0 1337 	movt	r3, #311	; 0x137
   83636:	ea42 0003 	orr.w	r0, r2, r3
void pmc_switch_mainck_to_xtal(uint32_t ul_bypass,
		uint32_t ul_xtal_startup_time)
{
	/* Enable Main Xtal oscillator */
	if (ul_bypass) {
		PMC->CKGR_MOR = (PMC->CKGR_MOR & ~CKGR_MOR_MOSCXTEN) |
   8363a:	6208      	str	r0, [r1, #32]
   8363c:	4770      	bx	lr
				CKGR_MOR_KEY_PASSWD | CKGR_MOR_MOSCXTBY |
				CKGR_MOR_MOSCSEL;
	} else {
		PMC->CKGR_MOR = (PMC->CKGR_MOR & ~CKGR_MOR_MOSCXTBY) |
   8363e:	f44f 63c0 	mov.w	r3, #1536	; 0x600
   83642:	f2c4 030e 	movt	r3, #16398	; 0x400e
   83646:	6a1a      	ldr	r2, [r3, #32]
				CKGR_MOR_KEY_PASSWD | CKGR_MOR_MOSCXTEN |
   83648:	f422 105c 	bic.w	r0, r2, #3604480	; 0x370000
   8364c:	f020 0203 	bic.w	r2, r0, #3
   83650:	f442 105c 	orr.w	r0, r2, #3604480	; 0x370000
   83654:	f040 0201 	orr.w	r2, r0, #1
				CKGR_MOR_MOSCXTST(ul_xtal_startup_time);
   83658:	ea4f 6101 	mov.w	r1, r1, lsl #24
		PMC->CKGR_MOR = (PMC->CKGR_MOR & ~CKGR_MOR_MOSCXTEN) |
				CKGR_MOR_KEY_PASSWD | CKGR_MOR_MOSCXTBY |
				CKGR_MOR_MOSCSEL;
	} else {
		PMC->CKGR_MOR = (PMC->CKGR_MOR & ~CKGR_MOR_MOSCXTBY) |
				CKGR_MOR_KEY_PASSWD | CKGR_MOR_MOSCXTEN |
   8365c:	ea42 4011 	orr.w	r0, r2, r1, lsr #16
	if (ul_bypass) {
		PMC->CKGR_MOR = (PMC->CKGR_MOR & ~CKGR_MOR_MOSCXTEN) |
				CKGR_MOR_KEY_PASSWD | CKGR_MOR_MOSCXTBY |
				CKGR_MOR_MOSCSEL;
	} else {
		PMC->CKGR_MOR = (PMC->CKGR_MOR & ~CKGR_MOR_MOSCXTBY) |
   83660:	6218      	str	r0, [r3, #32]
				CKGR_MOR_KEY_PASSWD | CKGR_MOR_MOSCXTEN |
				CKGR_MOR_MOSCXTST(ul_xtal_startup_time);
		/* Wait the Xtal to stabilize */
		while (!(PMC->PMC_SR & PMC_SR_MOSCXTS));
   83662:	f44f 62c0 	mov.w	r2, #1536	; 0x600
   83666:	f2c4 020e 	movt	r2, #16398	; 0x400e
   8366a:	6e93      	ldr	r3, [r2, #104]	; 0x68
   8366c:	f013 0f01 	tst.w	r3, #1
   83670:	d0fb      	beq.n	8366a <pmc_switch_mainck_to_xtal+0x52>

		PMC->CKGR_MOR |= CKGR_MOR_KEY_PASSWD | CKGR_MOR_MOSCSEL;
   83672:	f44f 61c0 	mov.w	r1, #1536	; 0x600
   83676:	f2c4 010e 	movt	r1, #16398	; 0x400e
   8367a:	6a08      	ldr	r0, [r1, #32]
   8367c:	f040 729b 	orr.w	r2, r0, #20316160	; 0x1360000
   83680:	f442 3380 	orr.w	r3, r2, #65536	; 0x10000
   83684:	620b      	str	r3, [r1, #32]
   83686:	4770      	bx	lr

00083688 <pmc_osc_is_ready_mainck>:
 * \retval 1 Xtal is ready.
 * \retval 0 Xtal is not ready.
 */
uint32_t pmc_osc_is_ready_mainck(void)
{
	return PMC->PMC_SR & PMC_SR_MOSCSELS;
   83688:	f44f 63c0 	mov.w	r3, #1536	; 0x600
   8368c:	f2c4 030e 	movt	r3, #16398	; 0x400e
   83690:	6e98      	ldr	r0, [r3, #104]	; 0x68
}
   83692:	f400 3080 	and.w	r0, r0, #65536	; 0x10000
   83696:	4770      	bx	lr

00083698 <pmc_disable_pllack>:
void pmc_disable_pllack(void)
{
#if (SAM4C || SAM4CM || SAM4CP || SAMG)
	PMC->CKGR_PLLAR = CKGR_PLLAR_MULA(0);
#else
	PMC->CKGR_PLLAR = CKGR_PLLAR_ONE | CKGR_PLLAR_MULA(0);
   83698:	f44f 63c0 	mov.w	r3, #1536	; 0x600
   8369c:	f2c4 030e 	movt	r3, #16398	; 0x400e
   836a0:	f04f 5200 	mov.w	r2, #536870912	; 0x20000000
   836a4:	629a      	str	r2, [r3, #40]	; 0x28
   836a6:	4770      	bx	lr

000836a8 <pmc_is_locked_pllack>:
 * \retval 0 Not locked.
 * \retval 1 Locked.
 */
uint32_t pmc_is_locked_pllack(void)
{
	return (PMC->PMC_SR & PMC_SR_LOCKA);
   836a8:	f44f 63c0 	mov.w	r3, #1536	; 0x600
   836ac:	f2c4 030e 	movt	r3, #16398	; 0x400e
   836b0:	6e98      	ldr	r0, [r3, #104]	; 0x68
}
   836b2:	f000 0002 	and.w	r0, r0, #2
   836b6:	4770      	bx	lr

000836b8 <pmc_enable_periph_clk>:
 * \retval 0 Success.
 * \retval 1 Invalid parameter.
 */
uint32_t pmc_enable_periph_clk(uint32_t ul_id)
{
	if (ul_id > MAX_PERIPH_ID) {
   836b8:	282c      	cmp	r0, #44	; 0x2c
   836ba:	d835      	bhi.n	83728 <pmc_enable_periph_clk+0x70>
		return 1;
	}

	if (ul_id < 32) {
   836bc:	281f      	cmp	r0, #31
   836be:	d817      	bhi.n	836f0 <pmc_enable_periph_clk+0x38>
		if ((PMC->PMC_PCSR0 & (1u << ul_id)) != (1u << ul_id)) {
   836c0:	f44f 61c0 	mov.w	r1, #1536	; 0x600
   836c4:	f2c4 010e 	movt	r1, #16398	; 0x400e
   836c8:	698a      	ldr	r2, [r1, #24]
   836ca:	f04f 0301 	mov.w	r3, #1
   836ce:	fa03 f300 	lsl.w	r3, r3, r0
   836d2:	401a      	ands	r2, r3
   836d4:	4293      	cmp	r3, r2
   836d6:	d02a      	beq.n	8372e <pmc_enable_periph_clk+0x76>
			PMC->PMC_PCER0 = 1 << ul_id;
   836d8:	f04f 0101 	mov.w	r1, #1
   836dc:	fa01 f000 	lsl.w	r0, r1, r0
   836e0:	f44f 62c0 	mov.w	r2, #1536	; 0x600
   836e4:	f2c4 020e 	movt	r2, #16398	; 0x400e
   836e8:	6110      	str	r0, [r2, #16]
			PMC->PMC_PCER1 = 1 << ul_id;
		}
#endif
	}

	return 0;
   836ea:	f04f 0000 	mov.w	r0, #0
   836ee:	4770      	bx	lr
			PMC->PMC_PCER0 = 1 << ul_id;
		}
#if (SAM3S || SAM3XA || SAM4S || SAM4E || SAM4C || SAM4CM || SAM4CP)
	} else {
		ul_id -= 32;
		if ((PMC->PMC_PCSR1 & (1u << ul_id)) != (1u << ul_id)) {
   836f0:	f44f 63c0 	mov.w	r3, #1536	; 0x600
   836f4:	f2c4 030e 	movt	r3, #16398	; 0x400e
   836f8:	f8d3 2108 	ldr.w	r2, [r3, #264]	; 0x108
		if ((PMC->PMC_PCSR0 & (1u << ul_id)) != (1u << ul_id)) {
			PMC->PMC_PCER0 = 1 << ul_id;
		}
#if (SAM3S || SAM3XA || SAM4S || SAM4E || SAM4C || SAM4CM || SAM4CP)
	} else {
		ul_id -= 32;
   836fc:	f1a0 0020 	sub.w	r0, r0, #32
		if ((PMC->PMC_PCSR1 & (1u << ul_id)) != (1u << ul_id)) {
   83700:	f04f 0101 	mov.w	r1, #1
   83704:	fa01 f100 	lsl.w	r1, r1, r0
   83708:	400a      	ands	r2, r1
   8370a:	4291      	cmp	r1, r2
   8370c:	d012      	beq.n	83734 <pmc_enable_periph_clk+0x7c>
			PMC->PMC_PCER1 = 1 << ul_id;
   8370e:	f04f 0301 	mov.w	r3, #1
   83712:	fa03 f000 	lsl.w	r0, r3, r0
   83716:	f44f 62c0 	mov.w	r2, #1536	; 0x600
   8371a:	f2c4 020e 	movt	r2, #16398	; 0x400e
   8371e:	f8c2 0100 	str.w	r0, [r2, #256]	; 0x100
		}
#endif
	}

	return 0;
   83722:	f04f 0000 	mov.w	r0, #0
   83726:	4770      	bx	lr
 * \retval 1 Invalid parameter.
 */
uint32_t pmc_enable_periph_clk(uint32_t ul_id)
{
	if (ul_id > MAX_PERIPH_ID) {
		return 1;
   83728:	f04f 0001 	mov.w	r0, #1
   8372c:	4770      	bx	lr
			PMC->PMC_PCER1 = 1 << ul_id;
		}
#endif
	}

	return 0;
   8372e:	f04f 0000 	mov.w	r0, #0
   83732:	4770      	bx	lr
   83734:	f04f 0000 	mov.w	r0, #0
}
   83738:	4770      	bx	lr
   8373a:	bf00      	nop

0008373c <Dummy_Handler>:

/**
 * \brief Default interrupt handler for unused IRQs.
 */
void Dummy_Handler(void)
{
   8373c:	e7fe      	b.n	8373c <Dummy_Handler>
   8373e:	bf00      	nop

00083740 <Reset_Handler>:
/**
 * \brief This is the code that gets called on processor reset.
 * To initialize the device, and call the main() routine.
 */
void Reset_Handler(void)
{
   83740:	b538      	push	{r3, r4, r5, lr}

	/* Initialize the relocate segment */
	pSrc = &_etext;
	pDest = &_srelocate;

	if (pSrc != pDest) {
   83742:	f240 0300 	movw	r3, #0
   83746:	f2c2 0307 	movt	r3, #8199	; 0x2007
   8374a:	f649 6224 	movw	r2, #40484	; 0x9e24
   8374e:	f2c0 0208 	movt	r2, #8
   83752:	429a      	cmp	r2, r3
   83754:	d003      	beq.n	8375e <Reset_Handler+0x1e>
		for (; pDest < &_erelocate;) {
   83756:	4840      	ldr	r0, [pc, #256]	; (83858 <Reset_Handler+0x118>)
   83758:	4940      	ldr	r1, [pc, #256]	; (8385c <Reset_Handler+0x11c>)
   8375a:	4281      	cmp	r1, r0
   8375c:	d304      	bcc.n	83768 <Reset_Handler+0x28>
			*pDest++ = *pSrc++;
		}
	}

	/* Clear the zero segment */
	for (pDest = &_szero; pDest < &_ezero;) {
   8375e:	4b40      	ldr	r3, [pc, #256]	; (83860 <Reset_Handler+0x120>)
   83760:	4a40      	ldr	r2, [pc, #256]	; (83864 <Reset_Handler+0x124>)
   83762:	429a      	cmp	r2, r3
   83764:	d325      	bcc.n	837b2 <Reset_Handler+0x72>
   83766:	e042      	b.n	837ee <Reset_Handler+0xae>

/**
 * \brief This is the code that gets called on processor reset.
 * To initialize the device, and call the main() routine.
 */
void Reset_Handler(void)
   83768:	4d3f      	ldr	r5, [pc, #252]	; (83868 <Reset_Handler+0x128>)
   8376a:	4c40      	ldr	r4, [pc, #256]	; (8386c <Reset_Handler+0x12c>)
   8376c:	1b63      	subs	r3, r4, r5
   8376e:	f023 0503 	bic.w	r5, r3, #3
   83772:	f04f 0300 	mov.w	r3, #0
	pSrc = &_etext;
	pDest = &_srelocate;

	if (pSrc != pDest) {
		for (; pDest < &_erelocate;) {
			*pDest++ = *pSrc++;
   83776:	f240 0200 	movw	r2, #0
   8377a:	f2c2 0207 	movt	r2, #8199	; 0x2007
   8377e:	f649 6124 	movw	r1, #40484	; 0x9e24
   83782:	f2c0 0108 	movt	r1, #8
   83786:	f105 0004 	add.w	r0, r5, #4
   8378a:	f3c5 0480 	ubfx	r4, r5, #2, #1
   8378e:	585d      	ldr	r5, [r3, r1]
   83790:	509d      	str	r5, [r3, r2]
   83792:	f103 0304 	add.w	r3, r3, #4
	/* Initialize the relocate segment */
	pSrc = &_etext;
	pDest = &_srelocate;

	if (pSrc != pDest) {
		for (; pDest < &_erelocate;) {
   83796:	4283      	cmp	r3, r0
   83798:	d155      	bne.n	83846 <Reset_Handler+0x106>
   8379a:	e7e0      	b.n	8375e <Reset_Handler+0x1e>
			*pDest++ = *pSrc++;
   8379c:	585d      	ldr	r5, [r3, r1]
   8379e:	509d      	str	r5, [r3, r2]
   837a0:	f103 0304 	add.w	r3, r3, #4
   837a4:	585c      	ldr	r4, [r3, r1]
   837a6:	509c      	str	r4, [r3, r2]
   837a8:	f103 0304 	add.w	r3, r3, #4
	/* Initialize the relocate segment */
	pSrc = &_etext;
	pDest = &_srelocate;

	if (pSrc != pDest) {
		for (; pDest < &_erelocate;) {
   837ac:	4283      	cmp	r3, r0
   837ae:	d1f5      	bne.n	8379c <Reset_Handler+0x5c>
   837b0:	e7d5      	b.n	8375e <Reset_Handler+0x1e>
   837b2:	4d2f      	ldr	r5, [pc, #188]	; (83870 <Reset_Handler+0x130>)

/**
 * \brief This is the code that gets called on processor reset.
 * To initialize the device, and call the main() routine.
 */
void Reset_Handler(void)
   837b4:	492f      	ldr	r1, [pc, #188]	; (83874 <Reset_Handler+0x134>)
   837b6:	1b48      	subs	r0, r1, r5
   837b8:	f020 0403 	bic.w	r4, r0, #3
   837bc:	f640 1308 	movw	r3, #2312	; 0x908
   837c0:	f2c2 0307 	movt	r3, #8199	; 0x2007
   837c4:	18e2      	adds	r2, r4, r3
		}
	}

	/* Clear the zero segment */
	for (pDest = &_szero; pDest < &_ezero;) {
		*pDest++ = 0;
   837c6:	f04f 0100 	mov.w	r1, #0
   837ca:	1b50      	subs	r0, r2, r5
   837cc:	f1a0 0004 	sub.w	r0, r0, #4
   837d0:	f3c0 0480 	ubfx	r4, r0, #2, #1
   837d4:	f845 1f04 	str.w	r1, [r5, #4]!
			*pDest++ = *pSrc++;
		}
	}

	/* Clear the zero segment */
	for (pDest = &_szero; pDest < &_ezero;) {
   837d8:	4295      	cmp	r5, r2
   837da:	d12d      	bne.n	83838 <Reset_Handler+0xf8>
   837dc:	e007      	b.n	837ee <Reset_Handler+0xae>
   837de:	f105 0304 	add.w	r3, r5, #4
		*pDest++ = 0;
   837e2:	6069      	str	r1, [r5, #4]
   837e4:	f105 0508 	add.w	r5, r5, #8
   837e8:	6059      	str	r1, [r3, #4]
			*pDest++ = *pSrc++;
		}
	}

	/* Clear the zero segment */
	for (pDest = &_szero; pDest < &_ezero;) {
   837ea:	4295      	cmp	r5, r2
   837ec:	d1f7      	bne.n	837de <Reset_Handler+0x9e>
		*pDest++ = 0;
	}

	/* Set the vector table base address */
	pSrc = (uint32_t *) & _sfixed;
	SCB->VTOR = ((uint32_t) pSrc & SCB_VTOR_TBLOFF_Msk);
   837ee:	f240 0500 	movw	r5, #0
   837f2:	f2c0 0508 	movt	r5, #8
   837f6:	f025 4260 	bic.w	r2, r5, #3758096384	; 0xe0000000
   837fa:	f022 017f 	bic.w	r1, r2, #127	; 0x7f
   837fe:	f44f 406d 	mov.w	r0, #60672	; 0xed00
   83802:	f2ce 0000 	movt	r0, #57344	; 0xe000
   83806:	6081      	str	r1, [r0, #8]

	if (((uint32_t) pSrc >= IRAM0_ADDR) && ((uint32_t) pSrc < NFC_RAM_ADDR)) {
   83808:	f105 4460 	add.w	r4, r5, #3758096384	; 0xe0000000
   8380c:	f5b4 1f80 	cmp.w	r4, #1048576	; 0x100000
   83810:	d207      	bcs.n	83822 <Reset_Handler+0xe2>
		SCB->VTOR |= 1 << SCB_VTOR_TBLBASE_Pos;
   83812:	f44f 436d 	mov.w	r3, #60672	; 0xed00
   83816:	f2ce 0300 	movt	r3, #57344	; 0xe000
   8381a:	689d      	ldr	r5, [r3, #8]
   8381c:	f045 5200 	orr.w	r2, r5, #536870912	; 0x20000000
   83820:	609a      	str	r2, [r3, #8]
	}

	/* Initialize the C library */
	__libc_init_array();
   83822:	f244 41c5 	movw	r1, #17605	; 0x44c5
   83826:	f2c0 0108 	movt	r1, #8
   8382a:	4788      	blx	r1

	/* Branch to main function */
	main();
   8382c:	f643 3075 	movw	r0, #15221	; 0x3b75
   83830:	f2c0 0008 	movt	r0, #8
   83834:	4780      	blx	r0
   83836:	e7fe      	b.n	83836 <Reset_Handler+0xf6>
   83838:	2c00      	cmp	r4, #0
   8383a:	d0d0      	beq.n	837de <Reset_Handler+0x9e>
		}
	}

	/* Clear the zero segment */
	for (pDest = &_szero; pDest < &_ezero;) {
		*pDest++ = 0;
   8383c:	f845 1f04 	str.w	r1, [r5, #4]!
			*pDest++ = *pSrc++;
		}
	}

	/* Clear the zero segment */
	for (pDest = &_szero; pDest < &_ezero;) {
   83840:	4295      	cmp	r5, r2
   83842:	d1cc      	bne.n	837de <Reset_Handler+0x9e>
   83844:	e7d3      	b.n	837ee <Reset_Handler+0xae>
   83846:	2c00      	cmp	r4, #0
   83848:	d0a8      	beq.n	8379c <Reset_Handler+0x5c>
	pSrc = &_etext;
	pDest = &_srelocate;

	if (pSrc != pDest) {
		for (; pDest < &_erelocate;) {
			*pDest++ = *pSrc++;
   8384a:	585c      	ldr	r4, [r3, r1]
   8384c:	509c      	str	r4, [r3, r2]
   8384e:	f103 0304 	add.w	r3, r3, #4
	/* Initialize the relocate segment */
	pSrc = &_etext;
	pDest = &_srelocate;

	if (pSrc != pDest) {
		for (; pDest < &_erelocate;) {
   83852:	4283      	cmp	r3, r0
   83854:	d1a2      	bne.n	8379c <Reset_Handler+0x5c>
   83856:	e782      	b.n	8375e <Reset_Handler+0x1e>
   83858:	20070908 	.word	0x20070908
   8385c:	20070000 	.word	0x20070000
   83860:	2007adfc 	.word	0x2007adfc
   83864:	20070908 	.word	0x20070908
   83868:	20070004 	.word	0x20070004
   8386c:	2007090b 	.word	0x2007090b
   83870:	20070904 	.word	0x20070904
   83874:	2007adf7 	.word	0x2007adf7

00083878 <SystemCoreClockUpdate>:
}

void SystemCoreClockUpdate(void)
{
	/* Determine clock frequency according to clock register values */
	switch (PMC->PMC_MCKR & PMC_MCKR_CSS_Msk) {
   83878:	f44f 63c0 	mov.w	r3, #1536	; 0x600
   8387c:	f2c4 030e 	movt	r3, #16398	; 0x400e
   83880:	6b18      	ldr	r0, [r3, #48]	; 0x30
   83882:	f000 0103 	and.w	r1, r0, #3
   83886:	2903      	cmp	r1, #3
   83888:	f200 80b1 	bhi.w	839ee <SystemCoreClockUpdate+0x176>
   8388c:	e8df f001 	tbb	[pc, r1]
   83890:	4f4f1402 	.word	0x4f4f1402
	case PMC_MCKR_CSS_SLOW_CLK:	/* Slow clock */
		if (SUPC->SUPC_SR & SUPC_SR_OSCSEL) {
   83894:	f641 2010 	movw	r0, #6672	; 0x1a10
   83898:	f2c4 000e 	movt	r0, #16398	; 0x400e
   8389c:	6941      	ldr	r1, [r0, #20]
   8389e:	f011 0f80 	tst.w	r1, #128	; 0x80
			SystemCoreClock = CHIP_FREQ_XTAL_32K;
   838a2:	f240 0314 	movw	r3, #20
   838a6:	f2c2 0307 	movt	r3, #8199	; 0x2007
   838aa:	bf14      	ite	ne
   838ac:	f44f 4200 	movne.w	r2, #32768	; 0x8000
		} else {
			SystemCoreClock = CHIP_FREQ_SLCK_RC;
   838b0:	f44f 42fa 	moveq.w	r2, #32000	; 0x7d00
   838b4:	601a      	str	r2, [r3, #0]
   838b6:	e09a      	b.n	839ee <SystemCoreClockUpdate+0x176>
		}
		break;
	case PMC_MCKR_CSS_MAIN_CLK:	/* Main clock */
		if (PMC->CKGR_MOR & CKGR_MOR_MOSCSEL) {
   838b8:	f44f 63c0 	mov.w	r3, #1536	; 0x600
   838bc:	f2c4 030e 	movt	r3, #16398	; 0x400e
   838c0:	6a18      	ldr	r0, [r3, #32]
   838c2:	f010 7f80 	tst.w	r0, #16777216	; 0x1000000
   838c6:	d009      	beq.n	838dc <SystemCoreClockUpdate+0x64>
			SystemCoreClock = CHIP_FREQ_XTAL_12M;
   838c8:	f44f 53d8 	mov.w	r3, #6912	; 0x1b00
   838cc:	f2c0 03b7 	movt	r3, #183	; 0xb7
   838d0:	f240 0214 	movw	r2, #20
   838d4:	f2c2 0207 	movt	r2, #8199	; 0x2007
   838d8:	6013      	str	r3, [r2, #0]
   838da:	e088      	b.n	839ee <SystemCoreClockUpdate+0x176>
		} else {
			SystemCoreClock = CHIP_FREQ_MAINCK_RC_4MHZ;
   838dc:	f44f 6110 	mov.w	r1, #2304	; 0x900
   838e0:	f2c0 013d 	movt	r1, #61	; 0x3d
   838e4:	f240 0214 	movw	r2, #20
   838e8:	f2c2 0207 	movt	r2, #8199	; 0x2007
   838ec:	6011      	str	r1, [r2, #0]

			switch (PMC->CKGR_MOR & CKGR_MOR_MOSCRCF_Msk) {
   838ee:	f44f 63c0 	mov.w	r3, #1536	; 0x600
   838f2:	f2c4 030e 	movt	r3, #16398	; 0x400e
   838f6:	6a18      	ldr	r0, [r3, #32]
   838f8:	f000 0170 	and.w	r1, r0, #112	; 0x70
   838fc:	2910      	cmp	r1, #16
   838fe:	d002      	beq.n	83906 <SystemCoreClockUpdate+0x8e>
   83900:	2920      	cmp	r1, #32
   83902:	d174      	bne.n	839ee <SystemCoreClockUpdate+0x176>
   83904:	e009      	b.n	8391a <SystemCoreClockUpdate+0xa2>
			case CKGR_MOR_MOSCRCF_4_MHz:
				break;
			case CKGR_MOR_MOSCRCF_8_MHz:
				SystemCoreClock *= 2U;
   83906:	f44f 5090 	mov.w	r0, #4608	; 0x1200
   8390a:	f2c0 007a 	movt	r0, #122	; 0x7a
   8390e:	f240 0114 	movw	r1, #20
   83912:	f2c2 0107 	movt	r1, #8199	; 0x2007
   83916:	6008      	str	r0, [r1, #0]
				break;
   83918:	e069      	b.n	839ee <SystemCoreClockUpdate+0x176>
			case CKGR_MOR_MOSCRCF_12_MHz:
				SystemCoreClock *= 3U;
   8391a:	f44f 53d8 	mov.w	r3, #6912	; 0x1b00
   8391e:	f2c0 03b7 	movt	r3, #183	; 0xb7
   83922:	f240 0214 	movw	r2, #20
   83926:	f2c2 0207 	movt	r2, #8199	; 0x2007
   8392a:	6013      	str	r3, [r2, #0]
				break;
   8392c:	e05f      	b.n	839ee <SystemCoreClockUpdate+0x176>
			}
		}
		break;
	case PMC_MCKR_CSS_PLLA_CLK:	/* PLLA clock */
	case PMC_MCKR_CSS_UPLL_CLK:	/* UPLL clock */
		if (PMC->CKGR_MOR & CKGR_MOR_MOSCSEL) {
   8392e:	f44f 62c0 	mov.w	r2, #1536	; 0x600
   83932:	f2c4 020e 	movt	r2, #16398	; 0x400e
   83936:	6a13      	ldr	r3, [r2, #32]
   83938:	f013 7f80 	tst.w	r3, #16777216	; 0x1000000
   8393c:	d009      	beq.n	83952 <SystemCoreClockUpdate+0xda>
			SystemCoreClock = CHIP_FREQ_XTAL_12M;
   8393e:	f44f 51d8 	mov.w	r1, #6912	; 0x1b00
   83942:	f2c0 01b7 	movt	r1, #183	; 0xb7
   83946:	f240 0214 	movw	r2, #20
   8394a:	f2c2 0207 	movt	r2, #8199	; 0x2007
   8394e:	6011      	str	r1, [r2, #0]
   83950:	e027      	b.n	839a2 <SystemCoreClockUpdate+0x12a>
		} else {
			SystemCoreClock = CHIP_FREQ_MAINCK_RC_4MHZ;
   83952:	f44f 6010 	mov.w	r0, #2304	; 0x900
   83956:	f2c0 003d 	movt	r0, #61	; 0x3d
   8395a:	f240 0114 	movw	r1, #20
   8395e:	f2c2 0107 	movt	r1, #8199	; 0x2007
   83962:	6008      	str	r0, [r1, #0]

			switch (PMC->CKGR_MOR & CKGR_MOR_MOSCRCF_Msk) {
   83964:	f44f 62c0 	mov.w	r2, #1536	; 0x600
   83968:	f2c4 020e 	movt	r2, #16398	; 0x400e
   8396c:	6a13      	ldr	r3, [r2, #32]
   8396e:	f003 0070 	and.w	r0, r3, #112	; 0x70
   83972:	2810      	cmp	r0, #16
   83974:	d002      	beq.n	8397c <SystemCoreClockUpdate+0x104>
   83976:	2820      	cmp	r0, #32
   83978:	d113      	bne.n	839a2 <SystemCoreClockUpdate+0x12a>
   8397a:	e009      	b.n	83990 <SystemCoreClockUpdate+0x118>
			case CKGR_MOR_MOSCRCF_4_MHz:
				break;
			case CKGR_MOR_MOSCRCF_8_MHz:
				SystemCoreClock *= 2U;
   8397c:	f44f 5390 	mov.w	r3, #4608	; 0x1200
   83980:	f2c0 037a 	movt	r3, #122	; 0x7a
   83984:	f240 0014 	movw	r0, #20
   83988:	f2c2 0007 	movt	r0, #8199	; 0x2007
   8398c:	6003      	str	r3, [r0, #0]
				break;
   8398e:	e008      	b.n	839a2 <SystemCoreClockUpdate+0x12a>
			case CKGR_MOR_MOSCRCF_12_MHz:
				SystemCoreClock *= 3U;
   83990:	f44f 51d8 	mov.w	r1, #6912	; 0x1b00
   83994:	f2c0 01b7 	movt	r1, #183	; 0xb7
   83998:	f240 0214 	movw	r2, #20
   8399c:	f2c2 0207 	movt	r2, #8199	; 0x2007
   839a0:	6011      	str	r1, [r2, #0]
				break;
			default:
				break;
			}
		}
		if ((PMC->PMC_MCKR & PMC_MCKR_CSS_Msk) == PMC_MCKR_CSS_PLLA_CLK) {
   839a2:	f44f 63c0 	mov.w	r3, #1536	; 0x600
   839a6:	f2c4 030e 	movt	r3, #16398	; 0x400e
   839aa:	6b18      	ldr	r0, [r3, #48]	; 0x30
   839ac:	f000 0103 	and.w	r1, r0, #3
   839b0:	2902      	cmp	r1, #2
   839b2:	d113      	bne.n	839dc <SystemCoreClockUpdate+0x164>
			SystemCoreClock *= ((((PMC->CKGR_PLLAR) & CKGR_PLLAR_MULA_Msk) >> 
   839b4:	f44f 61c0 	mov.w	r1, #1536	; 0x600
   839b8:	f2c4 010e 	movt	r1, #16398	; 0x400e
   839bc:	6a88      	ldr	r0, [r1, #40]	; 0x28
				                            CKGR_PLLAR_MULA_Pos) + 1U);
			SystemCoreClock /= ((((PMC->CKGR_PLLAR) & CKGR_PLLAR_DIVA_Msk) >> 
   839be:	6a89      	ldr	r1, [r1, #40]	; 0x28
   839c0:	f240 0314 	movw	r3, #20
   839c4:	f2c2 0307 	movt	r3, #8199	; 0x2007
			default:
				break;
			}
		}
		if ((PMC->PMC_MCKR & PMC_MCKR_CSS_Msk) == PMC_MCKR_CSS_PLLA_CLK) {
			SystemCoreClock *= ((((PMC->CKGR_PLLAR) & CKGR_PLLAR_MULA_Msk) >> 
   839c8:	f3c0 400a 	ubfx	r0, r0, #16, #11
   839cc:	681a      	ldr	r2, [r3, #0]
   839ce:	fb00 2002 	mla	r0, r0, r2, r2
				                            CKGR_PLLAR_MULA_Pos) + 1U);
			SystemCoreClock /= ((((PMC->CKGR_PLLAR) & CKGR_PLLAR_DIVA_Msk) >> 
   839d2:	b2c9      	uxtb	r1, r1
   839d4:	fbb0 f2f1 	udiv	r2, r0, r1
   839d8:	601a      	str	r2, [r3, #0]
   839da:	e008      	b.n	839ee <SystemCoreClockUpdate+0x176>
				                             CKGR_PLLAR_DIVA_Pos));
		} else {
			SystemCoreClock = SYS_UTMIPLL / 2U;
   839dc:	f44f 53e0 	mov.w	r3, #7168	; 0x1c00
   839e0:	f6c0 634e 	movt	r3, #3662	; 0xe4e
   839e4:	f240 0214 	movw	r2, #20
   839e8:	f2c2 0207 	movt	r2, #8199	; 0x2007
   839ec:	6013      	str	r3, [r2, #0]
		}
		break;
	}

	if ((PMC->PMC_MCKR & PMC_MCKR_PRES_Msk) == PMC_MCKR_PRES_CLK_3) {
   839ee:	f44f 62c0 	mov.w	r2, #1536	; 0x600
   839f2:	f2c4 020e 	movt	r2, #16398	; 0x400e
   839f6:	6b10      	ldr	r0, [r2, #48]	; 0x30
   839f8:	f000 0170 	and.w	r1, r0, #112	; 0x70
   839fc:	2970      	cmp	r1, #112	; 0x70
   839fe:	d10e      	bne.n	83a1e <SystemCoreClockUpdate+0x1a6>
		SystemCoreClock /= 3U;
   83a00:	f240 0314 	movw	r3, #20
   83a04:	f2c2 0307 	movt	r3, #8199	; 0x2007
   83a08:	6818      	ldr	r0, [r3, #0]
   83a0a:	f64a 22ab 	movw	r2, #43691	; 0xaaab
   83a0e:	f6ca 22aa 	movt	r2, #43690	; 0xaaaa
   83a12:	fba2 0100 	umull	r0, r1, r2, r0
   83a16:	ea4f 0051 	mov.w	r0, r1, lsr #1
   83a1a:	6018      	str	r0, [r3, #0]
   83a1c:	4770      	bx	lr
	} else {
		SystemCoreClock >>= ((PMC->PMC_MCKR & PMC_MCKR_PRES_Msk) >> 
   83a1e:	f44f 63c0 	mov.w	r3, #1536	; 0x600
   83a22:	f2c4 030e 	movt	r3, #16398	; 0x400e
   83a26:	6b1a      	ldr	r2, [r3, #48]	; 0x30
   83a28:	f240 0014 	movw	r0, #20
   83a2c:	f2c2 0007 	movt	r0, #8199	; 0x2007
   83a30:	f3c2 1102 	ubfx	r1, r2, #4, #3
   83a34:	6803      	ldr	r3, [r0, #0]
   83a36:	fa23 f301 	lsr.w	r3, r3, r1
   83a3a:	6003      	str	r3, [r0, #0]
   83a3c:	4770      	bx	lr
   83a3e:	bf00      	nop

00083a40 <system_init_flash>:
 * Initialize flash.
 */
void system_init_flash(uint32_t ul_clk)
{
	/* Set FWS for embedded Flash access according to operating frequency */
	if (ul_clk < CHIP_FREQ_FWS_0) {
   83a40:	f64e 23bf 	movw	r3, #60095	; 0xeabf
   83a44:	f2c0 1321 	movt	r3, #289	; 0x121
   83a48:	4298      	cmp	r0, r3
   83a4a:	d80c      	bhi.n	83a66 <system_init_flash+0x26>
		EFC0->EEFC_FMR = EEFC_FMR_FWS(0);
   83a4c:	f44f 6320 	mov.w	r3, #2560	; 0xa00
   83a50:	f2c4 030e 	movt	r3, #16398	; 0x400e
   83a54:	f04f 0000 	mov.w	r0, #0
   83a58:	6018      	str	r0, [r3, #0]
		EFC1->EEFC_FMR = EEFC_FMR_FWS(0);
   83a5a:	f44f 6140 	mov.w	r1, #3072	; 0xc00
   83a5e:	f2c4 010e 	movt	r1, #16398	; 0x400e
   83a62:	6008      	str	r0, [r1, #0]
   83a64:	4770      	bx	lr
	} else if (ul_clk < CHIP_FREQ_FWS_1) {
   83a66:	f24f 017f 	movw	r1, #61567	; 0xf07f
   83a6a:	f2c0 21fa 	movt	r1, #762	; 0x2fa
   83a6e:	4288      	cmp	r0, r1
   83a70:	d80c      	bhi.n	83a8c <system_init_flash+0x4c>
		EFC0->EEFC_FMR = EEFC_FMR_FWS(1);
   83a72:	f44f 6020 	mov.w	r0, #2560	; 0xa00
   83a76:	f2c4 000e 	movt	r0, #16398	; 0x400e
   83a7a:	f44f 7180 	mov.w	r1, #256	; 0x100
   83a7e:	6001      	str	r1, [r0, #0]
		EFC1->EEFC_FMR = EEFC_FMR_FWS(1);
   83a80:	f44f 6240 	mov.w	r2, #3072	; 0xc00
   83a84:	f2c4 020e 	movt	r2, #16398	; 0x400e
   83a88:	6011      	str	r1, [r2, #0]
   83a8a:	4770      	bx	lr
	} else if (ul_clk < CHIP_FREQ_FWS_2) {
   83a8c:	f648 73ff 	movw	r3, #36863	; 0x8fff
   83a90:	f2c0 33d0 	movt	r3, #976	; 0x3d0
   83a94:	4298      	cmp	r0, r3
   83a96:	d80c      	bhi.n	83ab2 <system_init_flash+0x72>
		EFC0->EEFC_FMR = EEFC_FMR_FWS(2);
   83a98:	f44f 6120 	mov.w	r1, #2560	; 0xa00
   83a9c:	f2c4 010e 	movt	r1, #16398	; 0x400e
   83aa0:	f44f 7200 	mov.w	r2, #512	; 0x200
   83aa4:	600a      	str	r2, [r1, #0]
		EFC1->EEFC_FMR = EEFC_FMR_FWS(2);
   83aa6:	f44f 6340 	mov.w	r3, #3072	; 0xc00
   83aaa:	f2c4 030e 	movt	r3, #16398	; 0x400e
   83aae:	601a      	str	r2, [r3, #0]
   83ab0:	4770      	bx	lr
	} else if (ul_clk < CHIP_FREQ_FWS_3) {
   83ab2:	f24b 31ff 	movw	r1, #46079	; 0xb3ff
   83ab6:	f2c0 41c4 	movt	r1, #1220	; 0x4c4
   83aba:	4288      	cmp	r0, r1
   83abc:	d80c      	bhi.n	83ad8 <system_init_flash+0x98>
		EFC0->EEFC_FMR = EEFC_FMR_FWS(3);
   83abe:	f44f 6320 	mov.w	r3, #2560	; 0xa00
   83ac2:	f2c4 030e 	movt	r3, #16398	; 0x400e
   83ac6:	f44f 7240 	mov.w	r2, #768	; 0x300
   83aca:	601a      	str	r2, [r3, #0]
		EFC1->EEFC_FMR = EEFC_FMR_FWS(3);
   83acc:	f44f 6040 	mov.w	r0, #3072	; 0xc00
   83ad0:	f2c4 000e 	movt	r0, #16398	; 0x400e
   83ad4:	6002      	str	r2, [r0, #0]
   83ad6:	4770      	bx	lr
	} else if (ul_clk < CHIP_FREQ_FWS_4) {
   83ad8:	f644 237f 	movw	r3, #19071	; 0x4a7f
   83adc:	f2c0 535d 	movt	r3, #1373	; 0x55d
   83ae0:	4298      	cmp	r0, r3
		EFC0->EEFC_FMR = EEFC_FMR_FWS(4);
   83ae2:	f44f 6020 	mov.w	r0, #2560	; 0xa00
   83ae6:	f2c4 000e 	movt	r0, #16398	; 0x400e
   83aea:	bf94      	ite	ls
   83aec:	f44f 6280 	movls.w	r2, #1024	; 0x400
		EFC1->EEFC_FMR = EEFC_FMR_FWS(4);	
	} else {
		EFC0->EEFC_FMR = EEFC_FMR_FWS(5);
   83af0:	f44f 62a0 	movhi.w	r2, #1280	; 0x500
   83af4:	6002      	str	r2, [r0, #0]
		EFC1->EEFC_FMR = EEFC_FMR_FWS(5);
   83af6:	f44f 6140 	mov.w	r1, #3072	; 0xc00
   83afa:	f2c4 010e 	movt	r1, #16398	; 0x400e
   83afe:	600a      	str	r2, [r1, #0]
   83b00:	4770      	bx	lr
   83b02:	bf00      	nop

00083b04 <_sbrk>:
{
	static unsigned char *heap = NULL;
	unsigned char *prev_heap;
	int ramend = (int)&__ram_end__;

	if (heap == NULL) {
   83b04:	f64a 33c4 	movw	r3, #43972	; 0xabc4
   83b08:	f2c2 0307 	movt	r3, #8199	; 0x2007
   83b0c:	6819      	ldr	r1, [r3, #0]
   83b0e:	b941      	cbnz	r1, 83b22 <_sbrk+0x1e>
		heap = (unsigned char *)&_end;
   83b10:	f64a 33c4 	movw	r3, #43972	; 0xabc4
   83b14:	f2c2 0307 	movt	r3, #8199	; 0x2007
   83b18:	f64c 6200 	movw	r2, #52736	; 0xce00
   83b1c:	f2c2 0207 	movt	r2, #8199	; 0x2007
   83b20:	601a      	str	r2, [r3, #0]
	}
	prev_heap = heap;
   83b22:	f64a 31c4 	movw	r1, #43972	; 0xabc4
   83b26:	f2c2 0107 	movt	r1, #8199	; 0x2007
   83b2a:	680b      	ldr	r3, [r1, #0]

	if (((int)prev_heap + incr) > ramend) {
   83b2c:	1818      	adds	r0, r3, r0
   83b2e:	f647 72fc 	movw	r2, #32764	; 0x7ffc
   83b32:	f2c2 0208 	movt	r2, #8200	; 0x2008
   83b36:	4282      	cmp	r2, r0
   83b38:	db06      	blt.n	83b48 <_sbrk+0x44>
		return (caddr_t) -1;	
	}

	heap += incr;
   83b3a:	4601      	mov	r1, r0
   83b3c:	f64a 30c4 	movw	r0, #43972	; 0xabc4
   83b40:	f2c2 0007 	movt	r0, #8199	; 0x2007
   83b44:	6001      	str	r1, [r0, #0]

	return (caddr_t) prev_heap;
   83b46:	e001      	b.n	83b4c <_sbrk+0x48>
		heap = (unsigned char *)&_end;
	}
	prev_heap = heap;

	if (((int)prev_heap + incr) > ramend) {
		return (caddr_t) -1;	
   83b48:	f04f 33ff 	mov.w	r3, #4294967295
	}

	heap += incr;

	return (caddr_t) prev_heap;
}
   83b4c:	4618      	mov	r0, r3
   83b4e:	4770      	bx	lr

00083b50 <_close>:
}

extern int _close(int file)
{
	return -1;
}
   83b50:	f04f 30ff 	mov.w	r0, #4294967295
   83b54:	4770      	bx	lr
   83b56:	bf00      	nop

00083b58 <_fstat>:

extern int _fstat(int file, struct stat *st)
{
	st->st_mode = S_IFCHR;
   83b58:	f44f 5300 	mov.w	r3, #8192	; 0x2000
   83b5c:	604b      	str	r3, [r1, #4]

	return 0;
}
   83b5e:	f04f 0000 	mov.w	r0, #0
   83b62:	4770      	bx	lr

00083b64 <_isatty>:

extern int _isatty(int file)
{
	return 1;
}
   83b64:	f04f 0001 	mov.w	r0, #1
   83b68:	4770      	bx	lr
   83b6a:	bf00      	nop

00083b6c <_lseek>:

extern int _lseek(int file, int ptr, int dir)
{
	return 0;
}
   83b6c:	f04f 0000 	mov.w	r0, #0
   83b70:	4770      	bx	lr
   83b72:	bf00      	nop

00083b74 <main>:
#include "PWMFunctions.h"
#include "RTOSFunctions.h"
#include "FilterFunctins.h"

int main (void)
{
   83b74:	b508      	push	{r3, lr}
	sysclk_init();
   83b76:	f642 7355 	movw	r3, #12117	; 0x2f55
   83b7a:	f2c0 0308 	movt	r3, #8
   83b7e:	4798      	blx	r3
	board_init();
   83b80:	f642 70e1 	movw	r0, #12257	; 0x2fe1
   83b84:	f2c0 0008 	movt	r0, #8
   83b88:	4780      	blx	r0
   83b8a:	f04f 000b 	mov.w	r0, #11
   83b8e:	f243 64b9 	movw	r4, #14009	; 0x36b9
   83b92:	f2c0 0408 	movt	r4, #8
   83b96:	47a0      	blx	r4
   83b98:	f04f 000c 	mov.w	r0, #12
   83b9c:	47a0      	blx	r4
   83b9e:	f04f 000d 	mov.w	r0, #13
   83ba2:	47a0      	blx	r4
   83ba4:	f04f 000e 	mov.w	r0, #14
   83ba8:	47a0      	blx	r4
	ioport_init();

	setupUART();
   83baa:	f240 51a5 	movw	r1, #1445	; 0x5a5
   83bae:	f2c0 0108 	movt	r1, #8
   83bb2:	4788      	blx	r1
	setupSTDIO();
   83bb4:	f240 621d 	movw	r2, #1565	; 0x61d
   83bb8:	f2c0 0208 	movt	r2, #8
   83bbc:	4790      	blx	r2
	
	setupADC();
   83bbe:	f240 13a5 	movw	r3, #421	; 0x1a5
   83bc2:	f2c0 0308 	movt	r3, #8
   83bc6:	4798      	blx	r3
	setupPWM();
   83bc8:	f640 0059 	movw	r0, #2137	; 0x859
   83bcc:	f2c0 0008 	movt	r0, #8
   83bd0:	4780      	blx	r0
	
	enablePWMPin34();
   83bd2:	f640 049d 	movw	r4, #2205	; 0x89d
   83bd6:	f2c0 0408 	movt	r4, #8
   83bda:	47a0      	blx	r4
		enum ioport_direction dir)
{
	Pio *base = arch_ioport_pin_to_base(pin);

	if (dir == IOPORT_DIR_OUTPUT) {
		base->PIO_OER = arch_ioport_pin_to_mask(pin);
   83bdc:	f44f 51a0 	mov.w	r1, #5120	; 0x1400
   83be0:	f2c4 010e 	movt	r1, #16398	; 0x400e
   83be4:	f44f 7280 	mov.w	r2, #256	; 0x100
   83be8:	610a      	str	r2, [r1, #16]
	} else if (dir == IOPORT_DIR_INPUT) {
		base->PIO_ODR = arch_ioport_pin_to_mask(pin);
	}

	base->PIO_OWER = arch_ioport_pin_to_mask(pin);
   83bea:	f8c1 20a0 	str.w	r2, [r1, #160]	; 0xa0
		bool level)
{
	Pio *base = arch_ioport_pin_to_base(pin);

	if (level) {
		base->PIO_SODR = arch_ioport_pin_to_mask(pin);
   83bee:	630a      	str	r2, [r1, #48]	; 0x30
		enum ioport_direction dir)
{
	Pio *base = arch_ioport_pin_to_base(pin);

	if (dir == IOPORT_DIR_OUTPUT) {
		base->PIO_OER = arch_ioport_pin_to_mask(pin);
   83bf0:	f44f 5390 	mov.w	r3, #4608	; 0x1200
   83bf4:	f2c4 030e 	movt	r3, #16398	; 0x400e
   83bf8:	f44f 1000 	mov.w	r0, #2097152	; 0x200000
   83bfc:	6118      	str	r0, [r3, #16]
	} else if (dir == IOPORT_DIR_INPUT) {
		base->PIO_ODR = arch_ioport_pin_to_mask(pin);
	}

	base->PIO_OWER = arch_ioport_pin_to_mask(pin);
   83bfe:	f8c3 00a0 	str.w	r0, [r3, #160]	; 0xa0
	Pio *base = arch_ioport_pin_to_base(pin);

	if (level) {
		base->PIO_SODR = arch_ioport_pin_to_mask(pin);
	} else {
		base->PIO_CODR = arch_ioport_pin_to_mask(pin);
   83c02:	6358      	str	r0, [r3, #52]	; 0x34
	ioport_set_pin_dir(PIO_PD8_IDX, IOPORT_DIR_OUTPUT);
	ioport_set_pin_level(PIO_PD8_IDX, IOPORT_PIN_LEVEL_HIGH);
	ioport_set_pin_dir(PIO_PC21_IDX, IOPORT_DIR_OUTPUT);
	ioport_set_pin_level(PIO_PC21_IDX, IOPORT_PIN_LEVEL_LOW);
	
	setupRTOS();
   83c04:	f640 14e5 	movw	r4, #2533	; 0x9e5
   83c08:	f2c0 0408 	movt	r4, #8
   83c0c:	47a0      	blx	r4
   83c0e:	e7fe      	b.n	83c0e <main+0x9a>

00083c10 <__aeabi_drsub>:
   83c10:	f081 4100 	eor.w	r1, r1, #2147483648	; 0x80000000
   83c14:	e002      	b.n	83c1c <__adddf3>
   83c16:	bf00      	nop

00083c18 <__aeabi_dsub>:
   83c18:	f083 4300 	eor.w	r3, r3, #2147483648	; 0x80000000

00083c1c <__adddf3>:
   83c1c:	b530      	push	{r4, r5, lr}
   83c1e:	ea4f 0441 	mov.w	r4, r1, lsl #1
   83c22:	ea4f 0543 	mov.w	r5, r3, lsl #1
   83c26:	ea94 0f05 	teq	r4, r5
   83c2a:	bf08      	it	eq
   83c2c:	ea90 0f02 	teqeq	r0, r2
   83c30:	bf1f      	itttt	ne
   83c32:	ea54 0c00 	orrsne.w	ip, r4, r0
   83c36:	ea55 0c02 	orrsne.w	ip, r5, r2
   83c3a:	ea7f 5c64 	mvnsne.w	ip, r4, asr #21
   83c3e:	ea7f 5c65 	mvnsne.w	ip, r5, asr #21
   83c42:	f000 80e2 	beq.w	83e0a <__adddf3+0x1ee>
   83c46:	ea4f 5454 	mov.w	r4, r4, lsr #21
   83c4a:	ebd4 5555 	rsbs	r5, r4, r5, lsr #21
   83c4e:	bfb8      	it	lt
   83c50:	426d      	neglt	r5, r5
   83c52:	dd0c      	ble.n	83c6e <__adddf3+0x52>
   83c54:	442c      	add	r4, r5
   83c56:	ea80 0202 	eor.w	r2, r0, r2
   83c5a:	ea81 0303 	eor.w	r3, r1, r3
   83c5e:	ea82 0000 	eor.w	r0, r2, r0
   83c62:	ea83 0101 	eor.w	r1, r3, r1
   83c66:	ea80 0202 	eor.w	r2, r0, r2
   83c6a:	ea81 0303 	eor.w	r3, r1, r3
   83c6e:	2d36      	cmp	r5, #54	; 0x36
   83c70:	bf88      	it	hi
   83c72:	bd30      	pophi	{r4, r5, pc}
   83c74:	f011 4f00 	tst.w	r1, #2147483648	; 0x80000000
   83c78:	ea4f 3101 	mov.w	r1, r1, lsl #12
   83c7c:	f44f 1c80 	mov.w	ip, #1048576	; 0x100000
   83c80:	ea4c 3111 	orr.w	r1, ip, r1, lsr #12
   83c84:	d002      	beq.n	83c8c <__adddf3+0x70>
   83c86:	4240      	negs	r0, r0
   83c88:	eb61 0141 	sbc.w	r1, r1, r1, lsl #1
   83c8c:	f013 4f00 	tst.w	r3, #2147483648	; 0x80000000
   83c90:	ea4f 3303 	mov.w	r3, r3, lsl #12
   83c94:	ea4c 3313 	orr.w	r3, ip, r3, lsr #12
   83c98:	d002      	beq.n	83ca0 <__adddf3+0x84>
   83c9a:	4252      	negs	r2, r2
   83c9c:	eb63 0343 	sbc.w	r3, r3, r3, lsl #1
   83ca0:	ea94 0f05 	teq	r4, r5
   83ca4:	f000 80a7 	beq.w	83df6 <__adddf3+0x1da>
   83ca8:	f1a4 0401 	sub.w	r4, r4, #1
   83cac:	f1d5 0e20 	rsbs	lr, r5, #32
   83cb0:	db0d      	blt.n	83cce <__adddf3+0xb2>
   83cb2:	fa02 fc0e 	lsl.w	ip, r2, lr
   83cb6:	fa22 f205 	lsr.w	r2, r2, r5
   83cba:	1880      	adds	r0, r0, r2
   83cbc:	f141 0100 	adc.w	r1, r1, #0
   83cc0:	fa03 f20e 	lsl.w	r2, r3, lr
   83cc4:	1880      	adds	r0, r0, r2
   83cc6:	fa43 f305 	asr.w	r3, r3, r5
   83cca:	4159      	adcs	r1, r3
   83ccc:	e00e      	b.n	83cec <__adddf3+0xd0>
   83cce:	f1a5 0520 	sub.w	r5, r5, #32
   83cd2:	f10e 0e20 	add.w	lr, lr, #32
   83cd6:	2a01      	cmp	r2, #1
   83cd8:	fa03 fc0e 	lsl.w	ip, r3, lr
   83cdc:	bf28      	it	cs
   83cde:	f04c 0c02 	orrcs.w	ip, ip, #2
   83ce2:	fa43 f305 	asr.w	r3, r3, r5
   83ce6:	18c0      	adds	r0, r0, r3
   83ce8:	eb51 71e3 	adcs.w	r1, r1, r3, asr #31
   83cec:	f001 4500 	and.w	r5, r1, #2147483648	; 0x80000000
   83cf0:	d507      	bpl.n	83d02 <__adddf3+0xe6>
   83cf2:	f04f 0e00 	mov.w	lr, #0
   83cf6:	f1dc 0c00 	rsbs	ip, ip, #0
   83cfa:	eb7e 0000 	sbcs.w	r0, lr, r0
   83cfe:	eb6e 0101 	sbc.w	r1, lr, r1
   83d02:	f5b1 1f80 	cmp.w	r1, #1048576	; 0x100000
   83d06:	d31b      	bcc.n	83d40 <__adddf3+0x124>
   83d08:	f5b1 1f00 	cmp.w	r1, #2097152	; 0x200000
   83d0c:	d30c      	bcc.n	83d28 <__adddf3+0x10c>
   83d0e:	0849      	lsrs	r1, r1, #1
   83d10:	ea5f 0030 	movs.w	r0, r0, rrx
   83d14:	ea4f 0c3c 	mov.w	ip, ip, rrx
   83d18:	f104 0401 	add.w	r4, r4, #1
   83d1c:	ea4f 5244 	mov.w	r2, r4, lsl #21
   83d20:	f512 0f80 	cmn.w	r2, #4194304	; 0x400000
   83d24:	f080 809a 	bcs.w	83e5c <__adddf3+0x240>
   83d28:	f1bc 4f00 	cmp.w	ip, #2147483648	; 0x80000000
   83d2c:	bf08      	it	eq
   83d2e:	ea5f 0c50 	movseq.w	ip, r0, lsr #1
   83d32:	f150 0000 	adcs.w	r0, r0, #0
   83d36:	eb41 5104 	adc.w	r1, r1, r4, lsl #20
   83d3a:	ea41 0105 	orr.w	r1, r1, r5
   83d3e:	bd30      	pop	{r4, r5, pc}
   83d40:	ea5f 0c4c 	movs.w	ip, ip, lsl #1
   83d44:	4140      	adcs	r0, r0
   83d46:	eb41 0101 	adc.w	r1, r1, r1
   83d4a:	f411 1f80 	tst.w	r1, #1048576	; 0x100000
   83d4e:	f1a4 0401 	sub.w	r4, r4, #1
   83d52:	d1e9      	bne.n	83d28 <__adddf3+0x10c>
   83d54:	f091 0f00 	teq	r1, #0
   83d58:	bf04      	itt	eq
   83d5a:	4601      	moveq	r1, r0
   83d5c:	2000      	moveq	r0, #0
   83d5e:	fab1 f381 	clz	r3, r1
   83d62:	bf08      	it	eq
   83d64:	3320      	addeq	r3, #32
   83d66:	f1a3 030b 	sub.w	r3, r3, #11
   83d6a:	f1b3 0220 	subs.w	r2, r3, #32
   83d6e:	da0c      	bge.n	83d8a <__adddf3+0x16e>
   83d70:	320c      	adds	r2, #12
   83d72:	dd08      	ble.n	83d86 <__adddf3+0x16a>
   83d74:	f102 0c14 	add.w	ip, r2, #20
   83d78:	f1c2 020c 	rsb	r2, r2, #12
   83d7c:	fa01 f00c 	lsl.w	r0, r1, ip
   83d80:	fa21 f102 	lsr.w	r1, r1, r2
   83d84:	e00c      	b.n	83da0 <__adddf3+0x184>
   83d86:	f102 0214 	add.w	r2, r2, #20
   83d8a:	bfd8      	it	le
   83d8c:	f1c2 0c20 	rsble	ip, r2, #32
   83d90:	fa01 f102 	lsl.w	r1, r1, r2
   83d94:	fa20 fc0c 	lsr.w	ip, r0, ip
   83d98:	bfdc      	itt	le
   83d9a:	ea41 010c 	orrle.w	r1, r1, ip
   83d9e:	4090      	lslle	r0, r2
   83da0:	1ae4      	subs	r4, r4, r3
   83da2:	bfa2      	ittt	ge
   83da4:	eb01 5104 	addge.w	r1, r1, r4, lsl #20
   83da8:	4329      	orrge	r1, r5
   83daa:	bd30      	popge	{r4, r5, pc}
   83dac:	ea6f 0404 	mvn.w	r4, r4
   83db0:	3c1f      	subs	r4, #31
   83db2:	da1c      	bge.n	83dee <__adddf3+0x1d2>
   83db4:	340c      	adds	r4, #12
   83db6:	dc0e      	bgt.n	83dd6 <__adddf3+0x1ba>
   83db8:	f104 0414 	add.w	r4, r4, #20
   83dbc:	f1c4 0220 	rsb	r2, r4, #32
   83dc0:	fa20 f004 	lsr.w	r0, r0, r4
   83dc4:	fa01 f302 	lsl.w	r3, r1, r2
   83dc8:	ea40 0003 	orr.w	r0, r0, r3
   83dcc:	fa21 f304 	lsr.w	r3, r1, r4
   83dd0:	ea45 0103 	orr.w	r1, r5, r3
   83dd4:	bd30      	pop	{r4, r5, pc}
   83dd6:	f1c4 040c 	rsb	r4, r4, #12
   83dda:	f1c4 0220 	rsb	r2, r4, #32
   83dde:	fa20 f002 	lsr.w	r0, r0, r2
   83de2:	fa01 f304 	lsl.w	r3, r1, r4
   83de6:	ea40 0003 	orr.w	r0, r0, r3
   83dea:	4629      	mov	r1, r5
   83dec:	bd30      	pop	{r4, r5, pc}
   83dee:	fa21 f004 	lsr.w	r0, r1, r4
   83df2:	4629      	mov	r1, r5
   83df4:	bd30      	pop	{r4, r5, pc}
   83df6:	f094 0f00 	teq	r4, #0
   83dfa:	f483 1380 	eor.w	r3, r3, #1048576	; 0x100000
   83dfe:	bf06      	itte	eq
   83e00:	f481 1180 	eoreq.w	r1, r1, #1048576	; 0x100000
   83e04:	3401      	addeq	r4, #1
   83e06:	3d01      	subne	r5, #1
   83e08:	e74e      	b.n	83ca8 <__adddf3+0x8c>
   83e0a:	ea7f 5c64 	mvns.w	ip, r4, asr #21
   83e0e:	bf18      	it	ne
   83e10:	ea7f 5c65 	mvnsne.w	ip, r5, asr #21
   83e14:	d029      	beq.n	83e6a <__adddf3+0x24e>
   83e16:	ea94 0f05 	teq	r4, r5
   83e1a:	bf08      	it	eq
   83e1c:	ea90 0f02 	teqeq	r0, r2
   83e20:	d005      	beq.n	83e2e <__adddf3+0x212>
   83e22:	ea54 0c00 	orrs.w	ip, r4, r0
   83e26:	bf04      	itt	eq
   83e28:	4619      	moveq	r1, r3
   83e2a:	4610      	moveq	r0, r2
   83e2c:	bd30      	pop	{r4, r5, pc}
   83e2e:	ea91 0f03 	teq	r1, r3
   83e32:	bf1e      	ittt	ne
   83e34:	2100      	movne	r1, #0
   83e36:	2000      	movne	r0, #0
   83e38:	bd30      	popne	{r4, r5, pc}
   83e3a:	ea5f 5c54 	movs.w	ip, r4, lsr #21
   83e3e:	d105      	bne.n	83e4c <__adddf3+0x230>
   83e40:	0040      	lsls	r0, r0, #1
   83e42:	4149      	adcs	r1, r1
   83e44:	bf28      	it	cs
   83e46:	f041 4100 	orrcs.w	r1, r1, #2147483648	; 0x80000000
   83e4a:	bd30      	pop	{r4, r5, pc}
   83e4c:	f514 0480 	adds.w	r4, r4, #4194304	; 0x400000
   83e50:	bf3c      	itt	cc
   83e52:	f501 1180 	addcc.w	r1, r1, #1048576	; 0x100000
   83e56:	bd30      	popcc	{r4, r5, pc}
   83e58:	f001 4500 	and.w	r5, r1, #2147483648	; 0x80000000
   83e5c:	f045 41fe 	orr.w	r1, r5, #2130706432	; 0x7f000000
   83e60:	f441 0170 	orr.w	r1, r1, #15728640	; 0xf00000
   83e64:	f04f 0000 	mov.w	r0, #0
   83e68:	bd30      	pop	{r4, r5, pc}
   83e6a:	ea7f 5c64 	mvns.w	ip, r4, asr #21
   83e6e:	bf1a      	itte	ne
   83e70:	4619      	movne	r1, r3
   83e72:	4610      	movne	r0, r2
   83e74:	ea7f 5c65 	mvnseq.w	ip, r5, asr #21
   83e78:	bf1c      	itt	ne
   83e7a:	460b      	movne	r3, r1
   83e7c:	4602      	movne	r2, r0
   83e7e:	ea50 3401 	orrs.w	r4, r0, r1, lsl #12
   83e82:	bf06      	itte	eq
   83e84:	ea52 3503 	orrseq.w	r5, r2, r3, lsl #12
   83e88:	ea91 0f03 	teqeq	r1, r3
   83e8c:	f441 2100 	orrne.w	r1, r1, #524288	; 0x80000
   83e90:	bd30      	pop	{r4, r5, pc}
   83e92:	bf00      	nop

00083e94 <__aeabi_ui2d>:
   83e94:	f090 0f00 	teq	r0, #0
   83e98:	bf04      	itt	eq
   83e9a:	2100      	moveq	r1, #0
   83e9c:	4770      	bxeq	lr
   83e9e:	b530      	push	{r4, r5, lr}
   83ea0:	f44f 6480 	mov.w	r4, #1024	; 0x400
   83ea4:	f104 0432 	add.w	r4, r4, #50	; 0x32
   83ea8:	f04f 0500 	mov.w	r5, #0
   83eac:	f04f 0100 	mov.w	r1, #0
   83eb0:	e750      	b.n	83d54 <__adddf3+0x138>
   83eb2:	bf00      	nop

00083eb4 <__aeabi_i2d>:
   83eb4:	f090 0f00 	teq	r0, #0
   83eb8:	bf04      	itt	eq
   83eba:	2100      	moveq	r1, #0
   83ebc:	4770      	bxeq	lr
   83ebe:	b530      	push	{r4, r5, lr}
   83ec0:	f44f 6480 	mov.w	r4, #1024	; 0x400
   83ec4:	f104 0432 	add.w	r4, r4, #50	; 0x32
   83ec8:	f010 4500 	ands.w	r5, r0, #2147483648	; 0x80000000
   83ecc:	bf48      	it	mi
   83ece:	4240      	negmi	r0, r0
   83ed0:	f04f 0100 	mov.w	r1, #0
   83ed4:	e73e      	b.n	83d54 <__adddf3+0x138>
   83ed6:	bf00      	nop

00083ed8 <__aeabi_f2d>:
   83ed8:	0042      	lsls	r2, r0, #1
   83eda:	ea4f 01e2 	mov.w	r1, r2, asr #3
   83ede:	ea4f 0131 	mov.w	r1, r1, rrx
   83ee2:	ea4f 7002 	mov.w	r0, r2, lsl #28
   83ee6:	bf1f      	itttt	ne
   83ee8:	f012 437f 	andsne.w	r3, r2, #4278190080	; 0xff000000
   83eec:	f093 4f7f 	teqne	r3, #4278190080	; 0xff000000
   83ef0:	f081 5160 	eorne.w	r1, r1, #939524096	; 0x38000000
   83ef4:	4770      	bxne	lr
   83ef6:	f092 0f00 	teq	r2, #0
   83efa:	bf14      	ite	ne
   83efc:	f093 4f7f 	teqne	r3, #4278190080	; 0xff000000
   83f00:	4770      	bxeq	lr
   83f02:	b530      	push	{r4, r5, lr}
   83f04:	f44f 7460 	mov.w	r4, #896	; 0x380
   83f08:	f001 4500 	and.w	r5, r1, #2147483648	; 0x80000000
   83f0c:	f021 4100 	bic.w	r1, r1, #2147483648	; 0x80000000
   83f10:	e720      	b.n	83d54 <__adddf3+0x138>
   83f12:	bf00      	nop

00083f14 <__aeabi_ul2d>:
   83f14:	ea50 0201 	orrs.w	r2, r0, r1
   83f18:	bf08      	it	eq
   83f1a:	4770      	bxeq	lr
   83f1c:	b530      	push	{r4, r5, lr}
   83f1e:	f04f 0500 	mov.w	r5, #0
   83f22:	e00a      	b.n	83f3a <__aeabi_l2d+0x16>

00083f24 <__aeabi_l2d>:
   83f24:	ea50 0201 	orrs.w	r2, r0, r1
   83f28:	bf08      	it	eq
   83f2a:	4770      	bxeq	lr
   83f2c:	b530      	push	{r4, r5, lr}
   83f2e:	f011 4500 	ands.w	r5, r1, #2147483648	; 0x80000000
   83f32:	d502      	bpl.n	83f3a <__aeabi_l2d+0x16>
   83f34:	4240      	negs	r0, r0
   83f36:	eb61 0141 	sbc.w	r1, r1, r1, lsl #1
   83f3a:	f44f 6480 	mov.w	r4, #1024	; 0x400
   83f3e:	f104 0432 	add.w	r4, r4, #50	; 0x32
   83f42:	ea5f 5c91 	movs.w	ip, r1, lsr #22
   83f46:	f43f aedc 	beq.w	83d02 <__adddf3+0xe6>
   83f4a:	f04f 0203 	mov.w	r2, #3
   83f4e:	ea5f 0cdc 	movs.w	ip, ip, lsr #3
   83f52:	bf18      	it	ne
   83f54:	3203      	addne	r2, #3
   83f56:	ea5f 0cdc 	movs.w	ip, ip, lsr #3
   83f5a:	bf18      	it	ne
   83f5c:	3203      	addne	r2, #3
   83f5e:	eb02 02dc 	add.w	r2, r2, ip, lsr #3
   83f62:	f1c2 0320 	rsb	r3, r2, #32
   83f66:	fa00 fc03 	lsl.w	ip, r0, r3
   83f6a:	fa20 f002 	lsr.w	r0, r0, r2
   83f6e:	fa01 fe03 	lsl.w	lr, r1, r3
   83f72:	ea40 000e 	orr.w	r0, r0, lr
   83f76:	fa21 f102 	lsr.w	r1, r1, r2
   83f7a:	4414      	add	r4, r2
   83f7c:	e6c1      	b.n	83d02 <__adddf3+0xe6>
   83f7e:	bf00      	nop

00083f80 <__aeabi_dmul>:
   83f80:	b570      	push	{r4, r5, r6, lr}
   83f82:	f04f 0cff 	mov.w	ip, #255	; 0xff
   83f86:	f44c 6ce0 	orr.w	ip, ip, #1792	; 0x700
   83f8a:	ea1c 5411 	ands.w	r4, ip, r1, lsr #20
   83f8e:	bf1d      	ittte	ne
   83f90:	ea1c 5513 	andsne.w	r5, ip, r3, lsr #20
   83f94:	ea94 0f0c 	teqne	r4, ip
   83f98:	ea95 0f0c 	teqne	r5, ip
   83f9c:	f000 f8de 	bleq	8415c <__aeabi_dmul+0x1dc>
   83fa0:	442c      	add	r4, r5
   83fa2:	ea81 0603 	eor.w	r6, r1, r3
   83fa6:	ea21 514c 	bic.w	r1, r1, ip, lsl #21
   83faa:	ea23 534c 	bic.w	r3, r3, ip, lsl #21
   83fae:	ea50 3501 	orrs.w	r5, r0, r1, lsl #12
   83fb2:	bf18      	it	ne
   83fb4:	ea52 3503 	orrsne.w	r5, r2, r3, lsl #12
   83fb8:	f441 1180 	orr.w	r1, r1, #1048576	; 0x100000
   83fbc:	f443 1380 	orr.w	r3, r3, #1048576	; 0x100000
   83fc0:	d038      	beq.n	84034 <__aeabi_dmul+0xb4>
   83fc2:	fba0 ce02 	umull	ip, lr, r0, r2
   83fc6:	f04f 0500 	mov.w	r5, #0
   83fca:	fbe1 e502 	umlal	lr, r5, r1, r2
   83fce:	f006 4200 	and.w	r2, r6, #2147483648	; 0x80000000
   83fd2:	fbe0 e503 	umlal	lr, r5, r0, r3
   83fd6:	f04f 0600 	mov.w	r6, #0
   83fda:	fbe1 5603 	umlal	r5, r6, r1, r3
   83fde:	f09c 0f00 	teq	ip, #0
   83fe2:	bf18      	it	ne
   83fe4:	f04e 0e01 	orrne.w	lr, lr, #1
   83fe8:	f1a4 04ff 	sub.w	r4, r4, #255	; 0xff
   83fec:	f5b6 7f00 	cmp.w	r6, #512	; 0x200
   83ff0:	f564 7440 	sbc.w	r4, r4, #768	; 0x300
   83ff4:	d204      	bcs.n	84000 <__aeabi_dmul+0x80>
   83ff6:	ea5f 0e4e 	movs.w	lr, lr, lsl #1
   83ffa:	416d      	adcs	r5, r5
   83ffc:	eb46 0606 	adc.w	r6, r6, r6
   84000:	ea42 21c6 	orr.w	r1, r2, r6, lsl #11
   84004:	ea41 5155 	orr.w	r1, r1, r5, lsr #21
   84008:	ea4f 20c5 	mov.w	r0, r5, lsl #11
   8400c:	ea40 505e 	orr.w	r0, r0, lr, lsr #21
   84010:	ea4f 2ece 	mov.w	lr, lr, lsl #11
   84014:	f1b4 0cfd 	subs.w	ip, r4, #253	; 0xfd
   84018:	bf88      	it	hi
   8401a:	f5bc 6fe0 	cmphi.w	ip, #1792	; 0x700
   8401e:	d81e      	bhi.n	8405e <__aeabi_dmul+0xde>
   84020:	f1be 4f00 	cmp.w	lr, #2147483648	; 0x80000000
   84024:	bf08      	it	eq
   84026:	ea5f 0e50 	movseq.w	lr, r0, lsr #1
   8402a:	f150 0000 	adcs.w	r0, r0, #0
   8402e:	eb41 5104 	adc.w	r1, r1, r4, lsl #20
   84032:	bd70      	pop	{r4, r5, r6, pc}
   84034:	f006 4600 	and.w	r6, r6, #2147483648	; 0x80000000
   84038:	ea46 0101 	orr.w	r1, r6, r1
   8403c:	ea40 0002 	orr.w	r0, r0, r2
   84040:	ea81 0103 	eor.w	r1, r1, r3
   84044:	ebb4 045c 	subs.w	r4, r4, ip, lsr #1
   84048:	bfc2      	ittt	gt
   8404a:	ebd4 050c 	rsbsgt	r5, r4, ip
   8404e:	ea41 5104 	orrgt.w	r1, r1, r4, lsl #20
   84052:	bd70      	popgt	{r4, r5, r6, pc}
   84054:	f441 1180 	orr.w	r1, r1, #1048576	; 0x100000
   84058:	f04f 0e00 	mov.w	lr, #0
   8405c:	3c01      	subs	r4, #1
   8405e:	f300 80ab 	bgt.w	841b8 <__aeabi_dmul+0x238>
   84062:	f114 0f36 	cmn.w	r4, #54	; 0x36
   84066:	bfde      	ittt	le
   84068:	2000      	movle	r0, #0
   8406a:	f001 4100 	andle.w	r1, r1, #2147483648	; 0x80000000
   8406e:	bd70      	pople	{r4, r5, r6, pc}
   84070:	f1c4 0400 	rsb	r4, r4, #0
   84074:	3c20      	subs	r4, #32
   84076:	da35      	bge.n	840e4 <__aeabi_dmul+0x164>
   84078:	340c      	adds	r4, #12
   8407a:	dc1b      	bgt.n	840b4 <__aeabi_dmul+0x134>
   8407c:	f104 0414 	add.w	r4, r4, #20
   84080:	f1c4 0520 	rsb	r5, r4, #32
   84084:	fa00 f305 	lsl.w	r3, r0, r5
   84088:	fa20 f004 	lsr.w	r0, r0, r4
   8408c:	fa01 f205 	lsl.w	r2, r1, r5
   84090:	ea40 0002 	orr.w	r0, r0, r2
   84094:	f001 4200 	and.w	r2, r1, #2147483648	; 0x80000000
   84098:	f021 4100 	bic.w	r1, r1, #2147483648	; 0x80000000
   8409c:	eb10 70d3 	adds.w	r0, r0, r3, lsr #31
   840a0:	fa21 f604 	lsr.w	r6, r1, r4
   840a4:	eb42 0106 	adc.w	r1, r2, r6
   840a8:	ea5e 0e43 	orrs.w	lr, lr, r3, lsl #1
   840ac:	bf08      	it	eq
   840ae:	ea20 70d3 	biceq.w	r0, r0, r3, lsr #31
   840b2:	bd70      	pop	{r4, r5, r6, pc}
   840b4:	f1c4 040c 	rsb	r4, r4, #12
   840b8:	f1c4 0520 	rsb	r5, r4, #32
   840bc:	fa00 f304 	lsl.w	r3, r0, r4
   840c0:	fa20 f005 	lsr.w	r0, r0, r5
   840c4:	fa01 f204 	lsl.w	r2, r1, r4
   840c8:	ea40 0002 	orr.w	r0, r0, r2
   840cc:	f001 4100 	and.w	r1, r1, #2147483648	; 0x80000000
   840d0:	eb10 70d3 	adds.w	r0, r0, r3, lsr #31
   840d4:	f141 0100 	adc.w	r1, r1, #0
   840d8:	ea5e 0e43 	orrs.w	lr, lr, r3, lsl #1
   840dc:	bf08      	it	eq
   840de:	ea20 70d3 	biceq.w	r0, r0, r3, lsr #31
   840e2:	bd70      	pop	{r4, r5, r6, pc}
   840e4:	f1c4 0520 	rsb	r5, r4, #32
   840e8:	fa00 f205 	lsl.w	r2, r0, r5
   840ec:	ea4e 0e02 	orr.w	lr, lr, r2
   840f0:	fa20 f304 	lsr.w	r3, r0, r4
   840f4:	fa01 f205 	lsl.w	r2, r1, r5
   840f8:	ea43 0302 	orr.w	r3, r3, r2
   840fc:	fa21 f004 	lsr.w	r0, r1, r4
   84100:	f001 4100 	and.w	r1, r1, #2147483648	; 0x80000000
   84104:	fa21 f204 	lsr.w	r2, r1, r4
   84108:	ea20 0002 	bic.w	r0, r0, r2
   8410c:	eb00 70d3 	add.w	r0, r0, r3, lsr #31
   84110:	ea5e 0e43 	orrs.w	lr, lr, r3, lsl #1
   84114:	bf08      	it	eq
   84116:	ea20 70d3 	biceq.w	r0, r0, r3, lsr #31
   8411a:	bd70      	pop	{r4, r5, r6, pc}
   8411c:	f094 0f00 	teq	r4, #0
   84120:	d10f      	bne.n	84142 <__aeabi_dmul+0x1c2>
   84122:	f001 4600 	and.w	r6, r1, #2147483648	; 0x80000000
   84126:	0040      	lsls	r0, r0, #1
   84128:	eb41 0101 	adc.w	r1, r1, r1
   8412c:	f411 1f80 	tst.w	r1, #1048576	; 0x100000
   84130:	bf08      	it	eq
   84132:	3c01      	subeq	r4, #1
   84134:	d0f7      	beq.n	84126 <__aeabi_dmul+0x1a6>
   84136:	ea41 0106 	orr.w	r1, r1, r6
   8413a:	f095 0f00 	teq	r5, #0
   8413e:	bf18      	it	ne
   84140:	4770      	bxne	lr
   84142:	f003 4600 	and.w	r6, r3, #2147483648	; 0x80000000
   84146:	0052      	lsls	r2, r2, #1
   84148:	eb43 0303 	adc.w	r3, r3, r3
   8414c:	f413 1f80 	tst.w	r3, #1048576	; 0x100000
   84150:	bf08      	it	eq
   84152:	3d01      	subeq	r5, #1
   84154:	d0f7      	beq.n	84146 <__aeabi_dmul+0x1c6>
   84156:	ea43 0306 	orr.w	r3, r3, r6
   8415a:	4770      	bx	lr
   8415c:	ea94 0f0c 	teq	r4, ip
   84160:	ea0c 5513 	and.w	r5, ip, r3, lsr #20
   84164:	bf18      	it	ne
   84166:	ea95 0f0c 	teqne	r5, ip
   8416a:	d00c      	beq.n	84186 <__aeabi_dmul+0x206>
   8416c:	ea50 0641 	orrs.w	r6, r0, r1, lsl #1
   84170:	bf18      	it	ne
   84172:	ea52 0643 	orrsne.w	r6, r2, r3, lsl #1
   84176:	d1d1      	bne.n	8411c <__aeabi_dmul+0x19c>
   84178:	ea81 0103 	eor.w	r1, r1, r3
   8417c:	f001 4100 	and.w	r1, r1, #2147483648	; 0x80000000
   84180:	f04f 0000 	mov.w	r0, #0
   84184:	bd70      	pop	{r4, r5, r6, pc}
   84186:	ea50 0641 	orrs.w	r6, r0, r1, lsl #1
   8418a:	bf06      	itte	eq
   8418c:	4610      	moveq	r0, r2
   8418e:	4619      	moveq	r1, r3
   84190:	ea52 0643 	orrsne.w	r6, r2, r3, lsl #1
   84194:	d019      	beq.n	841ca <__aeabi_dmul+0x24a>
   84196:	ea94 0f0c 	teq	r4, ip
   8419a:	d102      	bne.n	841a2 <__aeabi_dmul+0x222>
   8419c:	ea50 3601 	orrs.w	r6, r0, r1, lsl #12
   841a0:	d113      	bne.n	841ca <__aeabi_dmul+0x24a>
   841a2:	ea95 0f0c 	teq	r5, ip
   841a6:	d105      	bne.n	841b4 <__aeabi_dmul+0x234>
   841a8:	ea52 3603 	orrs.w	r6, r2, r3, lsl #12
   841ac:	bf1c      	itt	ne
   841ae:	4610      	movne	r0, r2
   841b0:	4619      	movne	r1, r3
   841b2:	d10a      	bne.n	841ca <__aeabi_dmul+0x24a>
   841b4:	ea81 0103 	eor.w	r1, r1, r3
   841b8:	f001 4100 	and.w	r1, r1, #2147483648	; 0x80000000
   841bc:	f041 41fe 	orr.w	r1, r1, #2130706432	; 0x7f000000
   841c0:	f441 0170 	orr.w	r1, r1, #15728640	; 0xf00000
   841c4:	f04f 0000 	mov.w	r0, #0
   841c8:	bd70      	pop	{r4, r5, r6, pc}
   841ca:	f041 41fe 	orr.w	r1, r1, #2130706432	; 0x7f000000
   841ce:	f441 0178 	orr.w	r1, r1, #16252928	; 0xf80000
   841d2:	bd70      	pop	{r4, r5, r6, pc}

000841d4 <__aeabi_ddiv>:
   841d4:	b570      	push	{r4, r5, r6, lr}
   841d6:	f04f 0cff 	mov.w	ip, #255	; 0xff
   841da:	f44c 6ce0 	orr.w	ip, ip, #1792	; 0x700
   841de:	ea1c 5411 	ands.w	r4, ip, r1, lsr #20
   841e2:	bf1d      	ittte	ne
   841e4:	ea1c 5513 	andsne.w	r5, ip, r3, lsr #20
   841e8:	ea94 0f0c 	teqne	r4, ip
   841ec:	ea95 0f0c 	teqne	r5, ip
   841f0:	f000 f8a7 	bleq	84342 <__aeabi_ddiv+0x16e>
   841f4:	eba4 0405 	sub.w	r4, r4, r5
   841f8:	ea81 0e03 	eor.w	lr, r1, r3
   841fc:	ea52 3503 	orrs.w	r5, r2, r3, lsl #12
   84200:	ea4f 3101 	mov.w	r1, r1, lsl #12
   84204:	f000 8088 	beq.w	84318 <__aeabi_ddiv+0x144>
   84208:	ea4f 3303 	mov.w	r3, r3, lsl #12
   8420c:	f04f 5580 	mov.w	r5, #268435456	; 0x10000000
   84210:	ea45 1313 	orr.w	r3, r5, r3, lsr #4
   84214:	ea43 6312 	orr.w	r3, r3, r2, lsr #24
   84218:	ea4f 2202 	mov.w	r2, r2, lsl #8
   8421c:	ea45 1511 	orr.w	r5, r5, r1, lsr #4
   84220:	ea45 6510 	orr.w	r5, r5, r0, lsr #24
   84224:	ea4f 2600 	mov.w	r6, r0, lsl #8
   84228:	f00e 4100 	and.w	r1, lr, #2147483648	; 0x80000000
   8422c:	429d      	cmp	r5, r3
   8422e:	bf08      	it	eq
   84230:	4296      	cmpeq	r6, r2
   84232:	f144 04fd 	adc.w	r4, r4, #253	; 0xfd
   84236:	f504 7440 	add.w	r4, r4, #768	; 0x300
   8423a:	d202      	bcs.n	84242 <__aeabi_ddiv+0x6e>
   8423c:	085b      	lsrs	r3, r3, #1
   8423e:	ea4f 0232 	mov.w	r2, r2, rrx
   84242:	1ab6      	subs	r6, r6, r2
   84244:	eb65 0503 	sbc.w	r5, r5, r3
   84248:	085b      	lsrs	r3, r3, #1
   8424a:	ea4f 0232 	mov.w	r2, r2, rrx
   8424e:	f44f 1080 	mov.w	r0, #1048576	; 0x100000
   84252:	f44f 2c00 	mov.w	ip, #524288	; 0x80000
   84256:	ebb6 0e02 	subs.w	lr, r6, r2
   8425a:	eb75 0e03 	sbcs.w	lr, r5, r3
   8425e:	bf22      	ittt	cs
   84260:	1ab6      	subcs	r6, r6, r2
   84262:	4675      	movcs	r5, lr
   84264:	ea40 000c 	orrcs.w	r0, r0, ip
   84268:	085b      	lsrs	r3, r3, #1
   8426a:	ea4f 0232 	mov.w	r2, r2, rrx
   8426e:	ebb6 0e02 	subs.w	lr, r6, r2
   84272:	eb75 0e03 	sbcs.w	lr, r5, r3
   84276:	bf22      	ittt	cs
   84278:	1ab6      	subcs	r6, r6, r2
   8427a:	4675      	movcs	r5, lr
   8427c:	ea40 005c 	orrcs.w	r0, r0, ip, lsr #1
   84280:	085b      	lsrs	r3, r3, #1
   84282:	ea4f 0232 	mov.w	r2, r2, rrx
   84286:	ebb6 0e02 	subs.w	lr, r6, r2
   8428a:	eb75 0e03 	sbcs.w	lr, r5, r3
   8428e:	bf22      	ittt	cs
   84290:	1ab6      	subcs	r6, r6, r2
   84292:	4675      	movcs	r5, lr
   84294:	ea40 009c 	orrcs.w	r0, r0, ip, lsr #2
   84298:	085b      	lsrs	r3, r3, #1
   8429a:	ea4f 0232 	mov.w	r2, r2, rrx
   8429e:	ebb6 0e02 	subs.w	lr, r6, r2
   842a2:	eb75 0e03 	sbcs.w	lr, r5, r3
   842a6:	bf22      	ittt	cs
   842a8:	1ab6      	subcs	r6, r6, r2
   842aa:	4675      	movcs	r5, lr
   842ac:	ea40 00dc 	orrcs.w	r0, r0, ip, lsr #3
   842b0:	ea55 0e06 	orrs.w	lr, r5, r6
   842b4:	d018      	beq.n	842e8 <__aeabi_ddiv+0x114>
   842b6:	ea4f 1505 	mov.w	r5, r5, lsl #4
   842ba:	ea45 7516 	orr.w	r5, r5, r6, lsr #28
   842be:	ea4f 1606 	mov.w	r6, r6, lsl #4
   842c2:	ea4f 03c3 	mov.w	r3, r3, lsl #3
   842c6:	ea43 7352 	orr.w	r3, r3, r2, lsr #29
   842ca:	ea4f 02c2 	mov.w	r2, r2, lsl #3
   842ce:	ea5f 1c1c 	movs.w	ip, ip, lsr #4
   842d2:	d1c0      	bne.n	84256 <__aeabi_ddiv+0x82>
   842d4:	f411 1f80 	tst.w	r1, #1048576	; 0x100000
   842d8:	d10b      	bne.n	842f2 <__aeabi_ddiv+0x11e>
   842da:	ea41 0100 	orr.w	r1, r1, r0
   842de:	f04f 0000 	mov.w	r0, #0
   842e2:	f04f 4c00 	mov.w	ip, #2147483648	; 0x80000000
   842e6:	e7b6      	b.n	84256 <__aeabi_ddiv+0x82>
   842e8:	f411 1f80 	tst.w	r1, #1048576	; 0x100000
   842ec:	bf04      	itt	eq
   842ee:	4301      	orreq	r1, r0
   842f0:	2000      	moveq	r0, #0
   842f2:	f1b4 0cfd 	subs.w	ip, r4, #253	; 0xfd
   842f6:	bf88      	it	hi
   842f8:	f5bc 6fe0 	cmphi.w	ip, #1792	; 0x700
   842fc:	f63f aeaf 	bhi.w	8405e <__aeabi_dmul+0xde>
   84300:	ebb5 0c03 	subs.w	ip, r5, r3
   84304:	bf04      	itt	eq
   84306:	ebb6 0c02 	subseq.w	ip, r6, r2
   8430a:	ea5f 0c50 	movseq.w	ip, r0, lsr #1
   8430e:	f150 0000 	adcs.w	r0, r0, #0
   84312:	eb41 5104 	adc.w	r1, r1, r4, lsl #20
   84316:	bd70      	pop	{r4, r5, r6, pc}
   84318:	f00e 4e00 	and.w	lr, lr, #2147483648	; 0x80000000
   8431c:	ea4e 3111 	orr.w	r1, lr, r1, lsr #12
   84320:	eb14 045c 	adds.w	r4, r4, ip, lsr #1
   84324:	bfc2      	ittt	gt
   84326:	ebd4 050c 	rsbsgt	r5, r4, ip
   8432a:	ea41 5104 	orrgt.w	r1, r1, r4, lsl #20
   8432e:	bd70      	popgt	{r4, r5, r6, pc}
   84330:	f441 1180 	orr.w	r1, r1, #1048576	; 0x100000
   84334:	f04f 0e00 	mov.w	lr, #0
   84338:	3c01      	subs	r4, #1
   8433a:	e690      	b.n	8405e <__aeabi_dmul+0xde>
   8433c:	ea45 0e06 	orr.w	lr, r5, r6
   84340:	e68d      	b.n	8405e <__aeabi_dmul+0xde>
   84342:	ea0c 5513 	and.w	r5, ip, r3, lsr #20
   84346:	ea94 0f0c 	teq	r4, ip
   8434a:	bf08      	it	eq
   8434c:	ea95 0f0c 	teqeq	r5, ip
   84350:	f43f af3b 	beq.w	841ca <__aeabi_dmul+0x24a>
   84354:	ea94 0f0c 	teq	r4, ip
   84358:	d10a      	bne.n	84370 <__aeabi_ddiv+0x19c>
   8435a:	ea50 3401 	orrs.w	r4, r0, r1, lsl #12
   8435e:	f47f af34 	bne.w	841ca <__aeabi_dmul+0x24a>
   84362:	ea95 0f0c 	teq	r5, ip
   84366:	f47f af25 	bne.w	841b4 <__aeabi_dmul+0x234>
   8436a:	4610      	mov	r0, r2
   8436c:	4619      	mov	r1, r3
   8436e:	e72c      	b.n	841ca <__aeabi_dmul+0x24a>
   84370:	ea95 0f0c 	teq	r5, ip
   84374:	d106      	bne.n	84384 <__aeabi_ddiv+0x1b0>
   84376:	ea52 3503 	orrs.w	r5, r2, r3, lsl #12
   8437a:	f43f aefd 	beq.w	84178 <__aeabi_dmul+0x1f8>
   8437e:	4610      	mov	r0, r2
   84380:	4619      	mov	r1, r3
   84382:	e722      	b.n	841ca <__aeabi_dmul+0x24a>
   84384:	ea50 0641 	orrs.w	r6, r0, r1, lsl #1
   84388:	bf18      	it	ne
   8438a:	ea52 0643 	orrsne.w	r6, r2, r3, lsl #1
   8438e:	f47f aec5 	bne.w	8411c <__aeabi_dmul+0x19c>
   84392:	ea50 0441 	orrs.w	r4, r0, r1, lsl #1
   84396:	f47f af0d 	bne.w	841b4 <__aeabi_dmul+0x234>
   8439a:	ea52 0543 	orrs.w	r5, r2, r3, lsl #1
   8439e:	f47f aeeb 	bne.w	84178 <__aeabi_dmul+0x1f8>
   843a2:	e712      	b.n	841ca <__aeabi_dmul+0x24a>

000843a4 <__aeabi_d2iz>:
   843a4:	ea4f 0241 	mov.w	r2, r1, lsl #1
   843a8:	f512 1200 	adds.w	r2, r2, #2097152	; 0x200000
   843ac:	d215      	bcs.n	843da <__aeabi_d2iz+0x36>
   843ae:	d511      	bpl.n	843d4 <__aeabi_d2iz+0x30>
   843b0:	f46f 7378 	mvn.w	r3, #992	; 0x3e0
   843b4:	ebb3 5262 	subs.w	r2, r3, r2, asr #21
   843b8:	d912      	bls.n	843e0 <__aeabi_d2iz+0x3c>
   843ba:	ea4f 23c1 	mov.w	r3, r1, lsl #11
   843be:	f043 4300 	orr.w	r3, r3, #2147483648	; 0x80000000
   843c2:	ea43 5350 	orr.w	r3, r3, r0, lsr #21
   843c6:	f011 4f00 	tst.w	r1, #2147483648	; 0x80000000
   843ca:	fa23 f002 	lsr.w	r0, r3, r2
   843ce:	bf18      	it	ne
   843d0:	4240      	negne	r0, r0
   843d2:	4770      	bx	lr
   843d4:	f04f 0000 	mov.w	r0, #0
   843d8:	4770      	bx	lr
   843da:	ea50 3001 	orrs.w	r0, r0, r1, lsl #12
   843de:	d105      	bne.n	843ec <__aeabi_d2iz+0x48>
   843e0:	f011 4000 	ands.w	r0, r1, #2147483648	; 0x80000000
   843e4:	bf08      	it	eq
   843e6:	f06f 4000 	mvneq.w	r0, #2147483648	; 0x80000000
   843ea:	4770      	bx	lr
   843ec:	f04f 0000 	mov.w	r0, #0
   843f0:	4770      	bx	lr
   843f2:	bf00      	nop

000843f4 <__register_exitproc>:
   843f4:	e92d 43f8 	stmdb	sp!, {r3, r4, r5, r6, r7, r8, r9, lr}
   843f8:	4698      	mov	r8, r3
   843fa:	4b23      	ldr	r3, [pc, #140]	; (84488 <__register_exitproc+0x94>)
   843fc:	4606      	mov	r6, r0
   843fe:	681c      	ldr	r4, [r3, #0]
   84400:	460f      	mov	r7, r1
   84402:	f8d4 0148 	ldr.w	r0, [r4, #328]	; 0x148
   84406:	4691      	mov	r9, r2
   84408:	b918      	cbnz	r0, 84412 <__register_exitproc+0x1e>
   8440a:	f504 70a6 	add.w	r0, r4, #332	; 0x14c
   8440e:	f8c4 0148 	str.w	r0, [r4, #328]	; 0x148
   84412:	6841      	ldr	r1, [r0, #4]
   84414:	291f      	cmp	r1, #31
   84416:	dd16      	ble.n	84446 <__register_exitproc+0x52>
   84418:	481c      	ldr	r0, [pc, #112]	; (8448c <__register_exitproc+0x98>)
   8441a:	b918      	cbnz	r0, 84424 <__register_exitproc+0x30>
   8441c:	f04f 30ff 	mov.w	r0, #4294967295
   84420:	e8bd 83f8 	ldmia.w	sp!, {r3, r4, r5, r6, r7, r8, r9, pc}
   84424:	f44f 70c8 	mov.w	r0, #400	; 0x190
   84428:	f003 f91e 	bl	87668 <malloc>
   8442c:	2800      	cmp	r0, #0
   8442e:	d0f5      	beq.n	8441c <__register_exitproc+0x28>
   84430:	f8d4 2148 	ldr.w	r2, [r4, #328]	; 0x148
   84434:	2500      	movs	r5, #0
   84436:	6045      	str	r5, [r0, #4]
   84438:	6002      	str	r2, [r0, #0]
   8443a:	f8c4 0148 	str.w	r0, [r4, #328]	; 0x148
   8443e:	f8c0 5188 	str.w	r5, [r0, #392]	; 0x188
   84442:	f8c0 518c 	str.w	r5, [r0, #396]	; 0x18c
   84446:	b1b6      	cbz	r6, 84476 <__register_exitproc+0x82>
   84448:	6844      	ldr	r4, [r0, #4]
   8444a:	2201      	movs	r2, #1
   8444c:	fa02 f204 	lsl.w	r2, r2, r4
   84450:	f8d0 1188 	ldr.w	r1, [r0, #392]	; 0x188
   84454:	eb00 0384 	add.w	r3, r0, r4, lsl #2
   84458:	4311      	orrs	r1, r2
   8445a:	2e02      	cmp	r6, #2
   8445c:	f8c3 9088 	str.w	r9, [r3, #136]	; 0x88
   84460:	f8c0 1188 	str.w	r1, [r0, #392]	; 0x188
   84464:	461c      	mov	r4, r3
   84466:	f8c3 8108 	str.w	r8, [r3, #264]	; 0x108
   8446a:	d104      	bne.n	84476 <__register_exitproc+0x82>
   8446c:	f8d0 318c 	ldr.w	r3, [r0, #396]	; 0x18c
   84470:	431a      	orrs	r2, r3
   84472:	f8c0 218c 	str.w	r2, [r0, #396]	; 0x18c
   84476:	6841      	ldr	r1, [r0, #4]
   84478:	1c8b      	adds	r3, r1, #2
   8447a:	1c4a      	adds	r2, r1, #1
   8447c:	f840 7023 	str.w	r7, [r0, r3, lsl #2]
   84480:	6042      	str	r2, [r0, #4]
   84482:	2000      	movs	r0, #0
   84484:	e8bd 83f8 	ldmia.w	sp!, {r3, r4, r5, r6, r7, r8, r9, pc}
   84488:	00089b14 	.word	0x00089b14
   8448c:	00087669 	.word	0x00087669

00084490 <atof>:
   84490:	2100      	movs	r1, #0
   84492:	f000 bee5 	b.w	85260 <strtod>
	...

00084498 <__libc_fini_array>:
   84498:	b570      	push	{r4, r5, r6, lr}
   8449a:	4b08      	ldr	r3, [pc, #32]	; (844bc <__libc_fini_array+0x24>)
   8449c:	4c08      	ldr	r4, [pc, #32]	; (844c0 <__libc_fini_array+0x28>)
   8449e:	2500      	movs	r5, #0
   844a0:	1ae0      	subs	r0, r4, r3
   844a2:	1084      	asrs	r4, r0, #2
   844a4:	eb03 0684 	add.w	r6, r3, r4, lsl #2
   844a8:	3d04      	subs	r5, #4
   844aa:	b11c      	cbz	r4, 844b4 <__libc_fini_array+0x1c>
   844ac:	5972      	ldr	r2, [r6, r5]
   844ae:	4790      	blx	r2
   844b0:	3c01      	subs	r4, #1
   844b2:	e7f9      	b.n	844a8 <__libc_fini_array+0x10>
   844b4:	e8bd 4070 	ldmia.w	sp!, {r4, r5, r6, lr}
   844b8:	f005 bca8 	b.w	89e0c <_fini>
   844bc:	00089e18 	.word	0x00089e18
   844c0:	00089e1c 	.word	0x00089e1c

000844c4 <__libc_init_array>:
   844c4:	b538      	push	{r3, r4, r5, lr}
   844c6:	4d0e      	ldr	r5, [pc, #56]	; (84500 <__libc_init_array+0x3c>)
   844c8:	4b0e      	ldr	r3, [pc, #56]	; (84504 <__libc_init_array+0x40>)
   844ca:	2400      	movs	r4, #0
   844cc:	1ae8      	subs	r0, r5, r3
   844ce:	1085      	asrs	r5, r0, #2
   844d0:	42ac      	cmp	r4, r5
   844d2:	d005      	beq.n	844e0 <__libc_init_array+0x1c>
   844d4:	490b      	ldr	r1, [pc, #44]	; (84504 <__libc_init_array+0x40>)
   844d6:	f851 2024 	ldr.w	r2, [r1, r4, lsl #2]
   844da:	4790      	blx	r2
   844dc:	3401      	adds	r4, #1
   844de:	e7f7      	b.n	844d0 <__libc_init_array+0xc>
   844e0:	f005 fc8a 	bl	89df8 <_init>
   844e4:	4908      	ldr	r1, [pc, #32]	; (84508 <__libc_init_array+0x44>)
   844e6:	4a09      	ldr	r2, [pc, #36]	; (8450c <__libc_init_array+0x48>)
   844e8:	1a54      	subs	r4, r2, r1
   844ea:	10a5      	asrs	r5, r4, #2
   844ec:	2400      	movs	r4, #0
   844ee:	42ac      	cmp	r4, r5
   844f0:	d005      	beq.n	844fe <__libc_init_array+0x3a>
   844f2:	4b05      	ldr	r3, [pc, #20]	; (84508 <__libc_init_array+0x44>)
   844f4:	f853 0024 	ldr.w	r0, [r3, r4, lsl #2]
   844f8:	4780      	blx	r0
   844fa:	3401      	adds	r4, #1
   844fc:	e7f7      	b.n	844ee <__libc_init_array+0x2a>
   844fe:	bd38      	pop	{r3, r4, r5, pc}
   84500:	00089e04 	.word	0x00089e04
   84504:	00089e04 	.word	0x00089e04
   84508:	00089e04 	.word	0x00089e04
   8450c:	00089e0c 	.word	0x00089e0c

00084510 <iprintf>:
   84510:	b40f      	push	{r0, r1, r2, r3}
   84512:	b507      	push	{r0, r1, r2, lr}
   84514:	4906      	ldr	r1, [pc, #24]	; (84530 <iprintf+0x20>)
   84516:	ab04      	add	r3, sp, #16
   84518:	6808      	ldr	r0, [r1, #0]
   8451a:	f853 2b04 	ldr.w	r2, [r3], #4
   8451e:	6881      	ldr	r1, [r0, #8]
   84520:	9301      	str	r3, [sp, #4]
   84522:	f000 fef5 	bl	85310 <_vfiprintf_r>
   84526:	e8bd 400e 	ldmia.w	sp!, {r1, r2, r3, lr}
   8452a:	b004      	add	sp, #16
   8452c:	4770      	bx	lr
   8452e:	bf00      	nop
   84530:	20070018 	.word	0x20070018

00084534 <_iprintf_r>:
   84534:	b40e      	push	{r1, r2, r3}
   84536:	b503      	push	{r0, r1, lr}
   84538:	ab03      	add	r3, sp, #12
   8453a:	f853 2b04 	ldr.w	r2, [r3], #4
   8453e:	6881      	ldr	r1, [r0, #8]
   84540:	9301      	str	r3, [sp, #4]
   84542:	f000 fee5 	bl	85310 <_vfiprintf_r>
   84546:	e8bd 400c 	ldmia.w	sp!, {r2, r3, lr}
   8454a:	b003      	add	sp, #12
   8454c:	4770      	bx	lr
   8454e:	bf00      	nop

00084550 <iscanf>:
   84550:	b40f      	push	{r0, r1, r2, r3}
   84552:	b507      	push	{r0, r1, r2, lr}
   84554:	4906      	ldr	r1, [pc, #24]	; (84570 <iscanf+0x20>)
   84556:	ab04      	add	r3, sp, #16
   84558:	6808      	ldr	r0, [r1, #0]
   8455a:	f853 2b04 	ldr.w	r2, [r3], #4
   8455e:	6841      	ldr	r1, [r0, #4]
   84560:	9301      	str	r3, [sp, #4]
   84562:	f001 fb2b 	bl	85bbc <__svfiscanf_r>
   84566:	e8bd 400e 	ldmia.w	sp!, {r1, r2, r3, lr}
   8456a:	b004      	add	sp, #16
   8456c:	4770      	bx	lr
   8456e:	bf00      	nop
   84570:	20070018 	.word	0x20070018

00084574 <_iscanf_r>:
   84574:	b40e      	push	{r1, r2, r3}
   84576:	b503      	push	{r0, r1, lr}
   84578:	ab03      	add	r3, sp, #12
   8457a:	f853 2b04 	ldr.w	r2, [r3], #4
   8457e:	6841      	ldr	r1, [r0, #4]
   84580:	9301      	str	r3, [sp, #4]
   84582:	f001 fb1b 	bl	85bbc <__svfiscanf_r>
   84586:	e8bd 400c 	ldmia.w	sp!, {r2, r3, lr}
   8458a:	b003      	add	sp, #12
   8458c:	4770      	bx	lr
   8458e:	bf00      	nop

00084590 <memcpy>:
   84590:	b510      	push	{r4, lr}
   84592:	2300      	movs	r3, #0
   84594:	4293      	cmp	r3, r2
   84596:	d003      	beq.n	845a0 <memcpy+0x10>
   84598:	5ccc      	ldrb	r4, [r1, r3]
   8459a:	54c4      	strb	r4, [r0, r3]
   8459c:	3301      	adds	r3, #1
   8459e:	e7f9      	b.n	84594 <memcpy+0x4>
   845a0:	bd10      	pop	{r4, pc}

000845a2 <memset>:
   845a2:	1882      	adds	r2, r0, r2
   845a4:	4603      	mov	r3, r0
   845a6:	4293      	cmp	r3, r2
   845a8:	d002      	beq.n	845b0 <memset+0xe>
   845aa:	f803 1b01 	strb.w	r1, [r3], #1
   845ae:	e7fa      	b.n	845a6 <memset+0x4>
   845b0:	4770      	bx	lr

000845b2 <setbuf>:
   845b2:	2900      	cmp	r1, #0
   845b4:	bf0c      	ite	eq
   845b6:	2202      	moveq	r2, #2
   845b8:	2200      	movne	r2, #0
   845ba:	f44f 6380 	mov.w	r3, #1024	; 0x400
   845be:	f000 b801 	b.w	845c4 <setvbuf>
	...

000845c4 <setvbuf>:
   845c4:	e92d 41f0 	stmdb	sp!, {r4, r5, r6, r7, r8, lr}
   845c8:	461d      	mov	r5, r3
   845ca:	4b37      	ldr	r3, [pc, #220]	; (846a8 <setvbuf+0xe4>)
   845cc:	4604      	mov	r4, r0
   845ce:	6818      	ldr	r0, [r3, #0]
   845d0:	460e      	mov	r6, r1
   845d2:	4617      	mov	r7, r2
   845d4:	4698      	mov	r8, r3
   845d6:	b118      	cbz	r0, 845e0 <setvbuf+0x1c>
   845d8:	6b82      	ldr	r2, [r0, #56]	; 0x38
   845da:	b90a      	cbnz	r2, 845e0 <setvbuf+0x1c>
   845dc:	f002 f85a 	bl	86694 <__sinit>
   845e0:	2f02      	cmp	r7, #2
   845e2:	d85d      	bhi.n	846a0 <setvbuf+0xdc>
   845e4:	2d00      	cmp	r5, #0
   845e6:	db5b      	blt.n	846a0 <setvbuf+0xdc>
   845e8:	4621      	mov	r1, r4
   845ea:	f8d8 0000 	ldr.w	r0, [r8]
   845ee:	f001 ff5f 	bl	864b0 <_fflush_r>
   845f2:	89a1      	ldrh	r1, [r4, #12]
   845f4:	2000      	movs	r0, #0
   845f6:	f001 0380 	and.w	r3, r1, #128	; 0x80
   845fa:	b21a      	sxth	r2, r3
   845fc:	6060      	str	r0, [r4, #4]
   845fe:	61a0      	str	r0, [r4, #24]
   84600:	b122      	cbz	r2, 8460c <setvbuf+0x48>
   84602:	4829      	ldr	r0, [pc, #164]	; (846a8 <setvbuf+0xe4>)
   84604:	6921      	ldr	r1, [r4, #16]
   84606:	6800      	ldr	r0, [r0, #0]
   84608:	f002 f9e0 	bl	869cc <_free_r>
   8460c:	89a1      	ldrh	r1, [r4, #12]
   8460e:	2f02      	cmp	r7, #2
   84610:	f021 0383 	bic.w	r3, r1, #131	; 0x83
   84614:	81a3      	strh	r3, [r4, #12]
   84616:	d012      	beq.n	8463e <setvbuf+0x7a>
   84618:	bb36      	cbnz	r6, 84668 <setvbuf+0xa4>
   8461a:	2d00      	cmp	r5, #0
   8461c:	bf08      	it	eq
   8461e:	f44f 6580 	moveq.w	r5, #1024	; 0x400
   84622:	4628      	mov	r0, r5
   84624:	f003 f820 	bl	87668 <malloc>
   84628:	4606      	mov	r6, r0
   8462a:	b9c8      	cbnz	r0, 84660 <setvbuf+0x9c>
   8462c:	f44f 6080 	mov.w	r0, #1024	; 0x400
   84630:	f003 f81a 	bl	87668 <malloc>
   84634:	4606      	mov	r6, r0
   84636:	b988      	cbnz	r0, 8465c <setvbuf+0x98>
   84638:	f04f 30ff 	mov.w	r0, #4294967295
   8463c:	e000      	b.n	84640 <setvbuf+0x7c>
   8463e:	2000      	movs	r0, #0
   84640:	89a1      	ldrh	r1, [r4, #12]
   84642:	2200      	movs	r2, #0
   84644:	f041 0302 	orr.w	r3, r1, #2
   84648:	81a3      	strh	r3, [r4, #12]
   8464a:	f104 0143 	add.w	r1, r4, #67	; 0x43
   8464e:	2301      	movs	r3, #1
   84650:	60a2      	str	r2, [r4, #8]
   84652:	6021      	str	r1, [r4, #0]
   84654:	6121      	str	r1, [r4, #16]
   84656:	6163      	str	r3, [r4, #20]
   84658:	e8bd 81f0 	ldmia.w	sp!, {r4, r5, r6, r7, r8, pc}
   8465c:	f44f 6580 	mov.w	r5, #1024	; 0x400
   84660:	89a2      	ldrh	r2, [r4, #12]
   84662:	f042 0080 	orr.w	r0, r2, #128	; 0x80
   84666:	81a0      	strh	r0, [r4, #12]
   84668:	2f01      	cmp	r7, #1
   8466a:	d105      	bne.n	84678 <setvbuf+0xb4>
   8466c:	89a1      	ldrh	r1, [r4, #12]
   8466e:	426a      	negs	r2, r5
   84670:	f041 0301 	orr.w	r3, r1, #1
   84674:	81a3      	strh	r3, [r4, #12]
   84676:	61a2      	str	r2, [r4, #24]
   84678:	480b      	ldr	r0, [pc, #44]	; (846a8 <setvbuf+0xe4>)
   8467a:	89a2      	ldrh	r2, [r4, #12]
   8467c:	6801      	ldr	r1, [r0, #0]
   8467e:	4b0b      	ldr	r3, [pc, #44]	; (846ac <setvbuf+0xe8>)
   84680:	f002 0008 	and.w	r0, r2, #8
   84684:	b200      	sxth	r0, r0
   84686:	63cb      	str	r3, [r1, #60]	; 0x3c
   84688:	6026      	str	r6, [r4, #0]
   8468a:	6126      	str	r6, [r4, #16]
   8468c:	6165      	str	r5, [r4, #20]
   8468e:	b148      	cbz	r0, 846a4 <setvbuf+0xe0>
   84690:	f012 0f03 	tst.w	r2, #3
   84694:	bf18      	it	ne
   84696:	2500      	movne	r5, #0
   84698:	60a5      	str	r5, [r4, #8]
   8469a:	2000      	movs	r0, #0
   8469c:	e8bd 81f0 	ldmia.w	sp!, {r4, r5, r6, r7, r8, pc}
   846a0:	f04f 30ff 	mov.w	r0, #4294967295
   846a4:	e8bd 81f0 	ldmia.w	sp!, {r4, r5, r6, r7, r8, pc}
   846a8:	20070018 	.word	0x20070018
   846ac:	00086609 	.word	0x00086609

000846b0 <strlen>:
   846b0:	4603      	mov	r3, r0
   846b2:	f813 2b01 	ldrb.w	r2, [r3], #1
   846b6:	2a00      	cmp	r2, #0
   846b8:	d1fb      	bne.n	846b2 <strlen+0x2>
   846ba:	1a18      	subs	r0, r3, r0
   846bc:	3801      	subs	r0, #1
   846be:	4770      	bx	lr

000846c0 <strncmp>:
   846c0:	b570      	push	{r4, r5, r6, lr}
   846c2:	b192      	cbz	r2, 846ea <strncmp+0x2a>
   846c4:	460b      	mov	r3, r1
   846c6:	4605      	mov	r5, r0
   846c8:	b91a      	cbnz	r2, 846d2 <strncmp+0x12>
   846ca:	7828      	ldrb	r0, [r5, #0]
   846cc:	7819      	ldrb	r1, [r3, #0]
   846ce:	1a40      	subs	r0, r0, r1
   846d0:	bd70      	pop	{r4, r5, r6, pc}
   846d2:	f810 6b01 	ldrb.w	r6, [r0], #1
   846d6:	781c      	ldrb	r4, [r3, #0]
   846d8:	3101      	adds	r1, #1
   846da:	42b4      	cmp	r4, r6
   846dc:	d1f5      	bne.n	846ca <strncmp+0xa>
   846de:	2a01      	cmp	r2, #1
   846e0:	d0f3      	beq.n	846ca <strncmp+0xa>
   846e2:	3a01      	subs	r2, #1
   846e4:	2c00      	cmp	r4, #0
   846e6:	d1ed      	bne.n	846c4 <strncmp+0x4>
   846e8:	e7ef      	b.n	846ca <strncmp+0xa>
   846ea:	4610      	mov	r0, r2
   846ec:	bd70      	pop	{r4, r5, r6, pc}

000846ee <strncpy>:
   846ee:	b530      	push	{r4, r5, lr}
   846f0:	3901      	subs	r1, #1
   846f2:	4603      	mov	r3, r0
   846f4:	461c      	mov	r4, r3
   846f6:	b13a      	cbz	r2, 84708 <strncpy+0x1a>
   846f8:	f811 5f01 	ldrb.w	r5, [r1, #1]!
   846fc:	3a01      	subs	r2, #1
   846fe:	f803 5b01 	strb.w	r5, [r3], #1
   84702:	461c      	mov	r4, r3
   84704:	2d00      	cmp	r5, #0
   84706:	d1f5      	bne.n	846f4 <strncpy+0x6>
   84708:	1899      	adds	r1, r3, r2
   8470a:	428c      	cmp	r4, r1
   8470c:	d003      	beq.n	84716 <strncpy+0x28>
   8470e:	2200      	movs	r2, #0
   84710:	f804 2b01 	strb.w	r2, [r4], #1
   84714:	e7f9      	b.n	8470a <strncpy+0x1c>
   84716:	bd30      	pop	{r4, r5, pc}

00084718 <match>:
   84718:	b530      	push	{r4, r5, lr}
   8471a:	6805      	ldr	r5, [r0, #0]
   8471c:	f811 2b01 	ldrb.w	r2, [r1], #1
   84720:	462c      	mov	r4, r5
   84722:	1c6b      	adds	r3, r5, #1
   84724:	b152      	cbz	r2, 8473c <match+0x24>
   84726:	461d      	mov	r5, r3
   84728:	7863      	ldrb	r3, [r4, #1]
   8472a:	2b40      	cmp	r3, #64	; 0x40
   8472c:	dd02      	ble.n	84734 <match+0x1c>
   8472e:	2b5a      	cmp	r3, #90	; 0x5a
   84730:	bfd8      	it	le
   84732:	3320      	addle	r3, #32
   84734:	4293      	cmp	r3, r2
   84736:	d0f1      	beq.n	8471c <match+0x4>
   84738:	2000      	movs	r0, #0
   8473a:	bd30      	pop	{r4, r5, pc}
   8473c:	6003      	str	r3, [r0, #0]
   8473e:	2001      	movs	r0, #1
   84740:	bd30      	pop	{r4, r5, pc}

00084742 <_strtod_r>:
   84742:	e92d 4ff0 	stmdb	sp!, {r4, r5, r6, r7, r8, r9, sl, fp, lr}
   84746:	b099      	sub	sp, #100	; 0x64
   84748:	4681      	mov	r9, r0
   8474a:	4688      	mov	r8, r1
   8474c:	9211      	str	r2, [sp, #68]	; 0x44
   8474e:	f04f 0a00 	mov.w	sl, #0
   84752:	f04f 0b00 	mov.w	fp, #0
   84756:	9113      	str	r1, [sp, #76]	; 0x4c
   84758:	9a13      	ldr	r2, [sp, #76]	; 0x4c
   8475a:	7813      	ldrb	r3, [r2, #0]
   8475c:	2b0d      	cmp	r3, #13
   8475e:	d805      	bhi.n	8476c <_strtod_r+0x2a>
   84760:	2b09      	cmp	r3, #9
   84762:	d213      	bcs.n	8478c <_strtod_r+0x4a>
   84764:	2b00      	cmp	r3, #0
   84766:	f000 81b6 	beq.w	84ad6 <_strtod_r+0x394>
   8476a:	e012      	b.n	84792 <_strtod_r+0x50>
   8476c:	2b2b      	cmp	r3, #43	; 0x2b
   8476e:	d006      	beq.n	8477e <_strtod_r+0x3c>
   84770:	2b2d      	cmp	r3, #45	; 0x2d
   84772:	d002      	beq.n	8477a <_strtod_r+0x38>
   84774:	2b20      	cmp	r3, #32
   84776:	d10c      	bne.n	84792 <_strtod_r+0x50>
   84778:	e008      	b.n	8478c <_strtod_r+0x4a>
   8477a:	2301      	movs	r3, #1
   8477c:	e000      	b.n	84780 <_strtod_r+0x3e>
   8477e:	2300      	movs	r3, #0
   84780:	1c54      	adds	r4, r2, #1
   84782:	9413      	str	r4, [sp, #76]	; 0x4c
   84784:	7852      	ldrb	r2, [r2, #1]
   84786:	930d      	str	r3, [sp, #52]	; 0x34
   84788:	b92a      	cbnz	r2, 84796 <_strtod_r+0x54>
   8478a:	e1a4      	b.n	84ad6 <_strtod_r+0x394>
   8478c:	1c51      	adds	r1, r2, #1
   8478e:	9113      	str	r1, [sp, #76]	; 0x4c
   84790:	e7e2      	b.n	84758 <_strtod_r+0x16>
   84792:	2400      	movs	r4, #0
   84794:	940d      	str	r4, [sp, #52]	; 0x34
   84796:	9c13      	ldr	r4, [sp, #76]	; 0x4c
   84798:	7821      	ldrb	r1, [r4, #0]
   8479a:	2930      	cmp	r1, #48	; 0x30
   8479c:	d15c      	bne.n	84858 <_strtod_r+0x116>
   8479e:	7863      	ldrb	r3, [r4, #1]
   847a0:	2b58      	cmp	r3, #88	; 0x58
   847a2:	d001      	beq.n	847a8 <_strtod_r+0x66>
   847a4:	2b78      	cmp	r3, #120	; 0x78
   847a6:	d14b      	bne.n	84840 <_strtod_r+0xfe>
   847a8:	9a0d      	ldr	r2, [sp, #52]	; 0x34
   847aa:	4fa3      	ldr	r7, [pc, #652]	; (84a38 <_strtod_r+0x2f6>)
   847ac:	ae14      	add	r6, sp, #80	; 0x50
   847ae:	9600      	str	r6, [sp, #0]
   847b0:	9201      	str	r2, [sp, #4]
   847b2:	4648      	mov	r0, r9
   847b4:	a913      	add	r1, sp, #76	; 0x4c
   847b6:	463a      	mov	r2, r7
   847b8:	ab15      	add	r3, sp, #84	; 0x54
   847ba:	f002 fbb7 	bl	86f2c <__gethex>
   847be:	f010 0607 	ands.w	r6, r0, #7
   847c2:	4605      	mov	r5, r0
   847c4:	f000 852a 	beq.w	8521c <_strtod_r+0xada>
   847c8:	2e06      	cmp	r6, #6
   847ca:	d103      	bne.n	847d4 <_strtod_r+0x92>
   847cc:	1c62      	adds	r2, r4, #1
   847ce:	9213      	str	r2, [sp, #76]	; 0x4c
   847d0:	f000 bd24 	b.w	8521c <_strtod_r+0xada>
   847d4:	9a14      	ldr	r2, [sp, #80]	; 0x50
   847d6:	b13a      	cbz	r2, 847e8 <_strtod_r+0xa6>
   847d8:	a816      	add	r0, sp, #88	; 0x58
   847da:	6839      	ldr	r1, [r7, #0]
   847dc:	f003 fd90 	bl	88300 <__copybits>
   847e0:	4648      	mov	r0, r9
   847e2:	9914      	ldr	r1, [sp, #80]	; 0x50
   847e4:	f003 fa02 	bl	87bec <_Bfree>
   847e8:	9815      	ldr	r0, [sp, #84]	; 0x54
   847ea:	2e06      	cmp	r6, #6
   847ec:	d821      	bhi.n	84832 <_strtod_r+0xf0>
   847ee:	e8df f006 	tbb	[pc, r6]
   847f2:	0d04      	.short	0x0d04
   847f4:	0d1c1708 	.word	0x0d1c1708
   847f8:	04          	.byte	0x04
   847f9:	00          	.byte	0x00
   847fa:	f04f 0b00 	mov.w	fp, #0
   847fe:	46da      	mov	sl, fp
   84800:	e017      	b.n	84832 <_strtod_r+0xf0>
   84802:	f8dd a058 	ldr.w	sl, [sp, #88]	; 0x58
   84806:	f8dd b05c 	ldr.w	fp, [sp, #92]	; 0x5c
   8480a:	e012      	b.n	84832 <_strtod_r+0xf0>
   8480c:	9b17      	ldr	r3, [sp, #92]	; 0x5c
   8480e:	f200 4133 	addw	r1, r0, #1075	; 0x433
   84812:	f423 1480 	bic.w	r4, r3, #1048576	; 0x100000
   84816:	f8dd a058 	ldr.w	sl, [sp, #88]	; 0x58
   8481a:	ea44 5b01 	orr.w	fp, r4, r1, lsl #20
   8481e:	e008      	b.n	84832 <_strtod_r+0xf0>
   84820:	f8df b218 	ldr.w	fp, [pc, #536]	; 84a3c <_strtod_r+0x2fa>
   84824:	f04f 0a00 	mov.w	sl, #0
   84828:	e003      	b.n	84832 <_strtod_r+0xf0>
   8482a:	f06f 4b00 	mvn.w	fp, #2147483648	; 0x80000000
   8482e:	f04f 3aff 	mov.w	sl, #4294967295
   84832:	0729      	lsls	r1, r5, #28
   84834:	f140 84f2 	bpl.w	8521c <_strtod_r+0xada>
   84838:	f04b 4b00 	orr.w	fp, fp, #2147483648	; 0x80000000
   8483c:	f000 bcee 	b.w	8521c <_strtod_r+0xada>
   84840:	9c13      	ldr	r4, [sp, #76]	; 0x4c
   84842:	1c62      	adds	r2, r4, #1
   84844:	9213      	str	r2, [sp, #76]	; 0x4c
   84846:	7861      	ldrb	r1, [r4, #1]
   84848:	2930      	cmp	r1, #48	; 0x30
   8484a:	d0f9      	beq.n	84840 <_strtod_r+0xfe>
   8484c:	2900      	cmp	r1, #0
   8484e:	f000 84e5 	beq.w	8521c <_strtod_r+0xada>
   84852:	2601      	movs	r6, #1
   84854:	9606      	str	r6, [sp, #24]
   84856:	e001      	b.n	8485c <_strtod_r+0x11a>
   84858:	2500      	movs	r5, #0
   8485a:	9506      	str	r5, [sp, #24]
   8485c:	9f13      	ldr	r7, [sp, #76]	; 0x4c
   8485e:	9707      	str	r7, [sp, #28]
   84860:	2700      	movs	r7, #0
   84862:	9704      	str	r7, [sp, #16]
   84864:	463e      	mov	r6, r7
   84866:	9d13      	ldr	r5, [sp, #76]	; 0x4c
   84868:	782c      	ldrb	r4, [r5, #0]
   8486a:	2c2f      	cmp	r4, #47	; 0x2f
   8486c:	dc16      	bgt.n	8489c <_strtod_r+0x15a>
   8486e:	4648      	mov	r0, r9
   84870:	f002 fe7c 	bl	8756c <_localeconv_r>
   84874:	6803      	ldr	r3, [r0, #0]
   84876:	4648      	mov	r0, r9
   84878:	9303      	str	r3, [sp, #12]
   8487a:	f002 fe77 	bl	8756c <_localeconv_r>
   8487e:	6800      	ldr	r0, [r0, #0]
   84880:	f7ff ff16 	bl	846b0 <strlen>
   84884:	9903      	ldr	r1, [sp, #12]
   84886:	4602      	mov	r2, r0
   84888:	4628      	mov	r0, r5
   8488a:	f7ff ff19 	bl	846c0 <strncmp>
   8488e:	4602      	mov	r2, r0
   84890:	b1c8      	cbz	r0, 848c6 <_strtod_r+0x184>
   84892:	2300      	movs	r3, #0
   84894:	4635      	mov	r5, r6
   84896:	461a      	mov	r2, r3
   84898:	9305      	str	r3, [sp, #20]
   8489a:	e077      	b.n	8498c <_strtod_r+0x24a>
   8489c:	2c39      	cmp	r4, #57	; 0x39
   8489e:	dce6      	bgt.n	8486e <_strtod_r+0x12c>
   848a0:	2e0f      	cmp	r6, #15
   848a2:	dc0c      	bgt.n	848be <_strtod_r+0x17c>
   848a4:	2e08      	cmp	r6, #8
   848a6:	bfd8      	it	le
   848a8:	9804      	ldrle	r0, [sp, #16]
   848aa:	f04f 030a 	mov.w	r3, #10
   848ae:	f1a4 0430 	sub.w	r4, r4, #48	; 0x30
   848b2:	bfd6      	itet	le
   848b4:	fb03 4000 	mlale	r0, r3, r0, r4
   848b8:	fb03 4707 	mlagt	r7, r3, r7, r4
   848bc:	9004      	strle	r0, [sp, #16]
   848be:	1c6c      	adds	r4, r5, #1
   848c0:	3601      	adds	r6, #1
   848c2:	9413      	str	r4, [sp, #76]	; 0x4c
   848c4:	e7cf      	b.n	84866 <_strtod_r+0x124>
   848c6:	4648      	mov	r0, r9
   848c8:	9c13      	ldr	r4, [sp, #76]	; 0x4c
   848ca:	9203      	str	r2, [sp, #12]
   848cc:	f002 fe4e 	bl	8756c <_localeconv_r>
   848d0:	6800      	ldr	r0, [r0, #0]
   848d2:	f7ff feed 	bl	846b0 <strlen>
   848d6:	1821      	adds	r1, r4, r0
   848d8:	9113      	str	r1, [sp, #76]	; 0x4c
   848da:	5c24      	ldrb	r4, [r4, r0]
   848dc:	9a03      	ldr	r2, [sp, #12]
   848de:	b116      	cbz	r6, 848e6 <_strtod_r+0x1a4>
   848e0:	4635      	mov	r5, r6
   848e2:	4613      	mov	r3, r2
   848e4:	e047      	b.n	84976 <_strtod_r+0x234>
   848e6:	4633      	mov	r3, r6
   848e8:	2c30      	cmp	r4, #48	; 0x30
   848ea:	d105      	bne.n	848f8 <_strtod_r+0x1b6>
   848ec:	9d13      	ldr	r5, [sp, #76]	; 0x4c
   848ee:	3301      	adds	r3, #1
   848f0:	1c69      	adds	r1, r5, #1
   848f2:	9113      	str	r1, [sp, #76]	; 0x4c
   848f4:	786c      	ldrb	r4, [r5, #1]
   848f6:	e7f7      	b.n	848e8 <_strtod_r+0x1a6>
   848f8:	f1a4 0031 	sub.w	r0, r4, #49	; 0x31
   848fc:	2808      	cmp	r0, #8
   848fe:	d841      	bhi.n	84984 <_strtod_r+0x242>
   84900:	9d13      	ldr	r5, [sp, #76]	; 0x4c
   84902:	461a      	mov	r2, r3
   84904:	2300      	movs	r3, #0
   84906:	9507      	str	r5, [sp, #28]
   84908:	461d      	mov	r5, r3
   8490a:	1c59      	adds	r1, r3, #1
   8490c:	3c30      	subs	r4, #48	; 0x30
   8490e:	9405      	str	r4, [sp, #20]
   84910:	d02c      	beq.n	8496c <_strtod_r+0x22a>
   84912:	1852      	adds	r2, r2, r1
   84914:	1c68      	adds	r0, r5, #1
   84916:	ebc5 0c00 	rsb	ip, r5, r0
   8491a:	458c      	cmp	ip, r1
   8491c:	da11      	bge.n	84942 <_strtod_r+0x200>
   8491e:	f100 3cff 	add.w	ip, r0, #4294967295
   84922:	f1bc 0f10 	cmp.w	ip, #16
   84926:	dc0a      	bgt.n	8493e <_strtod_r+0x1fc>
   84928:	2809      	cmp	r0, #9
   8492a:	bfd8      	it	le
   8492c:	9c04      	ldrle	r4, [sp, #16]
   8492e:	f04f 0e0a 	mov.w	lr, #10
   84932:	bfd6      	itet	le
   84934:	fb0e f404 	mulle.w	r4, lr, r4
   84938:	fb0e f707 	mulgt.w	r7, lr, r7
   8493c:	9404      	strle	r4, [sp, #16]
   8493e:	3001      	adds	r0, #1
   84940:	e7e9      	b.n	84916 <_strtod_r+0x1d4>
   84942:	2b00      	cmp	r3, #0
   84944:	bfac      	ite	ge
   84946:	18eb      	addge	r3, r5, r3
   84948:	1c2b      	addlt	r3, r5, #0
   8494a:	1c5d      	adds	r5, r3, #1
   8494c:	2b10      	cmp	r3, #16
   8494e:	dc0c      	bgt.n	8496a <_strtod_r+0x228>
   84950:	2d09      	cmp	r5, #9
   84952:	f04f 030a 	mov.w	r3, #10
   84956:	dc05      	bgt.n	84964 <_strtod_r+0x222>
   84958:	9904      	ldr	r1, [sp, #16]
   8495a:	9805      	ldr	r0, [sp, #20]
   8495c:	fb03 0301 	mla	r3, r3, r1, r0
   84960:	9304      	str	r3, [sp, #16]
   84962:	e002      	b.n	8496a <_strtod_r+0x228>
   84964:	9c05      	ldr	r4, [sp, #20]
   84966:	fb03 4707 	mla	r7, r3, r7, r4
   8496a:	2100      	movs	r1, #0
   8496c:	9c13      	ldr	r4, [sp, #76]	; 0x4c
   8496e:	460b      	mov	r3, r1
   84970:	1c60      	adds	r0, r4, #1
   84972:	9013      	str	r0, [sp, #76]	; 0x4c
   84974:	7864      	ldrb	r4, [r4, #1]
   84976:	f1a4 0130 	sub.w	r1, r4, #48	; 0x30
   8497a:	2909      	cmp	r1, #9
   8497c:	d9c5      	bls.n	8490a <_strtod_r+0x1c8>
   8497e:	2001      	movs	r0, #1
   84980:	9005      	str	r0, [sp, #20]
   84982:	e003      	b.n	8498c <_strtod_r+0x24a>
   84984:	2500      	movs	r5, #0
   84986:	2101      	movs	r1, #1
   84988:	462a      	mov	r2, r5
   8498a:	9105      	str	r1, [sp, #20]
   8498c:	2c65      	cmp	r4, #101	; 0x65
   8498e:	d001      	beq.n	84994 <_strtod_r+0x252>
   84990:	2c45      	cmp	r4, #69	; 0x45
   84992:	d157      	bne.n	84a44 <_strtod_r+0x302>
   84994:	b925      	cbnz	r5, 849a0 <_strtod_r+0x25e>
   84996:	b91b      	cbnz	r3, 849a0 <_strtod_r+0x25e>
   84998:	9c06      	ldr	r4, [sp, #24]
   8499a:	2c00      	cmp	r4, #0
   8499c:	f000 809b 	beq.w	84ad6 <_strtod_r+0x394>
   849a0:	f8dd 804c 	ldr.w	r8, [sp, #76]	; 0x4c
   849a4:	f108 0101 	add.w	r1, r8, #1
   849a8:	9113      	str	r1, [sp, #76]	; 0x4c
   849aa:	f898 4001 	ldrb.w	r4, [r8, #1]
   849ae:	2c2b      	cmp	r4, #43	; 0x2b
   849b0:	d004      	beq.n	849bc <_strtod_r+0x27a>
   849b2:	2c2d      	cmp	r4, #45	; 0x2d
   849b4:	d005      	beq.n	849c2 <_strtod_r+0x280>
   849b6:	2000      	movs	r0, #0
   849b8:	9008      	str	r0, [sp, #32]
   849ba:	e009      	b.n	849d0 <_strtod_r+0x28e>
   849bc:	2100      	movs	r1, #0
   849be:	9108      	str	r1, [sp, #32]
   849c0:	e001      	b.n	849c6 <_strtod_r+0x284>
   849c2:	2401      	movs	r4, #1
   849c4:	9408      	str	r4, [sp, #32]
   849c6:	f108 0002 	add.w	r0, r8, #2
   849ca:	9013      	str	r0, [sp, #76]	; 0x4c
   849cc:	f898 4002 	ldrb.w	r4, [r8, #2]
   849d0:	f1a4 0130 	sub.w	r1, r4, #48	; 0x30
   849d4:	2909      	cmp	r1, #9
   849d6:	d833      	bhi.n	84a40 <_strtod_r+0x2fe>
   849d8:	2c30      	cmp	r4, #48	; 0x30
   849da:	d104      	bne.n	849e6 <_strtod_r+0x2a4>
   849dc:	9913      	ldr	r1, [sp, #76]	; 0x4c
   849de:	1c4c      	adds	r4, r1, #1
   849e0:	9413      	str	r4, [sp, #76]	; 0x4c
   849e2:	784c      	ldrb	r4, [r1, #1]
   849e4:	e7f8      	b.n	849d8 <_strtod_r+0x296>
   849e6:	f1a4 0031 	sub.w	r0, r4, #49	; 0x31
   849ea:	2808      	cmp	r0, #8
   849ec:	d82a      	bhi.n	84a44 <_strtod_r+0x302>
   849ee:	f1a4 0030 	sub.w	r0, r4, #48	; 0x30
   849f2:	9c13      	ldr	r4, [sp, #76]	; 0x4c
   849f4:	940a      	str	r4, [sp, #40]	; 0x28
   849f6:	9913      	ldr	r1, [sp, #76]	; 0x4c
   849f8:	f101 0c01 	add.w	ip, r1, #1
   849fc:	f8cd c04c 	str.w	ip, [sp, #76]	; 0x4c
   84a00:	784c      	ldrb	r4, [r1, #1]
   84a02:	2c2f      	cmp	r4, #47	; 0x2f
   84a04:	dc0b      	bgt.n	84a1e <_strtod_r+0x2dc>
   84a06:	990a      	ldr	r1, [sp, #40]	; 0x28
   84a08:	ebc1 0e0c 	rsb	lr, r1, ip
   84a0c:	f1be 0f08 	cmp.w	lr, #8
   84a10:	f644 6e1f 	movw	lr, #19999	; 0x4e1f
   84a14:	dc0b      	bgt.n	84a2e <_strtod_r+0x2ec>
   84a16:	4570      	cmp	r0, lr
   84a18:	bfb8      	it	lt
   84a1a:	4686      	movlt	lr, r0
   84a1c:	e007      	b.n	84a2e <_strtod_r+0x2ec>
   84a1e:	2c39      	cmp	r4, #57	; 0x39
   84a20:	dcf1      	bgt.n	84a06 <_strtod_r+0x2c4>
   84a22:	f04f 0e0a 	mov.w	lr, #10
   84a26:	fb0e 4000 	mla	r0, lr, r0, r4
   84a2a:	3830      	subs	r0, #48	; 0x30
   84a2c:	e7e3      	b.n	849f6 <_strtod_r+0x2b4>
   84a2e:	9808      	ldr	r0, [sp, #32]
   84a30:	b150      	cbz	r0, 84a48 <_strtod_r+0x306>
   84a32:	f1ce 0e00 	rsb	lr, lr, #0
   84a36:	e007      	b.n	84a48 <_strtod_r+0x306>
   84a38:	20070448 	.word	0x20070448
   84a3c:	7ff00000 	.word	0x7ff00000
   84a40:	f8cd 804c 	str.w	r8, [sp, #76]	; 0x4c
   84a44:	f04f 0e00 	mov.w	lr, #0
   84a48:	2d00      	cmp	r5, #0
   84a4a:	d149      	bne.n	84ae0 <_strtod_r+0x39e>
   84a4c:	2b00      	cmp	r3, #0
   84a4e:	f040 83e5 	bne.w	8521c <_strtod_r+0xada>
   84a52:	9906      	ldr	r1, [sp, #24]
   84a54:	2900      	cmp	r1, #0
   84a56:	f040 83e1 	bne.w	8521c <_strtod_r+0xada>
   84a5a:	9a05      	ldr	r2, [sp, #20]
   84a5c:	2a00      	cmp	r2, #0
   84a5e:	d13a      	bne.n	84ad6 <_strtod_r+0x394>
   84a60:	2c4e      	cmp	r4, #78	; 0x4e
   84a62:	d01b      	beq.n	84a9c <_strtod_r+0x35a>
   84a64:	dc02      	bgt.n	84a6c <_strtod_r+0x32a>
   84a66:	2c49      	cmp	r4, #73	; 0x49
   84a68:	d135      	bne.n	84ad6 <_strtod_r+0x394>
   84a6a:	e004      	b.n	84a76 <_strtod_r+0x334>
   84a6c:	2c69      	cmp	r4, #105	; 0x69
   84a6e:	d002      	beq.n	84a76 <_strtod_r+0x334>
   84a70:	2c6e      	cmp	r4, #110	; 0x6e
   84a72:	d130      	bne.n	84ad6 <_strtod_r+0x394>
   84a74:	e012      	b.n	84a9c <_strtod_r+0x35a>
   84a76:	a813      	add	r0, sp, #76	; 0x4c
   84a78:	49a3      	ldr	r1, [pc, #652]	; (84d08 <_strtod_r+0x5c6>)
   84a7a:	f7ff fe4d 	bl	84718 <match>
   84a7e:	b350      	cbz	r0, 84ad6 <_strtod_r+0x394>
   84a80:	9b13      	ldr	r3, [sp, #76]	; 0x4c
   84a82:	49a2      	ldr	r1, [pc, #648]	; (84d0c <_strtod_r+0x5ca>)
   84a84:	1e58      	subs	r0, r3, #1
   84a86:	9013      	str	r0, [sp, #76]	; 0x4c
   84a88:	a813      	add	r0, sp, #76	; 0x4c
   84a8a:	f7ff fe45 	bl	84718 <match>
   84a8e:	b910      	cbnz	r0, 84a96 <_strtod_r+0x354>
   84a90:	9c13      	ldr	r4, [sp, #76]	; 0x4c
   84a92:	1c61      	adds	r1, r4, #1
   84a94:	9113      	str	r1, [sp, #76]	; 0x4c
   84a96:	f8df b288 	ldr.w	fp, [pc, #648]	; 84d20 <_strtod_r+0x5de>
   84a9a:	e019      	b.n	84ad0 <_strtod_r+0x38e>
   84a9c:	a813      	add	r0, sp, #76	; 0x4c
   84a9e:	499c      	ldr	r1, [pc, #624]	; (84d10 <_strtod_r+0x5ce>)
   84aa0:	f7ff fe3a 	bl	84718 <match>
   84aa4:	b1b8      	cbz	r0, 84ad6 <_strtod_r+0x394>
   84aa6:	9a13      	ldr	r2, [sp, #76]	; 0x4c
   84aa8:	7813      	ldrb	r3, [r2, #0]
   84aaa:	2b28      	cmp	r3, #40	; 0x28
   84aac:	d10e      	bne.n	84acc <_strtod_r+0x38a>
   84aae:	a813      	add	r0, sp, #76	; 0x4c
   84ab0:	4998      	ldr	r1, [pc, #608]	; (84d14 <_strtod_r+0x5d2>)
   84ab2:	aa16      	add	r2, sp, #88	; 0x58
   84ab4:	f002 fc88 	bl	873c8 <__hexnan>
   84ab8:	2805      	cmp	r0, #5
   84aba:	d107      	bne.n	84acc <_strtod_r+0x38a>
   84abc:	9817      	ldr	r0, [sp, #92]	; 0x5c
   84abe:	f8dd a058 	ldr.w	sl, [sp, #88]	; 0x58
   84ac2:	f040 44ff 	orr.w	r4, r0, #2139095040	; 0x7f800000
   84ac6:	f444 0be0 	orr.w	fp, r4, #7340032	; 0x700000
   84aca:	e3a7      	b.n	8521c <_strtod_r+0xada>
   84acc:	f8df b25c 	ldr.w	fp, [pc, #604]	; 84d2c <_strtod_r+0x5ea>
   84ad0:	f04f 0a00 	mov.w	sl, #0
   84ad4:	e3a2      	b.n	8521c <_strtod_r+0xada>
   84ad6:	2200      	movs	r2, #0
   84ad8:	f8cd 804c 	str.w	r8, [sp, #76]	; 0x4c
   84adc:	920d      	str	r2, [sp, #52]	; 0x34
   84ade:	e39d      	b.n	8521c <_strtod_r+0xada>
   84ae0:	ebc2 020e 	rsb	r2, r2, lr
   84ae4:	9804      	ldr	r0, [sp, #16]
   84ae6:	9206      	str	r2, [sp, #24]
   84ae8:	f7ff f9d4 	bl	83e94 <__aeabi_ui2d>
   84aec:	2d10      	cmp	r5, #16
   84aee:	bfb4      	ite	lt
   84af0:	462c      	movlt	r4, r5
   84af2:	2410      	movge	r4, #16
   84af4:	2e00      	cmp	r6, #0
   84af6:	bf08      	it	eq
   84af8:	462e      	moveq	r6, r5
   84afa:	2c09      	cmp	r4, #9
   84afc:	4682      	mov	sl, r0
   84afe:	468b      	mov	fp, r1
   84b00:	dd15      	ble.n	84b2e <_strtod_r+0x3ec>
   84b02:	4b85      	ldr	r3, [pc, #532]	; (84d18 <_strtod_r+0x5d6>)
   84b04:	eb03 02c4 	add.w	r2, r3, r4, lsl #3
   84b08:	f1a2 0348 	sub.w	r3, r2, #72	; 0x48
   84b0c:	e9d3 2300 	ldrd	r2, r3, [r3]
   84b10:	f7ff fa36 	bl	83f80 <__aeabi_dmul>
   84b14:	4682      	mov	sl, r0
   84b16:	4638      	mov	r0, r7
   84b18:	468b      	mov	fp, r1
   84b1a:	f7ff f9bb 	bl	83e94 <__aeabi_ui2d>
   84b1e:	4602      	mov	r2, r0
   84b20:	460b      	mov	r3, r1
   84b22:	4650      	mov	r0, sl
   84b24:	4659      	mov	r1, fp
   84b26:	f7ff f879 	bl	83c1c <__adddf3>
   84b2a:	4682      	mov	sl, r0
   84b2c:	468b      	mov	fp, r1
   84b2e:	2d0f      	cmp	r5, #15
   84b30:	dc37      	bgt.n	84ba2 <_strtod_r+0x460>
   84b32:	9906      	ldr	r1, [sp, #24]
   84b34:	2900      	cmp	r1, #0
   84b36:	f000 8371 	beq.w	8521c <_strtod_r+0xada>
   84b3a:	dd24      	ble.n	84b86 <_strtod_r+0x444>
   84b3c:	2916      	cmp	r1, #22
   84b3e:	dc07      	bgt.n	84b50 <_strtod_r+0x40e>
   84b40:	4875      	ldr	r0, [pc, #468]	; (84d18 <_strtod_r+0x5d6>)
   84b42:	4652      	mov	r2, sl
   84b44:	eb00 04c1 	add.w	r4, r0, r1, lsl #3
   84b48:	e9d4 0100 	ldrd	r0, r1, [r4]
   84b4c:	465b      	mov	r3, fp
   84b4e:	e015      	b.n	84b7c <_strtod_r+0x43a>
   84b50:	9906      	ldr	r1, [sp, #24]
   84b52:	f1c5 0225 	rsb	r2, r5, #37	; 0x25
   84b56:	4291      	cmp	r1, r2
   84b58:	dc23      	bgt.n	84ba2 <_strtod_r+0x460>
   84b5a:	4c6f      	ldr	r4, [pc, #444]	; (84d18 <_strtod_r+0x5d6>)
   84b5c:	f1c5 050f 	rsb	r5, r5, #15
   84b60:	eb04 01c5 	add.w	r1, r4, r5, lsl #3
   84b64:	4652      	mov	r2, sl
   84b66:	465b      	mov	r3, fp
   84b68:	e9d1 0100 	ldrd	r0, r1, [r1]
   84b6c:	f7ff fa08 	bl	83f80 <__aeabi_dmul>
   84b70:	9a06      	ldr	r2, [sp, #24]
   84b72:	1b55      	subs	r5, r2, r5
   84b74:	eb04 03c5 	add.w	r3, r4, r5, lsl #3
   84b78:	e9d3 2300 	ldrd	r2, r3, [r3]
   84b7c:	f7ff fa00 	bl	83f80 <__aeabi_dmul>
   84b80:	4682      	mov	sl, r0
   84b82:	468b      	mov	fp, r1
   84b84:	e34a      	b.n	8521c <_strtod_r+0xada>
   84b86:	9806      	ldr	r0, [sp, #24]
   84b88:	f110 0f16 	cmn.w	r0, #22
   84b8c:	db09      	blt.n	84ba2 <_strtod_r+0x460>
   84b8e:	4c62      	ldr	r4, [pc, #392]	; (84d18 <_strtod_r+0x5d6>)
   84b90:	4659      	mov	r1, fp
   84b92:	eba4 03c0 	sub.w	r3, r4, r0, lsl #3
   84b96:	e9d3 2300 	ldrd	r2, r3, [r3]
   84b9a:	4650      	mov	r0, sl
   84b9c:	f7ff fb1a 	bl	841d4 <__aeabi_ddiv>
   84ba0:	e7ee      	b.n	84b80 <_strtod_r+0x43e>
   84ba2:	9806      	ldr	r0, [sp, #24]
   84ba4:	1b2c      	subs	r4, r5, r4
   84ba6:	1904      	adds	r4, r0, r4
   84ba8:	2c00      	cmp	r4, #0
   84baa:	dd51      	ble.n	84c50 <_strtod_r+0x50e>
   84bac:	f014 010f 	ands.w	r1, r4, #15
   84bb0:	d009      	beq.n	84bc6 <_strtod_r+0x484>
   84bb2:	4a59      	ldr	r2, [pc, #356]	; (84d18 <_strtod_r+0x5d6>)
   84bb4:	465b      	mov	r3, fp
   84bb6:	eb02 00c1 	add.w	r0, r2, r1, lsl #3
   84bba:	c803      	ldmia	r0, {r0, r1}
   84bbc:	4652      	mov	r2, sl
   84bbe:	f7ff f9df 	bl	83f80 <__aeabi_dmul>
   84bc2:	4682      	mov	sl, r0
   84bc4:	468b      	mov	fp, r1
   84bc6:	f034 030f 	bics.w	r3, r4, #15
   84bca:	f000 80b3 	beq.w	84d34 <_strtod_r+0x5f2>
   84bce:	f5b3 7f9a 	cmp.w	r3, #308	; 0x134
   84bd2:	dd0f      	ble.n	84bf4 <_strtod_r+0x4b2>
   84bd4:	f04f 0800 	mov.w	r8, #0
   84bd8:	f8cd 8010 	str.w	r8, [sp, #16]
   84bdc:	f8cd 8028 	str.w	r8, [sp, #40]	; 0x28
   84be0:	f8cd 801c 	str.w	r8, [sp, #28]
   84be4:	2022      	movs	r0, #34	; 0x22
   84be6:	f8c9 0000 	str.w	r0, [r9]
   84bea:	f8df b134 	ldr.w	fp, [pc, #308]	; 84d20 <_strtod_r+0x5de>
   84bee:	f04f 0a00 	mov.w	sl, #0
   84bf2:	e16e      	b.n	84ed2 <_strtod_r+0x790>
   84bf4:	4650      	mov	r0, sl
   84bf6:	111f      	asrs	r7, r3, #4
   84bf8:	4659      	mov	r1, fp
   84bfa:	f04f 0a00 	mov.w	sl, #0
   84bfe:	2f01      	cmp	r7, #1
   84c00:	dd0b      	ble.n	84c1a <_strtod_r+0x4d8>
   84c02:	07fa      	lsls	r2, r7, #31
   84c04:	d505      	bpl.n	84c12 <_strtod_r+0x4d0>
   84c06:	4c45      	ldr	r4, [pc, #276]	; (84d1c <_strtod_r+0x5da>)
   84c08:	eb04 02ca 	add.w	r2, r4, sl, lsl #3
   84c0c:	ca0c      	ldmia	r2, {r2, r3}
   84c0e:	f7ff f9b7 	bl	83f80 <__aeabi_dmul>
   84c12:	f10a 0a01 	add.w	sl, sl, #1
   84c16:	107f      	asrs	r7, r7, #1
   84c18:	e7f1      	b.n	84bfe <_strtod_r+0x4bc>
   84c1a:	f1a1 7354 	sub.w	r3, r1, #55574528	; 0x3500000
   84c1e:	493f      	ldr	r1, [pc, #252]	; (84d1c <_strtod_r+0x5da>)
   84c20:	4602      	mov	r2, r0
   84c22:	eb01 00ca 	add.w	r0, r1, sl, lsl #3
   84c26:	c803      	ldmia	r0, {r0, r1}
   84c28:	f7ff f9aa 	bl	83f80 <__aeabi_dmul>
   84c2c:	4b3c      	ldr	r3, [pc, #240]	; (84d20 <_strtod_r+0x5de>)
   84c2e:	4c3d      	ldr	r4, [pc, #244]	; (84d24 <_strtod_r+0x5e2>)
   84c30:	400b      	ands	r3, r1
   84c32:	42a3      	cmp	r3, r4
   84c34:	4682      	mov	sl, r0
   84c36:	468b      	mov	fp, r1
   84c38:	d8cc      	bhi.n	84bd4 <_strtod_r+0x492>
   84c3a:	f5a4 1780 	sub.w	r7, r4, #1048576	; 0x100000
   84c3e:	42bb      	cmp	r3, r7
   84c40:	bf86      	itte	hi
   84c42:	f8df b0ec 	ldrhi.w	fp, [pc, #236]	; 84d30 <_strtod_r+0x5ee>
   84c46:	f04f 3aff 	movhi.w	sl, #4294967295
   84c4a:	f101 7b54 	addls.w	fp, r1, #55574528	; 0x3500000
   84c4e:	e071      	b.n	84d34 <_strtod_r+0x5f2>
   84c50:	d070      	beq.n	84d34 <_strtod_r+0x5f2>
   84c52:	4267      	negs	r7, r4
   84c54:	f017 030f 	ands.w	r3, r7, #15
   84c58:	d00a      	beq.n	84c70 <_strtod_r+0x52e>
   84c5a:	4a2f      	ldr	r2, [pc, #188]	; (84d18 <_strtod_r+0x5d6>)
   84c5c:	4650      	mov	r0, sl
   84c5e:	eb02 04c3 	add.w	r4, r2, r3, lsl #3
   84c62:	4659      	mov	r1, fp
   84c64:	e9d4 2300 	ldrd	r2, r3, [r4]
   84c68:	f7ff fab4 	bl	841d4 <__aeabi_ddiv>
   84c6c:	4682      	mov	sl, r0
   84c6e:	468b      	mov	fp, r1
   84c70:	113f      	asrs	r7, r7, #4
   84c72:	d05f      	beq.n	84d34 <_strtod_r+0x5f2>
   84c74:	2f1f      	cmp	r7, #31
   84c76:	dd08      	ble.n	84c8a <_strtod_r+0x548>
   84c78:	f04f 0800 	mov.w	r8, #0
   84c7c:	f8cd 8010 	str.w	r8, [sp, #16]
   84c80:	f8cd 8028 	str.w	r8, [sp, #40]	; 0x28
   84c84:	f8cd 801c 	str.w	r8, [sp, #28]
   84c88:	e11c      	b.n	84ec4 <_strtod_r+0x782>
   84c8a:	f017 0f10 	tst.w	r7, #16
   84c8e:	bf14      	ite	ne
   84c90:	216a      	movne	r1, #106	; 0x6a
   84c92:	2100      	moveq	r1, #0
   84c94:	4c24      	ldr	r4, [pc, #144]	; (84d28 <_strtod_r+0x5e6>)
   84c96:	9105      	str	r1, [sp, #20]
   84c98:	4650      	mov	r0, sl
   84c9a:	4659      	mov	r1, fp
   84c9c:	2f00      	cmp	r7, #0
   84c9e:	dd08      	ble.n	84cb2 <_strtod_r+0x570>
   84ca0:	07fb      	lsls	r3, r7, #31
   84ca2:	d503      	bpl.n	84cac <_strtod_r+0x56a>
   84ca4:	e9d4 2300 	ldrd	r2, r3, [r4]
   84ca8:	f7ff f96a 	bl	83f80 <__aeabi_dmul>
   84cac:	107f      	asrs	r7, r7, #1
   84cae:	3408      	adds	r4, #8
   84cb0:	e7f4      	b.n	84c9c <_strtod_r+0x55a>
   84cb2:	4682      	mov	sl, r0
   84cb4:	9805      	ldr	r0, [sp, #20]
   84cb6:	468b      	mov	fp, r1
   84cb8:	b1e0      	cbz	r0, 84cf4 <_strtod_r+0x5b2>
   84cba:	f3c1 530a 	ubfx	r3, r1, #20, #11
   84cbe:	f1c3 046b 	rsb	r4, r3, #107	; 0x6b
   84cc2:	2c00      	cmp	r4, #0
   84cc4:	dd16      	ble.n	84cf4 <_strtod_r+0x5b2>
   84cc6:	2c1f      	cmp	r4, #31
   84cc8:	dd0e      	ble.n	84ce8 <_strtod_r+0x5a6>
   84cca:	2c34      	cmp	r4, #52	; 0x34
   84ccc:	f04f 0a00 	mov.w	sl, #0
   84cd0:	dd02      	ble.n	84cd8 <_strtod_r+0x596>
   84cd2:	f04f 7b5c 	mov.w	fp, #57671680	; 0x3700000
   84cd6:	e00d      	b.n	84cf4 <_strtod_r+0x5b2>
   84cd8:	3c20      	subs	r4, #32
   84cda:	f04f 33ff 	mov.w	r3, #4294967295
   84cde:	fa03 f404 	lsl.w	r4, r3, r4
   84ce2:	ea04 0b01 	and.w	fp, r4, r1
   84ce6:	e005      	b.n	84cf4 <_strtod_r+0x5b2>
   84ce8:	f04f 31ff 	mov.w	r1, #4294967295
   84cec:	fa01 f004 	lsl.w	r0, r1, r4
   84cf0:	ea00 0a0a 	and.w	sl, r0, sl
   84cf4:	4650      	mov	r0, sl
   84cf6:	4659      	mov	r1, fp
   84cf8:	2200      	movs	r2, #0
   84cfa:	2300      	movs	r3, #0
   84cfc:	f004 fb28 	bl	89350 <__aeabi_dcmpeq>
   84d00:	2800      	cmp	r0, #0
   84d02:	d1b9      	bne.n	84c78 <_strtod_r+0x536>
   84d04:	e018      	b.n	84d38 <_strtod_r+0x5f6>
   84d06:	bf00      	nop
   84d08:	00089b48 	.word	0x00089b48
   84d0c:	00089b4b 	.word	0x00089b4b
   84d10:	00089b51 	.word	0x00089b51
   84d14:	2007045c 	.word	0x2007045c
   84d18:	00089ce0 	.word	0x00089ce0
   84d1c:	00089dd0 	.word	0x00089dd0
   84d20:	7ff00000 	.word	0x7ff00000
   84d24:	7ca00000 	.word	0x7ca00000
   84d28:	00089b20 	.word	0x00089b20
   84d2c:	fff80000 	.word	0xfff80000
   84d30:	7fefffff 	.word	0x7fefffff
   84d34:	2100      	movs	r1, #0
   84d36:	9105      	str	r1, [sp, #20]
   84d38:	9804      	ldr	r0, [sp, #16]
   84d3a:	4632      	mov	r2, r6
   84d3c:	9000      	str	r0, [sp, #0]
   84d3e:	9907      	ldr	r1, [sp, #28]
   84d40:	4648      	mov	r0, r9
   84d42:	462b      	mov	r3, r5
   84d44:	f002 ff97 	bl	87c76 <__s2b>
   84d48:	9e06      	ldr	r6, [sp, #24]
   84d4a:	900a      	str	r0, [sp, #40]	; 0x28
   84d4c:	2e00      	cmp	r6, #0
   84d4e:	f2c0 80c5 	blt.w	84edc <_strtod_r+0x79a>
   84d52:	2200      	movs	r2, #0
   84d54:	9210      	str	r2, [sp, #64]	; 0x40
   84d56:	9c0a      	ldr	r4, [sp, #40]	; 0x28
   84d58:	4648      	mov	r0, r9
   84d5a:	6861      	ldr	r1, [r4, #4]
   84d5c:	f002 ff20 	bl	87ba0 <_Balloc>
   84d60:	6923      	ldr	r3, [r4, #16]
   84d62:	4621      	mov	r1, r4
   84d64:	1c9f      	adds	r7, r3, #2
   84d66:	00ba      	lsls	r2, r7, #2
   84d68:	310c      	adds	r1, #12
   84d6a:	9007      	str	r0, [sp, #28]
   84d6c:	300c      	adds	r0, #12
   84d6e:	f7ff fc0f 	bl	84590 <memcpy>
   84d72:	a912      	add	r1, sp, #72	; 0x48
   84d74:	a815      	add	r0, sp, #84	; 0x54
   84d76:	4652      	mov	r2, sl
   84d78:	9100      	str	r1, [sp, #0]
   84d7a:	9001      	str	r0, [sp, #4]
   84d7c:	465b      	mov	r3, fp
   84d7e:	4648      	mov	r0, r9
   84d80:	e9cd ab08 	strd	sl, fp, [sp, #32]
   84d84:	f003 fa2a 	bl	881dc <__d2b>
   84d88:	2101      	movs	r1, #1
   84d8a:	9014      	str	r0, [sp, #80]	; 0x50
   84d8c:	4648      	mov	r0, r9
   84d8e:	f003 f800 	bl	87d92 <__i2b>
   84d92:	9a12      	ldr	r2, [sp, #72]	; 0x48
   84d94:	9e06      	ldr	r6, [sp, #24]
   84d96:	2a00      	cmp	r2, #0
   84d98:	9004      	str	r0, [sp, #16]
   84d9a:	ea26 77e6 	bic.w	r7, r6, r6, asr #31
   84d9e:	f2c0 80a0 	blt.w	84ee2 <_strtod_r+0x7a0>
   84da2:	9d10      	ldr	r5, [sp, #64]	; 0x40
   84da4:	463b      	mov	r3, r7
   84da6:	18ad      	adds	r5, r5, r2
   84da8:	9c05      	ldr	r4, [sp, #20]
   84daa:	9e15      	ldr	r6, [sp, #84]	; 0x54
   84dac:	1b14      	subs	r4, r2, r4
   84dae:	19a0      	adds	r0, r4, r6
   84db0:	f46f 717f 	mvn.w	r1, #1020	; 0x3fc
   84db4:	4288      	cmp	r0, r1
   84db6:	bfb4      	ite	lt
   84db8:	f204 4433 	addwlt	r4, r4, #1075	; 0x433
   84dbc:	f1c6 0436 	rsbge	r4, r6, #54	; 0x36
   84dc0:	9a05      	ldr	r2, [sp, #20]
   84dc2:	192e      	adds	r6, r5, r4
   84dc4:	191b      	adds	r3, r3, r4
   84dc6:	42ae      	cmp	r6, r5
   84dc8:	bfb4      	ite	lt
   84dca:	4630      	movlt	r0, r6
   84dcc:	4628      	movge	r0, r5
   84dce:	189c      	adds	r4, r3, r2
   84dd0:	42a0      	cmp	r0, r4
   84dd2:	bfa8      	it	ge
   84dd4:	4620      	movge	r0, r4
   84dd6:	2800      	cmp	r0, #0
   84dd8:	dd02      	ble.n	84de0 <_strtod_r+0x69e>
   84dda:	1a36      	subs	r6, r6, r0
   84ddc:	1a24      	subs	r4, r4, r0
   84dde:	1a2d      	subs	r5, r5, r0
   84de0:	9b10      	ldr	r3, [sp, #64]	; 0x40
   84de2:	b18b      	cbz	r3, 84e08 <_strtod_r+0x6c6>
   84de4:	461a      	mov	r2, r3
   84de6:	9904      	ldr	r1, [sp, #16]
   84de8:	4648      	mov	r0, r9
   84dea:	f003 f86c 	bl	87ec6 <__pow5mult>
   84dee:	9004      	str	r0, [sp, #16]
   84df0:	9904      	ldr	r1, [sp, #16]
   84df2:	9a14      	ldr	r2, [sp, #80]	; 0x50
   84df4:	4648      	mov	r0, r9
   84df6:	f002 ffd5 	bl	87da4 <__multiply>
   84dfa:	9914      	ldr	r1, [sp, #80]	; 0x50
   84dfc:	4680      	mov	r8, r0
   84dfe:	4648      	mov	r0, r9
   84e00:	f002 fef4 	bl	87bec <_Bfree>
   84e04:	f8cd 8050 	str.w	r8, [sp, #80]	; 0x50
   84e08:	2e00      	cmp	r6, #0
   84e0a:	dd05      	ble.n	84e18 <_strtod_r+0x6d6>
   84e0c:	4648      	mov	r0, r9
   84e0e:	9914      	ldr	r1, [sp, #80]	; 0x50
   84e10:	4632      	mov	r2, r6
   84e12:	f003 f89b 	bl	87f4c <__lshift>
   84e16:	9014      	str	r0, [sp, #80]	; 0x50
   84e18:	b12f      	cbz	r7, 84e26 <_strtod_r+0x6e4>
   84e1a:	4648      	mov	r0, r9
   84e1c:	9907      	ldr	r1, [sp, #28]
   84e1e:	463a      	mov	r2, r7
   84e20:	f003 f851 	bl	87ec6 <__pow5mult>
   84e24:	9007      	str	r0, [sp, #28]
   84e26:	2c00      	cmp	r4, #0
   84e28:	dd05      	ble.n	84e36 <_strtod_r+0x6f4>
   84e2a:	4648      	mov	r0, r9
   84e2c:	9907      	ldr	r1, [sp, #28]
   84e2e:	4622      	mov	r2, r4
   84e30:	f003 f88c 	bl	87f4c <__lshift>
   84e34:	9007      	str	r0, [sp, #28]
   84e36:	2d00      	cmp	r5, #0
   84e38:	dd05      	ble.n	84e46 <_strtod_r+0x704>
   84e3a:	4648      	mov	r0, r9
   84e3c:	9904      	ldr	r1, [sp, #16]
   84e3e:	462a      	mov	r2, r5
   84e40:	f003 f884 	bl	87f4c <__lshift>
   84e44:	9004      	str	r0, [sp, #16]
   84e46:	9914      	ldr	r1, [sp, #80]	; 0x50
   84e48:	9a07      	ldr	r2, [sp, #28]
   84e4a:	4648      	mov	r0, r9
   84e4c:	f003 f8ef 	bl	8802e <__mdiff>
   84e50:	2100      	movs	r1, #0
   84e52:	68c4      	ldr	r4, [r0, #12]
   84e54:	60c1      	str	r1, [r0, #12]
   84e56:	9904      	ldr	r1, [sp, #16]
   84e58:	4680      	mov	r8, r0
   84e5a:	940b      	str	r4, [sp, #44]	; 0x2c
   84e5c:	f003 f8ca 	bl	87ff4 <__mcmp>
   84e60:	2800      	cmp	r0, #0
   84e62:	da46      	bge.n	84ef2 <_strtod_r+0x7b0>
   84e64:	2c00      	cmp	r4, #0
   84e66:	f040 81b2 	bne.w	851ce <_strtod_r+0xa8c>
   84e6a:	f1ba 0f00 	cmp.w	sl, #0
   84e6e:	f040 81ae 	bne.w	851ce <_strtod_r+0xa8c>
   84e72:	f3cb 0013 	ubfx	r0, fp, #0, #20
   84e76:	465c      	mov	r4, fp
   84e78:	2800      	cmp	r0, #0
   84e7a:	f040 81a8 	bne.w	851ce <_strtod_r+0xa8c>
   84e7e:	4a9c      	ldr	r2, [pc, #624]	; (850f0 <_strtod_r+0x9ae>)
   84e80:	4022      	ands	r2, r4
   84e82:	f1b2 6fd6 	cmp.w	r2, #112197632	; 0x6b00000
   84e86:	f240 81a2 	bls.w	851ce <_strtod_r+0xa8c>
   84e8a:	f8d8 3014 	ldr.w	r3, [r8, #20]
   84e8e:	b35b      	cbz	r3, 84ee8 <_strtod_r+0x7a6>
   84e90:	4641      	mov	r1, r8
   84e92:	2201      	movs	r2, #1
   84e94:	4648      	mov	r0, r9
   84e96:	f003 f859 	bl	87f4c <__lshift>
   84e9a:	9904      	ldr	r1, [sp, #16]
   84e9c:	4680      	mov	r8, r0
   84e9e:	f003 f8a9 	bl	87ff4 <__mcmp>
   84ea2:	2800      	cmp	r0, #0
   84ea4:	f340 8193 	ble.w	851ce <_strtod_r+0xa8c>
   84ea8:	f02b 4400 	bic.w	r4, fp, #2147483648	; 0x80000000
   84eac:	9b05      	ldr	r3, [sp, #20]
   84eae:	0d20      	lsrs	r0, r4, #20
   84eb0:	0502      	lsls	r2, r0, #20
   84eb2:	2b00      	cmp	r3, #0
   84eb4:	d04a      	beq.n	84f4c <_strtod_r+0x80a>
   84eb6:	f1b2 6fd6 	cmp.w	r2, #112197632	; 0x6b00000
   84eba:	d847      	bhi.n	84f4c <_strtod_r+0x80a>
   84ebc:	f1b2 7f5c 	cmp.w	r2, #57671680	; 0x3700000
   84ec0:	f200 8187 	bhi.w	851d2 <_strtod_r+0xa90>
   84ec4:	2422      	movs	r4, #34	; 0x22
   84ec6:	f04f 0a00 	mov.w	sl, #0
   84eca:	f04f 0b00 	mov.w	fp, #0
   84ece:	f8c9 4000 	str.w	r4, [r9]
   84ed2:	9b0a      	ldr	r3, [sp, #40]	; 0x28
   84ed4:	2b00      	cmp	r3, #0
   84ed6:	f040 818d 	bne.w	851f4 <_strtod_r+0xab2>
   84eda:	e19f      	b.n	8521c <_strtod_r+0xada>
   84edc:	9d06      	ldr	r5, [sp, #24]
   84ede:	426a      	negs	r2, r5
   84ee0:	e738      	b.n	84d54 <_strtod_r+0x612>
   84ee2:	1abb      	subs	r3, r7, r2
   84ee4:	9d10      	ldr	r5, [sp, #64]	; 0x40
   84ee6:	e75f      	b.n	84da8 <_strtod_r+0x666>
   84ee8:	f8d8 1010 	ldr.w	r1, [r8, #16]
   84eec:	2901      	cmp	r1, #1
   84eee:	dccf      	bgt.n	84e90 <_strtod_r+0x74e>
   84ef0:	e16d      	b.n	851ce <_strtod_r+0xa8c>
   84ef2:	d159      	bne.n	84fa8 <_strtod_r+0x866>
   84ef4:	9c0b      	ldr	r4, [sp, #44]	; 0x2c
   84ef6:	b314      	cbz	r4, 84f3e <_strtod_r+0x7fc>
   84ef8:	f02b 417f 	bic.w	r1, fp, #4278190080	; 0xff000000
   84efc:	4c7d      	ldr	r4, [pc, #500]	; (850f4 <_strtod_r+0x9b2>)
   84efe:	f421 0070 	bic.w	r0, r1, #15728640	; 0xf00000
   84f02:	42a0      	cmp	r0, r4
   84f04:	465a      	mov	r2, fp
   84f06:	d12a      	bne.n	84f5e <_strtod_r+0x81c>
   84f08:	9b05      	ldr	r3, [sp, #20]
   84f0a:	4651      	mov	r1, sl
   84f0c:	b163      	cbz	r3, 84f28 <_strtod_r+0x7e6>
   84f0e:	4878      	ldr	r0, [pc, #480]	; (850f0 <_strtod_r+0x9ae>)
   84f10:	4010      	ands	r0, r2
   84f12:	f1b0 6fd4 	cmp.w	r0, #111149056	; 0x6a00000
   84f16:	d807      	bhi.n	84f28 <_strtod_r+0x7e6>
   84f18:	0d03      	lsrs	r3, r0, #20
   84f1a:	f1c3 046b 	rsb	r4, r3, #107	; 0x6b
   84f1e:	f04f 30ff 	mov.w	r0, #4294967295
   84f22:	fa00 f404 	lsl.w	r4, r0, r4
   84f26:	e001      	b.n	84f2c <_strtod_r+0x7ea>
   84f28:	f04f 34ff 	mov.w	r4, #4294967295
   84f2c:	42a1      	cmp	r1, r4
   84f2e:	d116      	bne.n	84f5e <_strtod_r+0x81c>
   84f30:	496f      	ldr	r1, [pc, #444]	; (850f0 <_strtod_r+0x9ae>)
   84f32:	f04f 0a00 	mov.w	sl, #0
   84f36:	4011      	ands	r1, r2
   84f38:	f501 1b80 	add.w	fp, r1, #1048576	; 0x100000
   84f3c:	e147      	b.n	851ce <_strtod_r+0xa8c>
   84f3e:	f3cb 0313 	ubfx	r3, fp, #0, #20
   84f42:	b963      	cbnz	r3, 84f5e <_strtod_r+0x81c>
   84f44:	f1ba 0f00 	cmp.w	sl, #0
   84f48:	d109      	bne.n	84f5e <_strtod_r+0x81c>
   84f4a:	e7ad      	b.n	84ea8 <_strtod_r+0x766>
   84f4c:	f5a2 1180 	sub.w	r1, r2, #1048576	; 0x100000
   84f50:	ea6f 5c11 	mvn.w	ip, r1, lsr #20
   84f54:	ea6f 5b0c 	mvn.w	fp, ip, lsl #20
   84f58:	f04f 3aff 	mov.w	sl, #4294967295
   84f5c:	e137      	b.n	851ce <_strtod_r+0xa8c>
   84f5e:	f00a 0201 	and.w	r2, sl, #1
   84f62:	2a00      	cmp	r2, #0
   84f64:	f000 8133 	beq.w	851ce <_strtod_r+0xa8c>
   84f68:	9b0b      	ldr	r3, [sp, #44]	; 0x2c
   84f6a:	e9dd 0108 	ldrd	r0, r1, [sp, #32]
   84f6e:	b153      	cbz	r3, 84f86 <_strtod_r+0x844>
   84f70:	f003 f8bf 	bl	880f2 <__ulp>
   84f74:	4602      	mov	r2, r0
   84f76:	460b      	mov	r3, r1
   84f78:	e9dd 0108 	ldrd	r0, r1, [sp, #32]
   84f7c:	f7fe fe4e 	bl	83c1c <__adddf3>
   84f80:	4682      	mov	sl, r0
   84f82:	468b      	mov	fp, r1
   84f84:	e123      	b.n	851ce <_strtod_r+0xa8c>
   84f86:	f003 f8b4 	bl	880f2 <__ulp>
   84f8a:	4602      	mov	r2, r0
   84f8c:	460b      	mov	r3, r1
   84f8e:	e9dd 0108 	ldrd	r0, r1, [sp, #32]
   84f92:	f7fe fe41 	bl	83c18 <__aeabi_dsub>
   84f96:	2200      	movs	r2, #0
   84f98:	2300      	movs	r3, #0
   84f9a:	4682      	mov	sl, r0
   84f9c:	468b      	mov	fp, r1
   84f9e:	f004 f9d7 	bl	89350 <__aeabi_dcmpeq>
   84fa2:	2800      	cmp	r0, #0
   84fa4:	d18e      	bne.n	84ec4 <_strtod_r+0x782>
   84fa6:	e112      	b.n	851ce <_strtod_r+0xa8c>
   84fa8:	4640      	mov	r0, r8
   84faa:	9904      	ldr	r1, [sp, #16]
   84fac:	f003 f96a 	bl	88284 <__ratio>
   84fb0:	2200      	movs	r2, #0
   84fb2:	f04f 4380 	mov.w	r3, #1073741824	; 0x40000000
   84fb6:	4604      	mov	r4, r0
   84fb8:	460d      	mov	r5, r1
   84fba:	f004 f9dd 	bl	89378 <__aeabi_dcmple>
   84fbe:	b368      	cbz	r0, 8501c <_strtod_r+0x8da>
   84fc0:	980b      	ldr	r0, [sp, #44]	; 0x2c
   84fc2:	b110      	cbz	r0, 84fca <_strtod_r+0x888>
   84fc4:	2600      	movs	r6, #0
   84fc6:	4f4c      	ldr	r7, [pc, #304]	; (850f8 <_strtod_r+0x9b6>)
   84fc8:	e00f      	b.n	84fea <_strtod_r+0x8a8>
   84fca:	4653      	mov	r3, sl
   84fcc:	f1ba 0f00 	cmp.w	sl, #0
   84fd0:	d103      	bne.n	84fda <_strtod_r+0x898>
   84fd2:	f3cb 0613 	ubfx	r6, fp, #0, #20
   84fd6:	b936      	cbnz	r6, 84fe6 <_strtod_r+0x8a4>
   84fd8:	e00a      	b.n	84ff0 <_strtod_r+0x8ae>
   84fda:	2b01      	cmp	r3, #1
   84fdc:	d103      	bne.n	84fe6 <_strtod_r+0x8a4>
   84fde:	f1bb 0f00 	cmp.w	fp, #0
   84fe2:	f43f af6f 	beq.w	84ec4 <_strtod_r+0x782>
   84fe6:	4f45      	ldr	r7, [pc, #276]	; (850fc <_strtod_r+0x9ba>)
   84fe8:	2600      	movs	r6, #0
   84fea:	2500      	movs	r5, #0
   84fec:	4c42      	ldr	r4, [pc, #264]	; (850f8 <_strtod_r+0x9b6>)
   84fee:	e025      	b.n	8503c <_strtod_r+0x8fa>
   84ff0:	4620      	mov	r0, r4
   84ff2:	4629      	mov	r1, r5
   84ff4:	2200      	movs	r2, #0
   84ff6:	4b40      	ldr	r3, [pc, #256]	; (850f8 <_strtod_r+0x9b6>)
   84ff8:	f004 f9b4 	bl	89364 <__aeabi_dcmplt>
   84ffc:	b940      	cbnz	r0, 85010 <_strtod_r+0x8ce>
   84ffe:	4620      	mov	r0, r4
   85000:	4629      	mov	r1, r5
   85002:	2200      	movs	r2, #0
   85004:	4b3e      	ldr	r3, [pc, #248]	; (85100 <_strtod_r+0x9be>)
   85006:	f7fe ffbb 	bl	83f80 <__aeabi_dmul>
   8500a:	4605      	mov	r5, r0
   8500c:	460c      	mov	r4, r1
   8500e:	e001      	b.n	85014 <_strtod_r+0x8d2>
   85010:	9d0b      	ldr	r5, [sp, #44]	; 0x2c
   85012:	4c3b      	ldr	r4, [pc, #236]	; (85100 <_strtod_r+0x9be>)
   85014:	462e      	mov	r6, r5
   85016:	f104 4700 	add.w	r7, r4, #2147483648	; 0x80000000
   8501a:	e00f      	b.n	8503c <_strtod_r+0x8fa>
   8501c:	4620      	mov	r0, r4
   8501e:	4629      	mov	r1, r5
   85020:	2200      	movs	r2, #0
   85022:	4b37      	ldr	r3, [pc, #220]	; (85100 <_strtod_r+0x9be>)
   85024:	f7fe ffac 	bl	83f80 <__aeabi_dmul>
   85028:	9f0b      	ldr	r7, [sp, #44]	; 0x2c
   8502a:	4605      	mov	r5, r0
   8502c:	460c      	mov	r4, r1
   8502e:	b917      	cbnz	r7, 85036 <_strtod_r+0x8f4>
   85030:	f101 4200 	add.w	r2, r1, #2147483648	; 0x80000000
   85034:	e000      	b.n	85038 <_strtod_r+0x8f6>
   85036:	460a      	mov	r2, r1
   85038:	462e      	mov	r6, r5
   8503a:	4617      	mov	r7, r2
   8503c:	492c      	ldr	r1, [pc, #176]	; (850f0 <_strtod_r+0x9ae>)
   8503e:	465b      	mov	r3, fp
   85040:	4019      	ands	r1, r3
   85042:	910c      	str	r1, [sp, #48]	; 0x30
   85044:	4a2f      	ldr	r2, [pc, #188]	; (85104 <_strtod_r+0x9c2>)
   85046:	980c      	ldr	r0, [sp, #48]	; 0x30
   85048:	4290      	cmp	r0, r2
   8504a:	d12c      	bne.n	850a6 <_strtod_r+0x964>
   8504c:	f1ab 7b54 	sub.w	fp, fp, #55574528	; 0x3500000
   85050:	e9dd 0108 	ldrd	r0, r1, [sp, #32]
   85054:	e9cd 010e 	strd	r0, r1, [sp, #56]	; 0x38
   85058:	4650      	mov	r0, sl
   8505a:	4659      	mov	r1, fp
   8505c:	f003 f849 	bl	880f2 <__ulp>
   85060:	4602      	mov	r2, r0
   85062:	460b      	mov	r3, r1
   85064:	4630      	mov	r0, r6
   85066:	4639      	mov	r1, r7
   85068:	f7fe ff8a 	bl	83f80 <__aeabi_dmul>
   8506c:	460b      	mov	r3, r1
   8506e:	4602      	mov	r2, r0
   85070:	4659      	mov	r1, fp
   85072:	4650      	mov	r0, sl
   85074:	f7fe fdd2 	bl	83c1c <__adddf3>
   85078:	4682      	mov	sl, r0
   8507a:	481d      	ldr	r0, [pc, #116]	; (850f0 <_strtod_r+0x9ae>)
   8507c:	460b      	mov	r3, r1
   8507e:	4008      	ands	r0, r1
   85080:	4921      	ldr	r1, [pc, #132]	; (85108 <_strtod_r+0x9c6>)
   85082:	4288      	cmp	r0, r1
   85084:	d90c      	bls.n	850a0 <_strtod_r+0x95e>
   85086:	4a21      	ldr	r2, [pc, #132]	; (8510c <_strtod_r+0x9ca>)
   85088:	990f      	ldr	r1, [sp, #60]	; 0x3c
   8508a:	4291      	cmp	r1, r2
   8508c:	d103      	bne.n	85096 <_strtod_r+0x954>
   8508e:	980e      	ldr	r0, [sp, #56]	; 0x38
   85090:	1c42      	adds	r2, r0, #1
   85092:	f43f ada7 	beq.w	84be4 <_strtod_r+0x4a2>
   85096:	f8df b074 	ldr.w	fp, [pc, #116]	; 8510c <_strtod_r+0x9ca>
   8509a:	f04f 3aff 	mov.w	sl, #4294967295
   8509e:	e085      	b.n	851ac <_strtod_r+0xa6a>
   850a0:	f103 7b54 	add.w	fp, r3, #55574528	; 0x3500000
   850a4:	e04c      	b.n	85140 <_strtod_r+0x9fe>
   850a6:	9b05      	ldr	r3, [sp, #20]
   850a8:	2b00      	cmp	r3, #0
   850aa:	d037      	beq.n	8511c <_strtod_r+0x9da>
   850ac:	990c      	ldr	r1, [sp, #48]	; 0x30
   850ae:	f1b1 6fd4 	cmp.w	r1, #111149056	; 0x6a00000
   850b2:	d833      	bhi.n	8511c <_strtod_r+0x9da>
   850b4:	4628      	mov	r0, r5
   850b6:	4621      	mov	r1, r4
   850b8:	a30b      	add	r3, pc, #44	; (adr r3, 850e8 <_strtod_r+0x9a6>)
   850ba:	e9d3 2300 	ldrd	r2, r3, [r3]
   850be:	f004 f95b 	bl	89378 <__aeabi_dcmple>
   850c2:	b338      	cbz	r0, 85114 <_strtod_r+0x9d2>
   850c4:	4621      	mov	r1, r4
   850c6:	4628      	mov	r0, r5
   850c8:	f004 f974 	bl	893b4 <__aeabi_d2uiz>
   850cc:	2800      	cmp	r0, #0
   850ce:	bf08      	it	eq
   850d0:	2001      	moveq	r0, #1
   850d2:	f7fe fedf 	bl	83e94 <__aeabi_ui2d>
   850d6:	460c      	mov	r4, r1
   850d8:	990b      	ldr	r1, [sp, #44]	; 0x2c
   850da:	4605      	mov	r5, r0
   850dc:	b9c1      	cbnz	r1, 85110 <_strtod_r+0x9ce>
   850de:	f104 4700 	add.w	r7, r4, #2147483648	; 0x80000000
   850e2:	e016      	b.n	85112 <_strtod_r+0x9d0>
   850e4:	f3af 8000 	nop.w
   850e8:	ffc00000 	.word	0xffc00000
   850ec:	41dfffff 	.word	0x41dfffff
   850f0:	7ff00000 	.word	0x7ff00000
   850f4:	000fffff 	.word	0x000fffff
   850f8:	3ff00000 	.word	0x3ff00000
   850fc:	bff00000 	.word	0xbff00000
   85100:	3fe00000 	.word	0x3fe00000
   85104:	7fe00000 	.word	0x7fe00000
   85108:	7c9fffff 	.word	0x7c9fffff
   8510c:	7fefffff 	.word	0x7fefffff
   85110:	4627      	mov	r7, r4
   85112:	462e      	mov	r6, r5
   85114:	9a0c      	ldr	r2, [sp, #48]	; 0x30
   85116:	f107 60d6 	add.w	r0, r7, #112197632	; 0x6b00000
   8511a:	1a87      	subs	r7, r0, r2
   8511c:	e9dd 0108 	ldrd	r0, r1, [sp, #32]
   85120:	f002 ffe7 	bl	880f2 <__ulp>
   85124:	4602      	mov	r2, r0
   85126:	460b      	mov	r3, r1
   85128:	4630      	mov	r0, r6
   8512a:	4639      	mov	r1, r7
   8512c:	f7fe ff28 	bl	83f80 <__aeabi_dmul>
   85130:	4602      	mov	r2, r0
   85132:	460b      	mov	r3, r1
   85134:	e9dd 0108 	ldrd	r0, r1, [sp, #32]
   85138:	f7fe fd70 	bl	83c1c <__adddf3>
   8513c:	4682      	mov	sl, r0
   8513e:	468b      	mov	fp, r1
   85140:	9b05      	ldr	r3, [sp, #20]
   85142:	465e      	mov	r6, fp
   85144:	2b00      	cmp	r3, #0
   85146:	d131      	bne.n	851ac <_strtod_r+0xa6a>
   85148:	4a43      	ldr	r2, [pc, #268]	; (85258 <_strtod_r+0xb16>)
   8514a:	980c      	ldr	r0, [sp, #48]	; 0x30
   8514c:	4032      	ands	r2, r6
   8514e:	4290      	cmp	r0, r2
   85150:	d12c      	bne.n	851ac <_strtod_r+0xa6a>
   85152:	4621      	mov	r1, r4
   85154:	4628      	mov	r0, r5
   85156:	f7ff f925 	bl	843a4 <__aeabi_d2iz>
   8515a:	f7fe feab 	bl	83eb4 <__aeabi_i2d>
   8515e:	460b      	mov	r3, r1
   85160:	4602      	mov	r2, r0
   85162:	4621      	mov	r1, r4
   85164:	4628      	mov	r0, r5
   85166:	f7fe fd57 	bl	83c18 <__aeabi_dsub>
   8516a:	9b0b      	ldr	r3, [sp, #44]	; 0x2c
   8516c:	4604      	mov	r4, r0
   8516e:	460d      	mov	r5, r1
   85170:	b92b      	cbnz	r3, 8517e <_strtod_r+0xa3c>
   85172:	f1ba 0f00 	cmp.w	sl, #0
   85176:	d102      	bne.n	8517e <_strtod_r+0xa3c>
   85178:	f3cb 0613 	ubfx	r6, fp, #0, #20
   8517c:	b186      	cbz	r6, 851a0 <_strtod_r+0xa5e>
   8517e:	4620      	mov	r0, r4
   85180:	4629      	mov	r1, r5
   85182:	a32f      	add	r3, pc, #188	; (adr r3, 85240 <_strtod_r+0xafe>)
   85184:	e9d3 2300 	ldrd	r2, r3, [r3]
   85188:	f004 f8ec 	bl	89364 <__aeabi_dcmplt>
   8518c:	2800      	cmp	r0, #0
   8518e:	d131      	bne.n	851f4 <_strtod_r+0xab2>
   85190:	4620      	mov	r0, r4
   85192:	4629      	mov	r1, r5
   85194:	a32c      	add	r3, pc, #176	; (adr r3, 85248 <_strtod_r+0xb06>)
   85196:	e9d3 2300 	ldrd	r2, r3, [r3]
   8519a:	f004 f901 	bl	893a0 <__aeabi_dcmpgt>
   8519e:	e004      	b.n	851aa <_strtod_r+0xa68>
   851a0:	a32b      	add	r3, pc, #172	; (adr r3, 85250 <_strtod_r+0xb0e>)
   851a2:	e9d3 2300 	ldrd	r2, r3, [r3]
   851a6:	f004 f8dd 	bl	89364 <__aeabi_dcmplt>
   851aa:	bb18      	cbnz	r0, 851f4 <_strtod_r+0xab2>
   851ac:	4648      	mov	r0, r9
   851ae:	9914      	ldr	r1, [sp, #80]	; 0x50
   851b0:	f002 fd1c 	bl	87bec <_Bfree>
   851b4:	4648      	mov	r0, r9
   851b6:	9907      	ldr	r1, [sp, #28]
   851b8:	f002 fd18 	bl	87bec <_Bfree>
   851bc:	4648      	mov	r0, r9
   851be:	9904      	ldr	r1, [sp, #16]
   851c0:	f002 fd14 	bl	87bec <_Bfree>
   851c4:	4648      	mov	r0, r9
   851c6:	4641      	mov	r1, r8
   851c8:	f002 fd10 	bl	87bec <_Bfree>
   851cc:	e5c3      	b.n	84d56 <_strtod_r+0x614>
   851ce:	9805      	ldr	r0, [sp, #20]
   851d0:	b180      	cbz	r0, 851f4 <_strtod_r+0xab2>
   851d2:	4a22      	ldr	r2, [pc, #136]	; (8525c <_strtod_r+0xb1a>)
   851d4:	2300      	movs	r3, #0
   851d6:	920f      	str	r2, [sp, #60]	; 0x3c
   851d8:	930e      	str	r3, [sp, #56]	; 0x38
   851da:	4650      	mov	r0, sl
   851dc:	4659      	mov	r1, fp
   851de:	e9dd 230e 	ldrd	r2, r3, [sp, #56]	; 0x38
   851e2:	f7fe fecd 	bl	83f80 <__aeabi_dmul>
   851e6:	4682      	mov	sl, r0
   851e8:	468b      	mov	fp, r1
   851ea:	b919      	cbnz	r1, 851f4 <_strtod_r+0xab2>
   851ec:	b910      	cbnz	r0, 851f4 <_strtod_r+0xab2>
   851ee:	2122      	movs	r1, #34	; 0x22
   851f0:	f8c9 1000 	str.w	r1, [r9]
   851f4:	4648      	mov	r0, r9
   851f6:	9914      	ldr	r1, [sp, #80]	; 0x50
   851f8:	f002 fcf8 	bl	87bec <_Bfree>
   851fc:	4648      	mov	r0, r9
   851fe:	9907      	ldr	r1, [sp, #28]
   85200:	f002 fcf4 	bl	87bec <_Bfree>
   85204:	4648      	mov	r0, r9
   85206:	9904      	ldr	r1, [sp, #16]
   85208:	f002 fcf0 	bl	87bec <_Bfree>
   8520c:	4648      	mov	r0, r9
   8520e:	990a      	ldr	r1, [sp, #40]	; 0x28
   85210:	f002 fcec 	bl	87bec <_Bfree>
   85214:	4648      	mov	r0, r9
   85216:	4641      	mov	r1, r8
   85218:	f002 fce8 	bl	87bec <_Bfree>
   8521c:	9811      	ldr	r0, [sp, #68]	; 0x44
   8521e:	b108      	cbz	r0, 85224 <_strtod_r+0xae2>
   85220:	9913      	ldr	r1, [sp, #76]	; 0x4c
   85222:	6001      	str	r1, [r0, #0]
   85224:	9c0d      	ldr	r4, [sp, #52]	; 0x34
   85226:	4652      	mov	r2, sl
   85228:	b114      	cbz	r4, 85230 <_strtod_r+0xaee>
   8522a:	f10b 4300 	add.w	r3, fp, #2147483648	; 0x80000000
   8522e:	e000      	b.n	85232 <_strtod_r+0xaf0>
   85230:	465b      	mov	r3, fp
   85232:	4610      	mov	r0, r2
   85234:	4619      	mov	r1, r3
   85236:	b019      	add	sp, #100	; 0x64
   85238:	e8bd 8ff0 	ldmia.w	sp!, {r4, r5, r6, r7, r8, r9, sl, fp, pc}
   8523c:	f3af 8000 	nop.w
   85240:	94a03595 	.word	0x94a03595
   85244:	3fdfffff 	.word	0x3fdfffff
   85248:	35afe535 	.word	0x35afe535
   8524c:	3fe00000 	.word	0x3fe00000
   85250:	94a03595 	.word	0x94a03595
   85254:	3fcfffff 	.word	0x3fcfffff
   85258:	7ff00000 	.word	0x7ff00000
   8525c:	39500000 	.word	0x39500000

00085260 <strtod>:
   85260:	460a      	mov	r2, r1
   85262:	4903      	ldr	r1, [pc, #12]	; (85270 <strtod+0x10>)
   85264:	4603      	mov	r3, r0
   85266:	6808      	ldr	r0, [r1, #0]
   85268:	4619      	mov	r1, r3
   8526a:	f7ff ba6a 	b.w	84742 <_strtod_r>
   8526e:	bf00      	nop
   85270:	20070018 	.word	0x20070018

00085274 <strtof>:
   85274:	460a      	mov	r2, r1
   85276:	490a      	ldr	r1, [pc, #40]	; (852a0 <strtof+0x2c>)
   85278:	b538      	push	{r3, r4, r5, lr}
   8527a:	4603      	mov	r3, r0
   8527c:	6808      	ldr	r0, [r1, #0]
   8527e:	4619      	mov	r1, r3
   85280:	f7ff fa5f 	bl	84742 <_strtod_r>
   85284:	4604      	mov	r4, r0
   85286:	460d      	mov	r5, r1
   85288:	f003 fa6a 	bl	88760 <__fpclassifyd>
   8528c:	b918      	cbnz	r0, 85296 <strtof+0x22>
   8528e:	e8bd 4038 	ldmia.w	sp!, {r3, r4, r5, lr}
   85292:	f003 bad7 	b.w	88844 <nanf>
   85296:	4620      	mov	r0, r4
   85298:	4629      	mov	r1, r5
   8529a:	f004 f8ab 	bl	893f4 <__aeabi_d2f>
   8529e:	bd38      	pop	{r3, r4, r5, pc}
   852a0:	20070018 	.word	0x20070018
   852a4:	f3af 8000 	nop.w

000852a8 <__sprint_r>:
   852a8:	6893      	ldr	r3, [r2, #8]
   852aa:	e92d 47f0 	stmdb	sp!, {r4, r5, r6, r7, r8, r9, sl, lr}
   852ae:	4681      	mov	r9, r0
   852b0:	460f      	mov	r7, r1
   852b2:	4614      	mov	r4, r2
   852b4:	b91b      	cbnz	r3, 852be <__sprint_r+0x16>
   852b6:	6053      	str	r3, [r2, #4]
   852b8:	4618      	mov	r0, r3
   852ba:	e8bd 87f0 	ldmia.w	sp!, {r4, r5, r6, r7, r8, r9, sl, pc}
   852be:	6e4b      	ldr	r3, [r1, #100]	; 0x64
   852c0:	049b      	lsls	r3, r3, #18
   852c2:	d51e      	bpl.n	85302 <__sprint_r+0x5a>
   852c4:	6815      	ldr	r5, [r2, #0]
   852c6:	68a0      	ldr	r0, [r4, #8]
   852c8:	3508      	adds	r5, #8
   852ca:	b1c8      	cbz	r0, 85300 <__sprint_r+0x58>
   852cc:	f855 1c04 	ldr.w	r1, [r5, #-4]
   852d0:	f855 ac08 	ldr.w	sl, [r5, #-8]
   852d4:	ea4f 0891 	mov.w	r8, r1, lsr #2
   852d8:	2600      	movs	r6, #0
   852da:	4546      	cmp	r6, r8
   852dc:	da09      	bge.n	852f2 <__sprint_r+0x4a>
   852de:	4648      	mov	r0, r9
   852e0:	f85a 1026 	ldr.w	r1, [sl, r6, lsl #2]
   852e4:	463a      	mov	r2, r7
   852e6:	f001 fa51 	bl	8678c <_fputwc_r>
   852ea:	1c43      	adds	r3, r0, #1
   852ec:	d00b      	beq.n	85306 <__sprint_r+0x5e>
   852ee:	3601      	adds	r6, #1
   852f0:	e7f3      	b.n	852da <__sprint_r+0x32>
   852f2:	68a2      	ldr	r2, [r4, #8]
   852f4:	ea4f 0888 	mov.w	r8, r8, lsl #2
   852f8:	ebc8 0302 	rsb	r3, r8, r2
   852fc:	60a3      	str	r3, [r4, #8]
   852fe:	e7e2      	b.n	852c6 <__sprint_r+0x1e>
   85300:	e001      	b.n	85306 <__sprint_r+0x5e>
   85302:	f001 fc19 	bl	86b38 <__sfvwrite_r>
   85306:	2100      	movs	r1, #0
   85308:	60a1      	str	r1, [r4, #8]
   8530a:	6061      	str	r1, [r4, #4]
   8530c:	e8bd 87f0 	ldmia.w	sp!, {r4, r5, r6, r7, r8, r9, sl, pc}

00085310 <_vfiprintf_r>:
   85310:	e92d 4ff0 	stmdb	sp!, {r4, r5, r6, r7, r8, r9, sl, fp, lr}
   85314:	4689      	mov	r9, r1
   85316:	b0a9      	sub	sp, #164	; 0xa4
   85318:	4614      	mov	r4, r2
   8531a:	461d      	mov	r5, r3
   8531c:	461e      	mov	r6, r3
   8531e:	4682      	mov	sl, r0
   85320:	b118      	cbz	r0, 8532a <_vfiprintf_r+0x1a>
   85322:	6b83      	ldr	r3, [r0, #56]	; 0x38
   85324:	b90b      	cbnz	r3, 8532a <_vfiprintf_r+0x1a>
   85326:	f001 f9b5 	bl	86694 <__sinit>
   8532a:	f8b9 000c 	ldrh.w	r0, [r9, #12]
   8532e:	f400 5200 	and.w	r2, r0, #8192	; 0x2000
   85332:	b211      	sxth	r1, r2
   85334:	b949      	cbnz	r1, 8534a <_vfiprintf_r+0x3a>
   85336:	f440 5300 	orr.w	r3, r0, #8192	; 0x2000
   8533a:	f8d9 0064 	ldr.w	r0, [r9, #100]	; 0x64
   8533e:	f8a9 300c 	strh.w	r3, [r9, #12]
   85342:	f420 5200 	bic.w	r2, r0, #8192	; 0x2000
   85346:	f8c9 2064 	str.w	r2, [r9, #100]	; 0x64
   8534a:	f8b9 100c 	ldrh.w	r1, [r9, #12]
   8534e:	f001 0308 	and.w	r3, r1, #8
   85352:	b218      	sxth	r0, r3
   85354:	b148      	cbz	r0, 8536a <_vfiprintf_r+0x5a>
   85356:	f8d9 2010 	ldr.w	r2, [r9, #16]
   8535a:	b132      	cbz	r2, 8536a <_vfiprintf_r+0x5a>
   8535c:	f8b9 100c 	ldrh.w	r1, [r9, #12]
   85360:	f001 031a 	and.w	r3, r1, #26
   85364:	2b0a      	cmp	r3, #10
   85366:	d116      	bne.n	85396 <_vfiprintf_r+0x86>
   85368:	e009      	b.n	8537e <_vfiprintf_r+0x6e>
   8536a:	4650      	mov	r0, sl
   8536c:	4649      	mov	r1, r9
   8536e:	f001 f833 	bl	863d8 <__swsetup_r>
   85372:	2800      	cmp	r0, #0
   85374:	d0f2      	beq.n	8535c <_vfiprintf_r+0x4c>
   85376:	f04f 32ff 	mov.w	r2, #4294967295
   8537a:	9203      	str	r2, [sp, #12]
   8537c:	e3d3      	b.n	85b26 <_vfiprintf_r+0x816>
   8537e:	f9b9 000e 	ldrsh.w	r0, [r9, #14]
   85382:	2800      	cmp	r0, #0
   85384:	db07      	blt.n	85396 <_vfiprintf_r+0x86>
   85386:	4650      	mov	r0, sl
   85388:	4649      	mov	r1, r9
   8538a:	4622      	mov	r2, r4
   8538c:	462b      	mov	r3, r5
   8538e:	f000 fbce 	bl	85b2e <__sbprintf>
   85392:	9003      	str	r0, [sp, #12]
   85394:	e3c7      	b.n	85b26 <_vfiprintf_r+0x816>
   85396:	2200      	movs	r2, #0
   85398:	ad18      	add	r5, sp, #96	; 0x60
   8539a:	950b      	str	r5, [sp, #44]	; 0x2c
   8539c:	920d      	str	r2, [sp, #52]	; 0x34
   8539e:	920c      	str	r2, [sp, #48]	; 0x30
   853a0:	9401      	str	r4, [sp, #4]
   853a2:	9205      	str	r2, [sp, #20]
   853a4:	9203      	str	r2, [sp, #12]
   853a6:	46a8      	mov	r8, r5
   853a8:	9901      	ldr	r1, [sp, #4]
   853aa:	460c      	mov	r4, r1
   853ac:	f811 3b01 	ldrb.w	r3, [r1], #1
   853b0:	b10b      	cbz	r3, 853b6 <_vfiprintf_r+0xa6>
   853b2:	2b25      	cmp	r3, #37	; 0x25
   853b4:	d1f9      	bne.n	853aa <_vfiprintf_r+0x9a>
   853b6:	9a01      	ldr	r2, [sp, #4]
   853b8:	1aa5      	subs	r5, r4, r2
   853ba:	d019      	beq.n	853f0 <_vfiprintf_r+0xe0>
   853bc:	990c      	ldr	r1, [sp, #48]	; 0x30
   853be:	980d      	ldr	r0, [sp, #52]	; 0x34
   853c0:	1c4b      	adds	r3, r1, #1
   853c2:	e888 0024 	stmia.w	r8, {r2, r5}
   853c6:	2b07      	cmp	r3, #7
   853c8:	eb00 0205 	add.w	r2, r0, r5
   853cc:	920d      	str	r2, [sp, #52]	; 0x34
   853ce:	f108 0808 	add.w	r8, r8, #8
   853d2:	930c      	str	r3, [sp, #48]	; 0x30
   853d4:	dd09      	ble.n	853ea <_vfiprintf_r+0xda>
   853d6:	4650      	mov	r0, sl
   853d8:	4649      	mov	r1, r9
   853da:	aa0b      	add	r2, sp, #44	; 0x2c
   853dc:	f7ff ff64 	bl	852a8 <__sprint_r>
   853e0:	2800      	cmp	r0, #0
   853e2:	f040 8398 	bne.w	85b16 <_vfiprintf_r+0x806>
   853e6:	f10d 0860 	add.w	r8, sp, #96	; 0x60
   853ea:	9803      	ldr	r0, [sp, #12]
   853ec:	1942      	adds	r2, r0, r5
   853ee:	9203      	str	r2, [sp, #12]
   853f0:	7821      	ldrb	r1, [r4, #0]
   853f2:	2900      	cmp	r1, #0
   853f4:	f000 8388 	beq.w	85b08 <_vfiprintf_r+0x7f8>
   853f8:	2200      	movs	r2, #0
   853fa:	3401      	adds	r4, #1
   853fc:	9401      	str	r4, [sp, #4]
   853fe:	f88d 2027 	strb.w	r2, [sp, #39]	; 0x27
   85402:	f04f 3cff 	mov.w	ip, #4294967295
   85406:	9204      	str	r2, [sp, #16]
   85408:	4617      	mov	r7, r2
   8540a:	9801      	ldr	r0, [sp, #4]
   8540c:	f810 3b01 	ldrb.w	r3, [r0], #1
   85410:	9001      	str	r0, [sp, #4]
   85412:	2b63      	cmp	r3, #99	; 0x63
   85414:	f000 80b3 	beq.w	8557e <_vfiprintf_r+0x26e>
   85418:	dc33      	bgt.n	85482 <_vfiprintf_r+0x172>
   8541a:	2b39      	cmp	r3, #57	; 0x39
   8541c:	dc1a      	bgt.n	85454 <_vfiprintf_r+0x144>
   8541e:	2b31      	cmp	r3, #49	; 0x31
   85420:	f280 8091 	bge.w	85546 <_vfiprintf_r+0x236>
   85424:	2b2b      	cmp	r3, #43	; 0x2b
   85426:	d101      	bne.n	8542c <_vfiprintf_r+0x11c>
   85428:	461a      	mov	r2, r3
   8542a:	e7ee      	b.n	8540a <_vfiprintf_r+0xfa>
   8542c:	dc0a      	bgt.n	85444 <_vfiprintf_r+0x134>
   8542e:	2b23      	cmp	r3, #35	; 0x23
   85430:	d055      	beq.n	854de <_vfiprintf_r+0x1ce>
   85432:	2b2a      	cmp	r3, #42	; 0x2a
   85434:	d056      	beq.n	854e4 <_vfiprintf_r+0x1d4>
   85436:	2b20      	cmp	r3, #32
   85438:	f040 81f5 	bne.w	85826 <_vfiprintf_r+0x516>
   8543c:	2a00      	cmp	r2, #0
   8543e:	bf08      	it	eq
   85440:	2220      	moveq	r2, #32
   85442:	e7e2      	b.n	8540a <_vfiprintf_r+0xfa>
   85444:	2b2e      	cmp	r3, #46	; 0x2e
   85446:	d058      	beq.n	854fa <_vfiprintf_r+0x1ea>
   85448:	2b30      	cmp	r3, #48	; 0x30
   8544a:	d079      	beq.n	85540 <_vfiprintf_r+0x230>
   8544c:	2b2d      	cmp	r3, #45	; 0x2d
   8544e:	f040 81ea 	bne.w	85826 <_vfiprintf_r+0x516>
   85452:	e04f      	b.n	854f4 <_vfiprintf_r+0x1e4>
   85454:	2b4f      	cmp	r3, #79	; 0x4f
   85456:	f000 80de 	beq.w	85616 <_vfiprintf_r+0x306>
   8545a:	dc07      	bgt.n	8546c <_vfiprintf_r+0x15c>
   8545c:	2b44      	cmp	r3, #68	; 0x44
   8545e:	f040 81e2 	bne.w	85826 <_vfiprintf_r+0x516>
   85462:	f88d 2027 	strb.w	r2, [sp, #39]	; 0x27
   85466:	f047 0710 	orr.w	r7, r7, #16
   8546a:	e090      	b.n	8558e <_vfiprintf_r+0x27e>
   8546c:	2b55      	cmp	r3, #85	; 0x55
   8546e:	f000 811f 	beq.w	856b0 <_vfiprintf_r+0x3a0>
   85472:	2b58      	cmp	r3, #88	; 0x58
   85474:	f040 81d7 	bne.w	85826 <_vfiprintf_r+0x516>
   85478:	4dae      	ldr	r5, [pc, #696]	; (85734 <_vfiprintf_r+0x424>)
   8547a:	f88d 2027 	strb.w	r2, [sp, #39]	; 0x27
   8547e:	9505      	str	r5, [sp, #20]
   85480:	e130      	b.n	856e4 <_vfiprintf_r+0x3d4>
   85482:	2b6f      	cmp	r3, #111	; 0x6f
   85484:	f000 80c9 	beq.w	8561a <_vfiprintf_r+0x30a>
   85488:	dc10      	bgt.n	854ac <_vfiprintf_r+0x19c>
   8548a:	2b69      	cmp	r3, #105	; 0x69
   8548c:	d024      	beq.n	854d8 <_vfiprintf_r+0x1c8>
   8548e:	dc07      	bgt.n	854a0 <_vfiprintf_r+0x190>
   85490:	2b64      	cmp	r3, #100	; 0x64
   85492:	d021      	beq.n	854d8 <_vfiprintf_r+0x1c8>
   85494:	2b68      	cmp	r3, #104	; 0x68
   85496:	f040 81c6 	bne.w	85826 <_vfiprintf_r+0x516>
   8549a:	f047 0740 	orr.w	r7, r7, #64	; 0x40
   8549e:	e7b4      	b.n	8540a <_vfiprintf_r+0xfa>
   854a0:	2b6c      	cmp	r3, #108	; 0x6c
   854a2:	d05f      	beq.n	85564 <_vfiprintf_r+0x254>
   854a4:	2b6e      	cmp	r3, #110	; 0x6e
   854a6:	f040 81be 	bne.w	85826 <_vfiprintf_r+0x516>
   854aa:	e096      	b.n	855da <_vfiprintf_r+0x2ca>
   854ac:	2b73      	cmp	r3, #115	; 0x73
   854ae:	f000 80df 	beq.w	85670 <_vfiprintf_r+0x360>
   854b2:	dc06      	bgt.n	854c2 <_vfiprintf_r+0x1b2>
   854b4:	2b70      	cmp	r3, #112	; 0x70
   854b6:	f000 80cd 	beq.w	85654 <_vfiprintf_r+0x344>
   854ba:	2b71      	cmp	r3, #113	; 0x71
   854bc:	f040 81b3 	bne.w	85826 <_vfiprintf_r+0x516>
   854c0:	e05a      	b.n	85578 <_vfiprintf_r+0x268>
   854c2:	2b75      	cmp	r3, #117	; 0x75
   854c4:	f000 80f6 	beq.w	856b4 <_vfiprintf_r+0x3a4>
   854c8:	2b78      	cmp	r3, #120	; 0x78
   854ca:	f040 81ac 	bne.w	85826 <_vfiprintf_r+0x516>
   854ce:	4d9a      	ldr	r5, [pc, #616]	; (85738 <_vfiprintf_r+0x428>)
   854d0:	f88d 2027 	strb.w	r2, [sp, #39]	; 0x27
   854d4:	9505      	str	r5, [sp, #20]
   854d6:	e105      	b.n	856e4 <_vfiprintf_r+0x3d4>
   854d8:	f88d 2027 	strb.w	r2, [sp, #39]	; 0x27
   854dc:	e057      	b.n	8558e <_vfiprintf_r+0x27e>
   854de:	f047 0701 	orr.w	r7, r7, #1
   854e2:	e792      	b.n	8540a <_vfiprintf_r+0xfa>
   854e4:	1d33      	adds	r3, r6, #4
   854e6:	6836      	ldr	r6, [r6, #0]
   854e8:	2e00      	cmp	r6, #0
   854ea:	9604      	str	r6, [sp, #16]
   854ec:	da15      	bge.n	8551a <_vfiprintf_r+0x20a>
   854ee:	4270      	negs	r0, r6
   854f0:	9004      	str	r0, [sp, #16]
   854f2:	461e      	mov	r6, r3
   854f4:	f047 0704 	orr.w	r7, r7, #4
   854f8:	e787      	b.n	8540a <_vfiprintf_r+0xfa>
   854fa:	9901      	ldr	r1, [sp, #4]
   854fc:	f811 3b01 	ldrb.w	r3, [r1], #1
   85500:	2b2a      	cmp	r3, #42	; 0x2a
   85502:	9101      	str	r1, [sp, #4]
   85504:	d10b      	bne.n	8551e <_vfiprintf_r+0x20e>
   85506:	f8d6 c000 	ldr.w	ip, [r6]
   8550a:	1d33      	adds	r3, r6, #4
   8550c:	f1bc 0f00 	cmp.w	ip, #0
   85510:	da03      	bge.n	8551a <_vfiprintf_r+0x20a>
   85512:	461e      	mov	r6, r3
   85514:	f04f 3cff 	mov.w	ip, #4294967295
   85518:	e777      	b.n	8540a <_vfiprintf_r+0xfa>
   8551a:	461e      	mov	r6, r3
   8551c:	e775      	b.n	8540a <_vfiprintf_r+0xfa>
   8551e:	f04f 0c00 	mov.w	ip, #0
   85522:	f1a3 0030 	sub.w	r0, r3, #48	; 0x30
   85526:	2809      	cmp	r0, #9
   85528:	d807      	bhi.n	8553a <_vfiprintf_r+0x22a>
   8552a:	9901      	ldr	r1, [sp, #4]
   8552c:	230a      	movs	r3, #10
   8552e:	fb03 0c0c 	mla	ip, r3, ip, r0
   85532:	f811 3b01 	ldrb.w	r3, [r1], #1
   85536:	9101      	str	r1, [sp, #4]
   85538:	e7f3      	b.n	85522 <_vfiprintf_r+0x212>
   8553a:	ea4c 7cec 	orr.w	ip, ip, ip, asr #31
   8553e:	e768      	b.n	85412 <_vfiprintf_r+0x102>
   85540:	f047 0780 	orr.w	r7, r7, #128	; 0x80
   85544:	e761      	b.n	8540a <_vfiprintf_r+0xfa>
   85546:	9801      	ldr	r0, [sp, #4]
   85548:	2100      	movs	r1, #0
   8554a:	3b30      	subs	r3, #48	; 0x30
   8554c:	240a      	movs	r4, #10
   8554e:	fb04 3101 	mla	r1, r4, r1, r3
   85552:	f810 3b01 	ldrb.w	r3, [r0], #1
   85556:	f1a3 0430 	sub.w	r4, r3, #48	; 0x30
   8555a:	2c09      	cmp	r4, #9
   8555c:	9001      	str	r0, [sp, #4]
   8555e:	d9f4      	bls.n	8554a <_vfiprintf_r+0x23a>
   85560:	9104      	str	r1, [sp, #16]
   85562:	e756      	b.n	85412 <_vfiprintf_r+0x102>
   85564:	9901      	ldr	r1, [sp, #4]
   85566:	780b      	ldrb	r3, [r1, #0]
   85568:	2b6c      	cmp	r3, #108	; 0x6c
   8556a:	d102      	bne.n	85572 <_vfiprintf_r+0x262>
   8556c:	1c48      	adds	r0, r1, #1
   8556e:	9001      	str	r0, [sp, #4]
   85570:	e002      	b.n	85578 <_vfiprintf_r+0x268>
   85572:	f047 0710 	orr.w	r7, r7, #16
   85576:	e748      	b.n	8540a <_vfiprintf_r+0xfa>
   85578:	f047 0720 	orr.w	r7, r7, #32
   8557c:	e745      	b.n	8540a <_vfiprintf_r+0xfa>
   8557e:	6832      	ldr	r2, [r6, #0]
   85580:	2500      	movs	r5, #0
   85582:	f88d 2038 	strb.w	r2, [sp, #56]	; 0x38
   85586:	f88d 5027 	strb.w	r5, [sp, #39]	; 0x27
   8558a:	3604      	adds	r6, #4
   8558c:	e155      	b.n	8583a <_vfiprintf_r+0x52a>
   8558e:	06ba      	lsls	r2, r7, #26
   85590:	d507      	bpl.n	855a2 <_vfiprintf_r+0x292>
   85592:	3607      	adds	r6, #7
   85594:	f026 0507 	bic.w	r5, r6, #7
   85598:	f105 0608 	add.w	r6, r5, #8
   8559c:	e9d5 4500 	ldrd	r4, r5, [r5]
   855a0:	e00f      	b.n	855c2 <_vfiprintf_r+0x2b2>
   855a2:	f017 0f10 	tst.w	r7, #16
   855a6:	f106 0104 	add.w	r1, r6, #4
   855aa:	d001      	beq.n	855b0 <_vfiprintf_r+0x2a0>
   855ac:	6832      	ldr	r2, [r6, #0]
   855ae:	e005      	b.n	855bc <_vfiprintf_r+0x2ac>
   855b0:	f017 0f40 	tst.w	r7, #64	; 0x40
   855b4:	6832      	ldr	r2, [r6, #0]
   855b6:	d001      	beq.n	855bc <_vfiprintf_r+0x2ac>
   855b8:	b214      	sxth	r4, r2
   855ba:	e000      	b.n	855be <_vfiprintf_r+0x2ae>
   855bc:	4614      	mov	r4, r2
   855be:	17e5      	asrs	r5, r4, #31
   855c0:	460e      	mov	r6, r1
   855c2:	2c00      	cmp	r4, #0
   855c4:	f175 0200 	sbcs.w	r2, r5, #0
   855c8:	f280 80b8 	bge.w	8573c <_vfiprintf_r+0x42c>
   855cc:	232d      	movs	r3, #45	; 0x2d
   855ce:	4264      	negs	r4, r4
   855d0:	eb65 0545 	sbc.w	r5, r5, r5, lsl #1
   855d4:	f88d 3027 	strb.w	r3, [sp, #39]	; 0x27
   855d8:	e0b0      	b.n	8573c <_vfiprintf_r+0x42c>
   855da:	f017 0f20 	tst.w	r7, #32
   855de:	f88d 2027 	strb.w	r2, [sp, #39]	; 0x27
   855e2:	f106 0204 	add.w	r2, r6, #4
   855e6:	d005      	beq.n	855f4 <_vfiprintf_r+0x2e4>
   855e8:	9c03      	ldr	r4, [sp, #12]
   855ea:	6835      	ldr	r5, [r6, #0]
   855ec:	17e0      	asrs	r0, r4, #31
   855ee:	602c      	str	r4, [r5, #0]
   855f0:	6068      	str	r0, [r5, #4]
   855f2:	e004      	b.n	855fe <_vfiprintf_r+0x2ee>
   855f4:	06fb      	lsls	r3, r7, #27
   855f6:	d504      	bpl.n	85602 <_vfiprintf_r+0x2f2>
   855f8:	6833      	ldr	r3, [r6, #0]
   855fa:	9903      	ldr	r1, [sp, #12]
   855fc:	6019      	str	r1, [r3, #0]
   855fe:	4616      	mov	r6, r2
   85600:	e6d2      	b.n	853a8 <_vfiprintf_r+0x98>
   85602:	6830      	ldr	r0, [r6, #0]
   85604:	9c03      	ldr	r4, [sp, #12]
   85606:	f017 0f40 	tst.w	r7, #64	; 0x40
   8560a:	f106 0604 	add.w	r6, r6, #4
   8560e:	bf14      	ite	ne
   85610:	8004      	strhne	r4, [r0, #0]
   85612:	6004      	streq	r4, [r0, #0]
   85614:	e6c8      	b.n	853a8 <_vfiprintf_r+0x98>
   85616:	f047 0710 	orr.w	r7, r7, #16
   8561a:	f017 0020 	ands.w	r0, r7, #32
   8561e:	d008      	beq.n	85632 <_vfiprintf_r+0x322>
   85620:	1df3      	adds	r3, r6, #7
   85622:	f023 0507 	bic.w	r5, r3, #7
   85626:	f105 0608 	add.w	r6, r5, #8
   8562a:	e9d5 4500 	ldrd	r4, r5, [r5]
   8562e:	2000      	movs	r0, #0
   85630:	e07c      	b.n	8572c <_vfiprintf_r+0x41c>
   85632:	f017 0110 	ands.w	r1, r7, #16
   85636:	f106 0204 	add.w	r2, r6, #4
   8563a:	d106      	bne.n	8564a <_vfiprintf_r+0x33a>
   8563c:	f017 0040 	ands.w	r0, r7, #64	; 0x40
   85640:	d003      	beq.n	8564a <_vfiprintf_r+0x33a>
   85642:	8834      	ldrh	r4, [r6, #0]
   85644:	2500      	movs	r5, #0
   85646:	4616      	mov	r6, r2
   85648:	e7f1      	b.n	8562e <_vfiprintf_r+0x31e>
   8564a:	6836      	ldr	r6, [r6, #0]
   8564c:	2500      	movs	r5, #0
   8564e:	4634      	mov	r4, r6
   85650:	4616      	mov	r6, r2
   85652:	e06b      	b.n	8572c <_vfiprintf_r+0x41c>
   85654:	4b38      	ldr	r3, [pc, #224]	; (85738 <_vfiprintf_r+0x428>)
   85656:	2130      	movs	r1, #48	; 0x30
   85658:	2278      	movs	r2, #120	; 0x78
   8565a:	6834      	ldr	r4, [r6, #0]
   8565c:	2500      	movs	r5, #0
   8565e:	f047 0702 	orr.w	r7, r7, #2
   85662:	f88d 1028 	strb.w	r1, [sp, #40]	; 0x28
   85666:	f88d 2029 	strb.w	r2, [sp, #41]	; 0x29
   8566a:	3604      	adds	r6, #4
   8566c:	9305      	str	r3, [sp, #20]
   8566e:	e05c      	b.n	8572a <_vfiprintf_r+0x41a>
   85670:	4631      	mov	r1, r6
   85672:	2500      	movs	r5, #0
   85674:	f8d1 b000 	ldr.w	fp, [r1]
   85678:	3604      	adds	r6, #4
   8567a:	45ac      	cmp	ip, r5
   8567c:	f88d 5027 	strb.w	r5, [sp, #39]	; 0x27
   85680:	4658      	mov	r0, fp
   85682:	db11      	blt.n	856a8 <_vfiprintf_r+0x398>
   85684:	4662      	mov	r2, ip
   85686:	4629      	mov	r1, r5
   85688:	f8cd c000 	str.w	ip, [sp]
   8568c:	f002 fa5e 	bl	87b4c <memchr>
   85690:	f8dd c000 	ldr.w	ip, [sp]
   85694:	2800      	cmp	r0, #0
   85696:	f000 80d4 	beq.w	85842 <_vfiprintf_r+0x532>
   8569a:	ebcb 0400 	rsb	r4, fp, r0
   8569e:	4564      	cmp	r4, ip
   856a0:	f340 80d1 	ble.w	85846 <_vfiprintf_r+0x536>
   856a4:	4664      	mov	r4, ip
   856a6:	e0ce      	b.n	85846 <_vfiprintf_r+0x536>
   856a8:	f7ff f802 	bl	846b0 <strlen>
   856ac:	4604      	mov	r4, r0
   856ae:	e0ca      	b.n	85846 <_vfiprintf_r+0x536>
   856b0:	f047 0710 	orr.w	r7, r7, #16
   856b4:	06bd      	lsls	r5, r7, #26
   856b6:	d506      	bpl.n	856c6 <_vfiprintf_r+0x3b6>
   856b8:	1df0      	adds	r0, r6, #7
   856ba:	f020 0407 	bic.w	r4, r0, #7
   856be:	f104 0608 	add.w	r6, r4, #8
   856c2:	cc30      	ldmia	r4, {r4, r5}
   856c4:	e00c      	b.n	856e0 <_vfiprintf_r+0x3d0>
   856c6:	f017 0f10 	tst.w	r7, #16
   856ca:	f106 0304 	add.w	r3, r6, #4
   856ce:	d103      	bne.n	856d8 <_vfiprintf_r+0x3c8>
   856d0:	067c      	lsls	r4, r7, #25
   856d2:	d501      	bpl.n	856d8 <_vfiprintf_r+0x3c8>
   856d4:	8834      	ldrh	r4, [r6, #0]
   856d6:	e001      	b.n	856dc <_vfiprintf_r+0x3cc>
   856d8:	6835      	ldr	r5, [r6, #0]
   856da:	462c      	mov	r4, r5
   856dc:	2500      	movs	r5, #0
   856de:	461e      	mov	r6, r3
   856e0:	2001      	movs	r0, #1
   856e2:	e023      	b.n	8572c <_vfiprintf_r+0x41c>
   856e4:	06b8      	lsls	r0, r7, #26
   856e6:	d507      	bpl.n	856f8 <_vfiprintf_r+0x3e8>
   856e8:	1df4      	adds	r4, r6, #7
   856ea:	f024 0107 	bic.w	r1, r4, #7
   856ee:	f101 0608 	add.w	r6, r1, #8
   856f2:	e9d1 4500 	ldrd	r4, r5, [r1]
   856f6:	e00c      	b.n	85712 <_vfiprintf_r+0x402>
   856f8:	f017 0f10 	tst.w	r7, #16
   856fc:	f106 0004 	add.w	r0, r6, #4
   85700:	d103      	bne.n	8570a <_vfiprintf_r+0x3fa>
   85702:	0679      	lsls	r1, r7, #25
   85704:	d501      	bpl.n	8570a <_vfiprintf_r+0x3fa>
   85706:	8834      	ldrh	r4, [r6, #0]
   85708:	e001      	b.n	8570e <_vfiprintf_r+0x3fe>
   8570a:	6836      	ldr	r6, [r6, #0]
   8570c:	4634      	mov	r4, r6
   8570e:	2500      	movs	r5, #0
   85710:	4606      	mov	r6, r0
   85712:	07fa      	lsls	r2, r7, #31
   85714:	d509      	bpl.n	8572a <_vfiprintf_r+0x41a>
   85716:	ea54 0205 	orrs.w	r2, r4, r5
   8571a:	d006      	beq.n	8572a <_vfiprintf_r+0x41a>
   8571c:	2230      	movs	r2, #48	; 0x30
   8571e:	f88d 2028 	strb.w	r2, [sp, #40]	; 0x28
   85722:	f88d 3029 	strb.w	r3, [sp, #41]	; 0x29
   85726:	f047 0702 	orr.w	r7, r7, #2
   8572a:	2002      	movs	r0, #2
   8572c:	2100      	movs	r1, #0
   8572e:	f88d 1027 	strb.w	r1, [sp, #39]	; 0x27
   85732:	e004      	b.n	8573e <_vfiprintf_r+0x42e>
   85734:	00089b74 	.word	0x00089b74
   85738:	00089b85 	.word	0x00089b85
   8573c:	2001      	movs	r0, #1
   8573e:	f1bc 0f00 	cmp.w	ip, #0
   85742:	bfa8      	it	ge
   85744:	f027 0780 	bicge.w	r7, r7, #128	; 0x80
   85748:	ea54 0105 	orrs.w	r1, r4, r5
   8574c:	d102      	bne.n	85754 <_vfiprintf_r+0x444>
   8574e:	f1bc 0f00 	cmp.w	ip, #0
   85752:	d058      	beq.n	85806 <_vfiprintf_r+0x4f6>
   85754:	2801      	cmp	r0, #1
   85756:	d01d      	beq.n	85794 <_vfiprintf_r+0x484>
   85758:	2802      	cmp	r0, #2
   8575a:	f10d 035f 	add.w	r3, sp, #95	; 0x5f
   8575e:	d041      	beq.n	857e4 <_vfiprintf_r+0x4d4>
   85760:	f004 0207 	and.w	r2, r4, #7
   85764:	08e4      	lsrs	r4, r4, #3
   85766:	ea44 7045 	orr.w	r0, r4, r5, lsl #29
   8576a:	08e9      	lsrs	r1, r5, #3
   8576c:	4604      	mov	r4, r0
   8576e:	460d      	mov	r5, r1
   85770:	3230      	adds	r2, #48	; 0x30
   85772:	ea54 0105 	orrs.w	r1, r4, r5
   85776:	469b      	mov	fp, r3
   85778:	701a      	strb	r2, [r3, #0]
   8577a:	f103 33ff 	add.w	r3, r3, #4294967295
   8577e:	d1ef      	bne.n	85760 <_vfiprintf_r+0x450>
   85780:	07f8      	lsls	r0, r7, #31
   85782:	465d      	mov	r5, fp
   85784:	d54a      	bpl.n	8581c <_vfiprintf_r+0x50c>
   85786:	2a30      	cmp	r2, #48	; 0x30
   85788:	d048      	beq.n	8581c <_vfiprintf_r+0x50c>
   8578a:	2230      	movs	r2, #48	; 0x30
   8578c:	469b      	mov	fp, r3
   8578e:	f805 2c01 	strb.w	r2, [r5, #-1]
   85792:	e043      	b.n	8581c <_vfiprintf_r+0x50c>
   85794:	2d00      	cmp	r5, #0
   85796:	bf08      	it	eq
   85798:	2c0a      	cmpeq	r4, #10
   8579a:	d203      	bcs.n	857a4 <_vfiprintf_r+0x494>
   8579c:	3430      	adds	r4, #48	; 0x30
   8579e:	f88d 405f 	strb.w	r4, [sp, #95]	; 0x5f
   857a2:	e036      	b.n	85812 <_vfiprintf_r+0x502>
   857a4:	f10d 035f 	add.w	r3, sp, #95	; 0x5f
   857a8:	9302      	str	r3, [sp, #8]
   857aa:	4620      	mov	r0, r4
   857ac:	4629      	mov	r1, r5
   857ae:	220a      	movs	r2, #10
   857b0:	2300      	movs	r3, #0
   857b2:	f8cd c000 	str.w	ip, [sp]
   857b6:	f003 fe6d 	bl	89494 <__aeabi_uldivmod>
   857ba:	9802      	ldr	r0, [sp, #8]
   857bc:	3230      	adds	r2, #48	; 0x30
   857be:	f800 2901 	strb.w	r2, [r0], #-1
   857c2:	4629      	mov	r1, r5
   857c4:	220a      	movs	r2, #10
   857c6:	2300      	movs	r3, #0
   857c8:	f8dd b008 	ldr.w	fp, [sp, #8]
   857cc:	9002      	str	r0, [sp, #8]
   857ce:	4620      	mov	r0, r4
   857d0:	f003 fe60 	bl	89494 <__aeabi_uldivmod>
   857d4:	4604      	mov	r4, r0
   857d6:	460d      	mov	r5, r1
   857d8:	ea54 0105 	orrs.w	r1, r4, r5
   857dc:	f8dd c000 	ldr.w	ip, [sp]
   857e0:	d1e3      	bne.n	857aa <_vfiprintf_r+0x49a>
   857e2:	e01b      	b.n	8581c <_vfiprintf_r+0x50c>
   857e4:	9905      	ldr	r1, [sp, #20]
   857e6:	f004 000f 	and.w	r0, r4, #15
   857ea:	0924      	lsrs	r4, r4, #4
   857ec:	5c0a      	ldrb	r2, [r1, r0]
   857ee:	ea44 7005 	orr.w	r0, r4, r5, lsl #28
   857f2:	0929      	lsrs	r1, r5, #4
   857f4:	4604      	mov	r4, r0
   857f6:	460d      	mov	r5, r1
   857f8:	469b      	mov	fp, r3
   857fa:	f803 2901 	strb.w	r2, [r3], #-1
   857fe:	ea54 0205 	orrs.w	r2, r4, r5
   85802:	d1ef      	bne.n	857e4 <_vfiprintf_r+0x4d4>
   85804:	e00a      	b.n	8581c <_vfiprintf_r+0x50c>
   85806:	b938      	cbnz	r0, 85818 <_vfiprintf_r+0x508>
   85808:	07f9      	lsls	r1, r7, #31
   8580a:	d505      	bpl.n	85818 <_vfiprintf_r+0x508>
   8580c:	2030      	movs	r0, #48	; 0x30
   8580e:	f88d 005f 	strb.w	r0, [sp, #95]	; 0x5f
   85812:	f10d 0b5f 	add.w	fp, sp, #95	; 0x5f
   85816:	e001      	b.n	8581c <_vfiprintf_r+0x50c>
   85818:	f10d 0b60 	add.w	fp, sp, #96	; 0x60
   8581c:	ad18      	add	r5, sp, #96	; 0x60
   8581e:	ebcb 0405 	rsb	r4, fp, r5
   85822:	4665      	mov	r5, ip
   85824:	e00f      	b.n	85846 <_vfiprintf_r+0x536>
   85826:	f88d 2027 	strb.w	r2, [sp, #39]	; 0x27
   8582a:	2b00      	cmp	r3, #0
   8582c:	f000 816c 	beq.w	85b08 <_vfiprintf_r+0x7f8>
   85830:	2500      	movs	r5, #0
   85832:	f88d 3038 	strb.w	r3, [sp, #56]	; 0x38
   85836:	f88d 5027 	strb.w	r5, [sp, #39]	; 0x27
   8583a:	2401      	movs	r4, #1
   8583c:	f10d 0b38 	add.w	fp, sp, #56	; 0x38
   85840:	e001      	b.n	85846 <_vfiprintf_r+0x536>
   85842:	4664      	mov	r4, ip
   85844:	4605      	mov	r5, r0
   85846:	f89d 3027 	ldrb.w	r3, [sp, #39]	; 0x27
   8584a:	42ac      	cmp	r4, r5
   8584c:	bfac      	ite	ge
   8584e:	4621      	movge	r1, r4
   85850:	4629      	movlt	r1, r5
   85852:	9102      	str	r1, [sp, #8]
   85854:	b113      	cbz	r3, 8585c <_vfiprintf_r+0x54c>
   85856:	9802      	ldr	r0, [sp, #8]
   85858:	1c42      	adds	r2, r0, #1
   8585a:	9202      	str	r2, [sp, #8]
   8585c:	f017 0102 	ands.w	r1, r7, #2
   85860:	9106      	str	r1, [sp, #24]
   85862:	d002      	beq.n	8586a <_vfiprintf_r+0x55a>
   85864:	9b02      	ldr	r3, [sp, #8]
   85866:	1c98      	adds	r0, r3, #2
   85868:	9002      	str	r0, [sp, #8]
   8586a:	f017 0284 	ands.w	r2, r7, #132	; 0x84
   8586e:	9207      	str	r2, [sp, #28]
   85870:	d13a      	bne.n	858e8 <_vfiprintf_r+0x5d8>
   85872:	9904      	ldr	r1, [sp, #16]
   85874:	9b02      	ldr	r3, [sp, #8]
   85876:	1acb      	subs	r3, r1, r3
   85878:	2b00      	cmp	r3, #0
   8587a:	dd35      	ble.n	858e8 <_vfiprintf_r+0x5d8>
   8587c:	48a0      	ldr	r0, [pc, #640]	; (85b00 <_vfiprintf_r+0x7f0>)
   8587e:	2b10      	cmp	r3, #16
   85880:	f8c8 0000 	str.w	r0, [r8]
   85884:	dd1a      	ble.n	858bc <_vfiprintf_r+0x5ac>
   85886:	990c      	ldr	r1, [sp, #48]	; 0x30
   85888:	2010      	movs	r0, #16
   8588a:	9a0d      	ldr	r2, [sp, #52]	; 0x34
   8588c:	f8c8 0004 	str.w	r0, [r8, #4]
   85890:	1c48      	adds	r0, r1, #1
   85892:	3210      	adds	r2, #16
   85894:	2807      	cmp	r0, #7
   85896:	920d      	str	r2, [sp, #52]	; 0x34
   85898:	f108 0808 	add.w	r8, r8, #8
   8589c:	900c      	str	r0, [sp, #48]	; 0x30
   8589e:	dd0b      	ble.n	858b8 <_vfiprintf_r+0x5a8>
   858a0:	4650      	mov	r0, sl
   858a2:	4649      	mov	r1, r9
   858a4:	aa0b      	add	r2, sp, #44	; 0x2c
   858a6:	9300      	str	r3, [sp, #0]
   858a8:	f7ff fcfe 	bl	852a8 <__sprint_r>
   858ac:	9b00      	ldr	r3, [sp, #0]
   858ae:	2800      	cmp	r0, #0
   858b0:	f040 8131 	bne.w	85b16 <_vfiprintf_r+0x806>
   858b4:	f10d 0860 	add.w	r8, sp, #96	; 0x60
   858b8:	3b10      	subs	r3, #16
   858ba:	e7df      	b.n	8587c <_vfiprintf_r+0x56c>
   858bc:	9a0d      	ldr	r2, [sp, #52]	; 0x34
   858be:	f8c8 3004 	str.w	r3, [r8, #4]
   858c2:	18d1      	adds	r1, r2, r3
   858c4:	9b0c      	ldr	r3, [sp, #48]	; 0x30
   858c6:	910d      	str	r1, [sp, #52]	; 0x34
   858c8:	1c58      	adds	r0, r3, #1
   858ca:	2807      	cmp	r0, #7
   858cc:	f108 0808 	add.w	r8, r8, #8
   858d0:	900c      	str	r0, [sp, #48]	; 0x30
   858d2:	dd09      	ble.n	858e8 <_vfiprintf_r+0x5d8>
   858d4:	4650      	mov	r0, sl
   858d6:	4649      	mov	r1, r9
   858d8:	aa0b      	add	r2, sp, #44	; 0x2c
   858da:	f7ff fce5 	bl	852a8 <__sprint_r>
   858de:	2800      	cmp	r0, #0
   858e0:	f040 8119 	bne.w	85b16 <_vfiprintf_r+0x806>
   858e4:	f10d 0860 	add.w	r8, sp, #96	; 0x60
   858e8:	f89d 2027 	ldrb.w	r2, [sp, #39]	; 0x27
   858ec:	b1d2      	cbz	r2, 85924 <_vfiprintf_r+0x614>
   858ee:	f10d 0127 	add.w	r1, sp, #39	; 0x27
   858f2:	f8c8 1000 	str.w	r1, [r8]
   858f6:	990c      	ldr	r1, [sp, #48]	; 0x30
   858f8:	2301      	movs	r3, #1
   858fa:	980d      	ldr	r0, [sp, #52]	; 0x34
   858fc:	f8c8 3004 	str.w	r3, [r8, #4]
   85900:	1c4b      	adds	r3, r1, #1
   85902:	1c42      	adds	r2, r0, #1
   85904:	2b07      	cmp	r3, #7
   85906:	920d      	str	r2, [sp, #52]	; 0x34
   85908:	f108 0808 	add.w	r8, r8, #8
   8590c:	930c      	str	r3, [sp, #48]	; 0x30
   8590e:	dd09      	ble.n	85924 <_vfiprintf_r+0x614>
   85910:	4650      	mov	r0, sl
   85912:	4649      	mov	r1, r9
   85914:	aa0b      	add	r2, sp, #44	; 0x2c
   85916:	f7ff fcc7 	bl	852a8 <__sprint_r>
   8591a:	2800      	cmp	r0, #0
   8591c:	f040 80fb 	bne.w	85b16 <_vfiprintf_r+0x806>
   85920:	f10d 0860 	add.w	r8, sp, #96	; 0x60
   85924:	9806      	ldr	r0, [sp, #24]
   85926:	b1c8      	cbz	r0, 8595c <_vfiprintf_r+0x64c>
   85928:	aa0a      	add	r2, sp, #40	; 0x28
   8592a:	f8c8 2000 	str.w	r2, [r8]
   8592e:	9a0c      	ldr	r2, [sp, #48]	; 0x30
   85930:	2102      	movs	r1, #2
   85932:	9b0d      	ldr	r3, [sp, #52]	; 0x34
   85934:	f8c8 1004 	str.w	r1, [r8, #4]
   85938:	1c51      	adds	r1, r2, #1
   8593a:	1c98      	adds	r0, r3, #2
   8593c:	2907      	cmp	r1, #7
   8593e:	900d      	str	r0, [sp, #52]	; 0x34
   85940:	f108 0808 	add.w	r8, r8, #8
   85944:	910c      	str	r1, [sp, #48]	; 0x30
   85946:	dd09      	ble.n	8595c <_vfiprintf_r+0x64c>
   85948:	4650      	mov	r0, sl
   8594a:	4649      	mov	r1, r9
   8594c:	aa0b      	add	r2, sp, #44	; 0x2c
   8594e:	f7ff fcab 	bl	852a8 <__sprint_r>
   85952:	2800      	cmp	r0, #0
   85954:	f040 80df 	bne.w	85b16 <_vfiprintf_r+0x806>
   85958:	f10d 0860 	add.w	r8, sp, #96	; 0x60
   8595c:	9b07      	ldr	r3, [sp, #28]
   8595e:	2b80      	cmp	r3, #128	; 0x80
   85960:	d13a      	bne.n	859d8 <_vfiprintf_r+0x6c8>
   85962:	9804      	ldr	r0, [sp, #16]
   85964:	9a02      	ldr	r2, [sp, #8]
   85966:	1a83      	subs	r3, r0, r2
   85968:	2b00      	cmp	r3, #0
   8596a:	dd35      	ble.n	859d8 <_vfiprintf_r+0x6c8>
   8596c:	4965      	ldr	r1, [pc, #404]	; (85b04 <_vfiprintf_r+0x7f4>)
   8596e:	2b10      	cmp	r3, #16
   85970:	f8c8 1000 	str.w	r1, [r8]
   85974:	dd1a      	ble.n	859ac <_vfiprintf_r+0x69c>
   85976:	9a0c      	ldr	r2, [sp, #48]	; 0x30
   85978:	2110      	movs	r1, #16
   8597a:	980d      	ldr	r0, [sp, #52]	; 0x34
   8597c:	f8c8 1004 	str.w	r1, [r8, #4]
   85980:	1c51      	adds	r1, r2, #1
   85982:	3010      	adds	r0, #16
   85984:	2907      	cmp	r1, #7
   85986:	900d      	str	r0, [sp, #52]	; 0x34
   85988:	f108 0808 	add.w	r8, r8, #8
   8598c:	910c      	str	r1, [sp, #48]	; 0x30
   8598e:	dd0b      	ble.n	859a8 <_vfiprintf_r+0x698>
   85990:	4650      	mov	r0, sl
   85992:	4649      	mov	r1, r9
   85994:	aa0b      	add	r2, sp, #44	; 0x2c
   85996:	9300      	str	r3, [sp, #0]
   85998:	f7ff fc86 	bl	852a8 <__sprint_r>
   8599c:	9b00      	ldr	r3, [sp, #0]
   8599e:	2800      	cmp	r0, #0
   859a0:	f040 80b9 	bne.w	85b16 <_vfiprintf_r+0x806>
   859a4:	f10d 0860 	add.w	r8, sp, #96	; 0x60
   859a8:	3b10      	subs	r3, #16
   859aa:	e7df      	b.n	8596c <_vfiprintf_r+0x65c>
   859ac:	9a0c      	ldr	r2, [sp, #48]	; 0x30
   859ae:	980d      	ldr	r0, [sp, #52]	; 0x34
   859b0:	1c51      	adds	r1, r2, #1
   859b2:	f8c8 3004 	str.w	r3, [r8, #4]
   859b6:	2907      	cmp	r1, #7
   859b8:	4403      	add	r3, r0
   859ba:	930d      	str	r3, [sp, #52]	; 0x34
   859bc:	f108 0808 	add.w	r8, r8, #8
   859c0:	910c      	str	r1, [sp, #48]	; 0x30
   859c2:	dd09      	ble.n	859d8 <_vfiprintf_r+0x6c8>
   859c4:	4650      	mov	r0, sl
   859c6:	4649      	mov	r1, r9
   859c8:	aa0b      	add	r2, sp, #44	; 0x2c
   859ca:	f7ff fc6d 	bl	852a8 <__sprint_r>
   859ce:	2800      	cmp	r0, #0
   859d0:	f040 80a1 	bne.w	85b16 <_vfiprintf_r+0x806>
   859d4:	f10d 0860 	add.w	r8, sp, #96	; 0x60
   859d8:	1b2d      	subs	r5, r5, r4
   859da:	2d00      	cmp	r5, #0
   859dc:	dd32      	ble.n	85a44 <_vfiprintf_r+0x734>
   859de:	4849      	ldr	r0, [pc, #292]	; (85b04 <_vfiprintf_r+0x7f4>)
   859e0:	2d10      	cmp	r5, #16
   859e2:	f8c8 0000 	str.w	r0, [r8]
   859e6:	dd18      	ble.n	85a1a <_vfiprintf_r+0x70a>
   859e8:	9a0c      	ldr	r2, [sp, #48]	; 0x30
   859ea:	980d      	ldr	r0, [sp, #52]	; 0x34
   859ec:	1c53      	adds	r3, r2, #1
   859ee:	2110      	movs	r1, #16
   859f0:	3010      	adds	r0, #16
   859f2:	2b07      	cmp	r3, #7
   859f4:	f8c8 1004 	str.w	r1, [r8, #4]
   859f8:	900d      	str	r0, [sp, #52]	; 0x34
   859fa:	f108 0808 	add.w	r8, r8, #8
   859fe:	930c      	str	r3, [sp, #48]	; 0x30
   85a00:	dd09      	ble.n	85a16 <_vfiprintf_r+0x706>
   85a02:	4650      	mov	r0, sl
   85a04:	4649      	mov	r1, r9
   85a06:	aa0b      	add	r2, sp, #44	; 0x2c
   85a08:	f7ff fc4e 	bl	852a8 <__sprint_r>
   85a0c:	2800      	cmp	r0, #0
   85a0e:	f040 8082 	bne.w	85b16 <_vfiprintf_r+0x806>
   85a12:	f10d 0860 	add.w	r8, sp, #96	; 0x60
   85a16:	3d10      	subs	r5, #16
   85a18:	e7e1      	b.n	859de <_vfiprintf_r+0x6ce>
   85a1a:	9a0c      	ldr	r2, [sp, #48]	; 0x30
   85a1c:	9b0d      	ldr	r3, [sp, #52]	; 0x34
   85a1e:	1c51      	adds	r1, r2, #1
   85a20:	f8c8 5004 	str.w	r5, [r8, #4]
   85a24:	2907      	cmp	r1, #7
   85a26:	441d      	add	r5, r3
   85a28:	950d      	str	r5, [sp, #52]	; 0x34
   85a2a:	f108 0808 	add.w	r8, r8, #8
   85a2e:	910c      	str	r1, [sp, #48]	; 0x30
   85a30:	dd08      	ble.n	85a44 <_vfiprintf_r+0x734>
   85a32:	4650      	mov	r0, sl
   85a34:	4649      	mov	r1, r9
   85a36:	aa0b      	add	r2, sp, #44	; 0x2c
   85a38:	f7ff fc36 	bl	852a8 <__sprint_r>
   85a3c:	2800      	cmp	r0, #0
   85a3e:	d16a      	bne.n	85b16 <_vfiprintf_r+0x806>
   85a40:	f10d 0860 	add.w	r8, sp, #96	; 0x60
   85a44:	9a0c      	ldr	r2, [sp, #48]	; 0x30
   85a46:	980d      	ldr	r0, [sp, #52]	; 0x34
   85a48:	1c51      	adds	r1, r2, #1
   85a4a:	f8c8 4004 	str.w	r4, [r8, #4]
   85a4e:	2907      	cmp	r1, #7
   85a50:	4404      	add	r4, r0
   85a52:	f8c8 b000 	str.w	fp, [r8]
   85a56:	940d      	str	r4, [sp, #52]	; 0x34
   85a58:	f108 0308 	add.w	r3, r8, #8
   85a5c:	910c      	str	r1, [sp, #48]	; 0x30
   85a5e:	dd07      	ble.n	85a70 <_vfiprintf_r+0x760>
   85a60:	4650      	mov	r0, sl
   85a62:	4649      	mov	r1, r9
   85a64:	aa0b      	add	r2, sp, #44	; 0x2c
   85a66:	f7ff fc1f 	bl	852a8 <__sprint_r>
   85a6a:	2800      	cmp	r0, #0
   85a6c:	d153      	bne.n	85b16 <_vfiprintf_r+0x806>
   85a6e:	ab18      	add	r3, sp, #96	; 0x60
   85a70:	077a      	lsls	r2, r7, #29
   85a72:	d40b      	bmi.n	85a8c <_vfiprintf_r+0x77c>
   85a74:	9b03      	ldr	r3, [sp, #12]
   85a76:	9a02      	ldr	r2, [sp, #8]
   85a78:	9904      	ldr	r1, [sp, #16]
   85a7a:	980d      	ldr	r0, [sp, #52]	; 0x34
   85a7c:	428a      	cmp	r2, r1
   85a7e:	bfac      	ite	ge
   85a80:	189b      	addge	r3, r3, r2
   85a82:	185b      	addlt	r3, r3, r1
   85a84:	9303      	str	r3, [sp, #12]
   85a86:	2800      	cmp	r0, #0
   85a88:	d035      	beq.n	85af6 <_vfiprintf_r+0x7e6>
   85a8a:	e02e      	b.n	85aea <_vfiprintf_r+0x7da>
   85a8c:	9c04      	ldr	r4, [sp, #16]
   85a8e:	9802      	ldr	r0, [sp, #8]
   85a90:	1a24      	subs	r4, r4, r0
   85a92:	2c00      	cmp	r4, #0
   85a94:	ddee      	ble.n	85a74 <_vfiprintf_r+0x764>
   85a96:	4a1a      	ldr	r2, [pc, #104]	; (85b00 <_vfiprintf_r+0x7f0>)
   85a98:	2c10      	cmp	r4, #16
   85a9a:	601a      	str	r2, [r3, #0]
   85a9c:	dd14      	ble.n	85ac8 <_vfiprintf_r+0x7b8>
   85a9e:	980c      	ldr	r0, [sp, #48]	; 0x30
   85aa0:	2210      	movs	r2, #16
   85aa2:	990d      	ldr	r1, [sp, #52]	; 0x34
   85aa4:	605a      	str	r2, [r3, #4]
   85aa6:	1c42      	adds	r2, r0, #1
   85aa8:	3110      	adds	r1, #16
   85aaa:	3308      	adds	r3, #8
   85aac:	2a07      	cmp	r2, #7
   85aae:	910d      	str	r1, [sp, #52]	; 0x34
   85ab0:	920c      	str	r2, [sp, #48]	; 0x30
   85ab2:	dd07      	ble.n	85ac4 <_vfiprintf_r+0x7b4>
   85ab4:	4650      	mov	r0, sl
   85ab6:	4649      	mov	r1, r9
   85ab8:	aa0b      	add	r2, sp, #44	; 0x2c
   85aba:	f7ff fbf5 	bl	852a8 <__sprint_r>
   85abe:	2800      	cmp	r0, #0
   85ac0:	d129      	bne.n	85b16 <_vfiprintf_r+0x806>
   85ac2:	ab18      	add	r3, sp, #96	; 0x60
   85ac4:	3c10      	subs	r4, #16
   85ac6:	e7e6      	b.n	85a96 <_vfiprintf_r+0x786>
   85ac8:	990c      	ldr	r1, [sp, #48]	; 0x30
   85aca:	605c      	str	r4, [r3, #4]
   85acc:	9b0d      	ldr	r3, [sp, #52]	; 0x34
   85ace:	1c48      	adds	r0, r1, #1
   85ad0:	191c      	adds	r4, r3, r4
   85ad2:	2807      	cmp	r0, #7
   85ad4:	940d      	str	r4, [sp, #52]	; 0x34
   85ad6:	900c      	str	r0, [sp, #48]	; 0x30
   85ad8:	ddcc      	ble.n	85a74 <_vfiprintf_r+0x764>
   85ada:	4650      	mov	r0, sl
   85adc:	4649      	mov	r1, r9
   85ade:	aa0b      	add	r2, sp, #44	; 0x2c
   85ae0:	f7ff fbe2 	bl	852a8 <__sprint_r>
   85ae4:	2800      	cmp	r0, #0
   85ae6:	d0c5      	beq.n	85a74 <_vfiprintf_r+0x764>
   85ae8:	e015      	b.n	85b16 <_vfiprintf_r+0x806>
   85aea:	4650      	mov	r0, sl
   85aec:	4649      	mov	r1, r9
   85aee:	aa0b      	add	r2, sp, #44	; 0x2c
   85af0:	f7ff fbda 	bl	852a8 <__sprint_r>
   85af4:	b978      	cbnz	r0, 85b16 <_vfiprintf_r+0x806>
   85af6:	2500      	movs	r5, #0
   85af8:	950c      	str	r5, [sp, #48]	; 0x30
   85afa:	f10d 0860 	add.w	r8, sp, #96	; 0x60
   85afe:	e453      	b.n	853a8 <_vfiprintf_r+0x98>
   85b00:	00089b54 	.word	0x00089b54
   85b04:	00089b64 	.word	0x00089b64
   85b08:	9a0d      	ldr	r2, [sp, #52]	; 0x34
   85b0a:	b122      	cbz	r2, 85b16 <_vfiprintf_r+0x806>
   85b0c:	4650      	mov	r0, sl
   85b0e:	4649      	mov	r1, r9
   85b10:	aa0b      	add	r2, sp, #44	; 0x2c
   85b12:	f7ff fbc9 	bl	852a8 <__sprint_r>
   85b16:	f8b9 100c 	ldrh.w	r1, [r9, #12]
   85b1a:	f001 0040 	and.w	r0, r1, #64	; 0x40
   85b1e:	b203      	sxth	r3, r0
   85b20:	2b00      	cmp	r3, #0
   85b22:	f47f ac28 	bne.w	85376 <_vfiprintf_r+0x66>
   85b26:	9803      	ldr	r0, [sp, #12]
   85b28:	b029      	add	sp, #164	; 0xa4
   85b2a:	e8bd 8ff0 	ldmia.w	sp!, {r4, r5, r6, r7, r8, r9, sl, fp, pc}

00085b2e <__sbprintf>:
   85b2e:	b570      	push	{r4, r5, r6, lr}
   85b30:	460c      	mov	r4, r1
   85b32:	8989      	ldrh	r1, [r1, #12]
   85b34:	f5ad 6d8d 	sub.w	sp, sp, #1128	; 0x468
   85b38:	f021 0502 	bic.w	r5, r1, #2
   85b3c:	6e61      	ldr	r1, [r4, #100]	; 0x64
   85b3e:	f8ad 500c 	strh.w	r5, [sp, #12]
   85b42:	9119      	str	r1, [sp, #100]	; 0x64
   85b44:	89e5      	ldrh	r5, [r4, #14]
   85b46:	69e1      	ldr	r1, [r4, #28]
   85b48:	f8ad 500e 	strh.w	r5, [sp, #14]
   85b4c:	9107      	str	r1, [sp, #28]
   85b4e:	6a65      	ldr	r5, [r4, #36]	; 0x24
   85b50:	a91a      	add	r1, sp, #104	; 0x68
   85b52:	9100      	str	r1, [sp, #0]
   85b54:	9104      	str	r1, [sp, #16]
   85b56:	2100      	movs	r1, #0
   85b58:	9509      	str	r5, [sp, #36]	; 0x24
   85b5a:	9106      	str	r1, [sp, #24]
   85b5c:	f44f 6580 	mov.w	r5, #1024	; 0x400
   85b60:	4669      	mov	r1, sp
   85b62:	9502      	str	r5, [sp, #8]
   85b64:	9505      	str	r5, [sp, #20]
   85b66:	4606      	mov	r6, r0
   85b68:	f7ff fbd2 	bl	85310 <_vfiprintf_r>
   85b6c:	1e05      	subs	r5, r0, #0
   85b6e:	db07      	blt.n	85b80 <__sbprintf+0x52>
   85b70:	4630      	mov	r0, r6
   85b72:	4669      	mov	r1, sp
   85b74:	f000 fc9c 	bl	864b0 <_fflush_r>
   85b78:	2800      	cmp	r0, #0
   85b7a:	bf18      	it	ne
   85b7c:	f04f 35ff 	movne.w	r5, #4294967295
   85b80:	f8bd 300c 	ldrh.w	r3, [sp, #12]
   85b84:	f003 0040 	and.w	r0, r3, #64	; 0x40
   85b88:	b202      	sxth	r2, r0
   85b8a:	b11a      	cbz	r2, 85b94 <__sbprintf+0x66>
   85b8c:	89a1      	ldrh	r1, [r4, #12]
   85b8e:	f041 0340 	orr.w	r3, r1, #64	; 0x40
   85b92:	81a3      	strh	r3, [r4, #12]
   85b94:	4628      	mov	r0, r5
   85b96:	b01a      	add	sp, #104	; 0x68
   85b98:	f50d 6d80 	add.w	sp, sp, #1024	; 0x400
   85b9c:	bd70      	pop	{r4, r5, r6, pc}

00085b9e <vfiprintf>:
   85b9e:	b530      	push	{r4, r5, lr}
   85ba0:	4613      	mov	r3, r2
   85ba2:	4a05      	ldr	r2, [pc, #20]	; (85bb8 <vfiprintf+0x1a>)
   85ba4:	4605      	mov	r5, r0
   85ba6:	460c      	mov	r4, r1
   85ba8:	6810      	ldr	r0, [r2, #0]
   85baa:	4629      	mov	r1, r5
   85bac:	4622      	mov	r2, r4
   85bae:	e8bd 4030 	ldmia.w	sp!, {r4, r5, lr}
   85bb2:	f7ff bbad 	b.w	85310 <_vfiprintf_r>
   85bb6:	bf00      	nop
   85bb8:	20070018 	.word	0x20070018

00085bbc <__svfiscanf_r>:
   85bbc:	e92d 4ff0 	stmdb	sp!, {r4, r5, r6, r7, r8, r9, sl, fp, lr}
   85bc0:	460c      	mov	r4, r1
   85bc2:	b0d9      	sub	sp, #356	; 0x164
   85bc4:	4680      	mov	r8, r0
   85bc6:	4616      	mov	r6, r2
   85bc8:	461d      	mov	r5, r3
   85bca:	f000 fdc7 	bl	8675c <__sfp_lock_acquire>
   85bce:	89a3      	ldrh	r3, [r4, #12]
   85bd0:	f403 5200 	and.w	r2, r3, #8192	; 0x2000
   85bd4:	b210      	sxth	r0, r2
   85bd6:	b930      	cbnz	r0, 85be6 <__svfiscanf_r+0x2a>
   85bd8:	6e67      	ldr	r7, [r4, #100]	; 0x64
   85bda:	f443 5100 	orr.w	r1, r3, #8192	; 0x2000
   85bde:	f427 5300 	bic.w	r3, r7, #8192	; 0x2000
   85be2:	81a1      	strh	r1, [r4, #12]
   85be4:	6663      	str	r3, [r4, #100]	; 0x64
   85be6:	9607      	str	r6, [sp, #28]
   85be8:	2600      	movs	r6, #0
   85bea:	9605      	str	r6, [sp, #20]
   85bec:	9602      	str	r6, [sp, #8]
   85bee:	9604      	str	r6, [sp, #16]
   85bf0:	9f07      	ldr	r7, [sp, #28]
   85bf2:	f817 2b01 	ldrb.w	r2, [r7], #1
   85bf6:	9707      	str	r7, [sp, #28]
   85bf8:	9209      	str	r2, [sp, #36]	; 0x24
   85bfa:	2a00      	cmp	r2, #0
   85bfc:	f000 83ab 	beq.w	86356 <__svfiscanf_r+0x79a>
   85c00:	489f      	ldr	r0, [pc, #636]	; (85e80 <__svfiscanf_r+0x2c4>)
   85c02:	6801      	ldr	r1, [r0, #0]
   85c04:	188f      	adds	r7, r1, r2
   85c06:	f897 b001 	ldrb.w	fp, [r7, #1]
   85c0a:	f00b 0b08 	and.w	fp, fp, #8
   85c0e:	fa5f f38b 	uxtb.w	r3, fp
   85c12:	b1db      	cbz	r3, 85c4c <__svfiscanf_r+0x90>
   85c14:	6867      	ldr	r7, [r4, #4]
   85c16:	2f00      	cmp	r7, #0
   85c18:	dd11      	ble.n	85c3e <__svfiscanf_r+0x82>
   85c1a:	4999      	ldr	r1, [pc, #612]	; (85e80 <__svfiscanf_r+0x2c4>)
   85c1c:	6823      	ldr	r3, [r4, #0]
   85c1e:	6808      	ldr	r0, [r1, #0]
   85c20:	781a      	ldrb	r2, [r3, #0]
   85c22:	1887      	adds	r7, r0, r2
   85c24:	787a      	ldrb	r2, [r7, #1]
   85c26:	f002 0108 	and.w	r1, r2, #8
   85c2a:	b2c8      	uxtb	r0, r1
   85c2c:	2800      	cmp	r0, #0
   85c2e:	d0df      	beq.n	85bf0 <__svfiscanf_r+0x34>
   85c30:	6867      	ldr	r7, [r4, #4]
   85c32:	3301      	adds	r3, #1
   85c34:	1e7a      	subs	r2, r7, #1
   85c36:	3601      	adds	r6, #1
   85c38:	6062      	str	r2, [r4, #4]
   85c3a:	6023      	str	r3, [r4, #0]
   85c3c:	e7ea      	b.n	85c14 <__svfiscanf_r+0x58>
   85c3e:	4640      	mov	r0, r8
   85c40:	4621      	mov	r1, r4
   85c42:	f002 fd14 	bl	8866e <__srefill_r>
   85c46:	2800      	cmp	r0, #0
   85c48:	d0e7      	beq.n	85c1a <__svfiscanf_r+0x5e>
   85c4a:	e7d1      	b.n	85bf0 <__svfiscanf_r+0x34>
   85c4c:	2a25      	cmp	r2, #37	; 0x25
   85c4e:	d151      	bne.n	85cf4 <__svfiscanf_r+0x138>
   85c50:	9a07      	ldr	r2, [sp, #28]
   85c52:	469b      	mov	fp, r3
   85c54:	469a      	mov	sl, r3
   85c56:	9f07      	ldr	r7, [sp, #28]
   85c58:	f817 0b01 	ldrb.w	r0, [r7], #1
   85c5c:	2864      	cmp	r0, #100	; 0x64
   85c5e:	9707      	str	r7, [sp, #28]
   85c60:	f000 80be 	beq.w	85de0 <__svfiscanf_r+0x224>
   85c64:	d827      	bhi.n	85cb6 <__svfiscanf_r+0xfa>
   85c66:	284c      	cmp	r0, #76	; 0x4c
   85c68:	d069      	beq.n	85d3e <__svfiscanf_r+0x182>
   85c6a:	d811      	bhi.n	85c90 <__svfiscanf_r+0xd4>
   85c6c:	2839      	cmp	r0, #57	; 0x39
   85c6e:	d80b      	bhi.n	85c88 <__svfiscanf_r+0xcc>
   85c70:	2830      	cmp	r0, #48	; 0x30
   85c72:	d267      	bcs.n	85d44 <__svfiscanf_r+0x188>
   85c74:	2825      	cmp	r0, #37	; 0x25
   85c76:	d03d      	beq.n	85cf4 <__svfiscanf_r+0x138>
   85c78:	282a      	cmp	r0, #42	; 0x2a
   85c7a:	d054      	beq.n	85d26 <__svfiscanf_r+0x16a>
   85c7c:	2800      	cmp	r0, #0
   85c7e:	f040 80a2 	bne.w	85dc6 <__svfiscanf_r+0x20a>
   85c82:	f000 fd6c 	bl	8675e <__sfp_lock_release>
   85c86:	e35c      	b.n	86342 <__svfiscanf_r+0x786>
   85c88:	2844      	cmp	r0, #68	; 0x44
   85c8a:	f040 809c 	bne.w	85dc6 <__svfiscanf_r+0x20a>
   85c8e:	e0a0      	b.n	85dd2 <__svfiscanf_r+0x216>
   85c90:	2858      	cmp	r0, #88	; 0x58
   85c92:	d063      	beq.n	85d5c <__svfiscanf_r+0x1a0>
   85c94:	d805      	bhi.n	85ca2 <__svfiscanf_r+0xe6>
   85c96:	284f      	cmp	r0, #79	; 0x4f
   85c98:	f040 8095 	bne.w	85dc6 <__svfiscanf_r+0x20a>
   85c9c:	f04b 0b01 	orr.w	fp, fp, #1
   85ca0:	e056      	b.n	85d50 <__svfiscanf_r+0x194>
   85ca2:	285b      	cmp	r0, #91	; 0x5b
   85ca4:	d060      	beq.n	85d68 <__svfiscanf_r+0x1ac>
   85ca6:	2863      	cmp	r0, #99	; 0x63
   85ca8:	f040 808d 	bne.w	85dc6 <__svfiscanf_r+0x20a>
   85cac:	f04b 0b40 	orr.w	fp, fp, #64	; 0x40
   85cb0:	f04f 0900 	mov.w	r9, #0
   85cb4:	e09a      	b.n	85dec <__svfiscanf_r+0x230>
   85cb6:	286f      	cmp	r0, #111	; 0x6f
   85cb8:	d04a      	beq.n	85d50 <__svfiscanf_r+0x194>
   85cba:	d80e      	bhi.n	85cda <__svfiscanf_r+0x11e>
   85cbc:	2869      	cmp	r0, #105	; 0x69
   85cbe:	f000 808b 	beq.w	85dd8 <__svfiscanf_r+0x21c>
   85cc2:	d805      	bhi.n	85cd0 <__svfiscanf_r+0x114>
   85cc4:	2868      	cmp	r0, #104	; 0x68
   85cc6:	d17e      	bne.n	85dc6 <__svfiscanf_r+0x20a>
   85cc8:	f04b 0b04 	orr.w	fp, fp, #4
   85ccc:	9a07      	ldr	r2, [sp, #28]
   85cce:	e7c2      	b.n	85c56 <__svfiscanf_r+0x9a>
   85cd0:	286c      	cmp	r0, #108	; 0x6c
   85cd2:	d02b      	beq.n	85d2c <__svfiscanf_r+0x170>
   85cd4:	286e      	cmp	r0, #110	; 0x6e
   85cd6:	d176      	bne.n	85dc6 <__svfiscanf_r+0x20a>
   85cd8:	e054      	b.n	85d84 <__svfiscanf_r+0x1c8>
   85cda:	2873      	cmp	r0, #115	; 0x73
   85cdc:	d041      	beq.n	85d62 <__svfiscanf_r+0x1a6>
   85cde:	d804      	bhi.n	85cea <__svfiscanf_r+0x12e>
   85ce0:	2870      	cmp	r0, #112	; 0x70
   85ce2:	d170      	bne.n	85dc6 <__svfiscanf_r+0x20a>
   85ce4:	f44b 7b08 	orr.w	fp, fp, #544	; 0x220
   85ce8:	e048      	b.n	85d7c <__svfiscanf_r+0x1c0>
   85cea:	2875      	cmp	r0, #117	; 0x75
   85cec:	d034      	beq.n	85d58 <__svfiscanf_r+0x19c>
   85cee:	2878      	cmp	r0, #120	; 0x78
   85cf0:	d169      	bne.n	85dc6 <__svfiscanf_r+0x20a>
   85cf2:	e033      	b.n	85d5c <__svfiscanf_r+0x1a0>
   85cf4:	6867      	ldr	r7, [r4, #4]
   85cf6:	2f00      	cmp	r7, #0
   85cf8:	dd0e      	ble.n	85d18 <__svfiscanf_r+0x15c>
   85cfa:	6823      	ldr	r3, [r4, #0]
   85cfc:	9f07      	ldr	r7, [sp, #28]
   85cfe:	7819      	ldrb	r1, [r3, #0]
   85d00:	f817 2c01 	ldrb.w	r2, [r7, #-1]
   85d04:	4291      	cmp	r1, r2
   85d06:	f040 8326 	bne.w	86356 <__svfiscanf_r+0x79a>
   85d0a:	6860      	ldr	r0, [r4, #4]
   85d0c:	3301      	adds	r3, #1
   85d0e:	1e47      	subs	r7, r0, #1
   85d10:	6067      	str	r7, [r4, #4]
   85d12:	6023      	str	r3, [r4, #0]
   85d14:	3601      	adds	r6, #1
   85d16:	e76b      	b.n	85bf0 <__svfiscanf_r+0x34>
   85d18:	4640      	mov	r0, r8
   85d1a:	4621      	mov	r1, r4
   85d1c:	f002 fca7 	bl	8866e <__srefill_r>
   85d20:	2800      	cmp	r0, #0
   85d22:	d0ea      	beq.n	85cfa <__svfiscanf_r+0x13e>
   85d24:	e309      	b.n	8633a <__svfiscanf_r+0x77e>
   85d26:	f04b 0b10 	orr.w	fp, fp, #16
   85d2a:	e7cf      	b.n	85ccc <__svfiscanf_r+0x110>
   85d2c:	7853      	ldrb	r3, [r2, #1]
   85d2e:	2b6c      	cmp	r3, #108	; 0x6c
   85d30:	d102      	bne.n	85d38 <__svfiscanf_r+0x17c>
   85d32:	3202      	adds	r2, #2
   85d34:	9207      	str	r2, [sp, #28]
   85d36:	e002      	b.n	85d3e <__svfiscanf_r+0x182>
   85d38:	f04b 0b01 	orr.w	fp, fp, #1
   85d3c:	e7c6      	b.n	85ccc <__svfiscanf_r+0x110>
   85d3e:	f04b 0b02 	orr.w	fp, fp, #2
   85d42:	e7c3      	b.n	85ccc <__svfiscanf_r+0x110>
   85d44:	220a      	movs	r2, #10
   85d46:	fb02 0a0a 	mla	sl, r2, sl, r0
   85d4a:	f1aa 0a30 	sub.w	sl, sl, #48	; 0x30
   85d4e:	e7bd      	b.n	85ccc <__svfiscanf_r+0x110>
   85d50:	484c      	ldr	r0, [pc, #304]	; (85e84 <__svfiscanf_r+0x2c8>)
   85d52:	2708      	movs	r7, #8
   85d54:	9005      	str	r0, [sp, #20]
   85d56:	e046      	b.n	85de6 <__svfiscanf_r+0x22a>
   85d58:	4f4a      	ldr	r7, [pc, #296]	; (85e84 <__svfiscanf_r+0x2c8>)
   85d5a:	e042      	b.n	85de2 <__svfiscanf_r+0x226>
   85d5c:	f44b 7b00 	orr.w	fp, fp, #512	; 0x200
   85d60:	e00c      	b.n	85d7c <__svfiscanf_r+0x1c0>
   85d62:	f04f 0902 	mov.w	r9, #2
   85d66:	e041      	b.n	85dec <__svfiscanf_r+0x230>
   85d68:	a818      	add	r0, sp, #96	; 0x60
   85d6a:	9907      	ldr	r1, [sp, #28]
   85d6c:	f002 fd3a 	bl	887e4 <__sccl>
   85d70:	f04b 0b40 	orr.w	fp, fp, #64	; 0x40
   85d74:	9007      	str	r0, [sp, #28]
   85d76:	f04f 0901 	mov.w	r9, #1
   85d7a:	e037      	b.n	85dec <__svfiscanf_r+0x230>
   85d7c:	4a41      	ldr	r2, [pc, #260]	; (85e84 <__svfiscanf_r+0x2c8>)
   85d7e:	2710      	movs	r7, #16
   85d80:	9205      	str	r2, [sp, #20]
   85d82:	e030      	b.n	85de6 <__svfiscanf_r+0x22a>
   85d84:	f01b 0f10 	tst.w	fp, #16
   85d88:	f47f af32 	bne.w	85bf0 <__svfiscanf_r+0x34>
   85d8c:	f01b 0f04 	tst.w	fp, #4
   85d90:	f105 0104 	add.w	r1, r5, #4
   85d94:	d002      	beq.n	85d9c <__svfiscanf_r+0x1e0>
   85d96:	682d      	ldr	r5, [r5, #0]
   85d98:	802e      	strh	r6, [r5, #0]
   85d9a:	e004      	b.n	85da6 <__svfiscanf_r+0x1ea>
   85d9c:	f01b 0f01 	tst.w	fp, #1
   85da0:	d003      	beq.n	85daa <__svfiscanf_r+0x1ee>
   85da2:	682f      	ldr	r7, [r5, #0]
   85da4:	603e      	str	r6, [r7, #0]
   85da6:	460d      	mov	r5, r1
   85da8:	e722      	b.n	85bf0 <__svfiscanf_r+0x34>
   85daa:	f01b 0f02 	tst.w	fp, #2
   85dae:	f105 0704 	add.w	r7, r5, #4
   85db2:	d004      	beq.n	85dbe <__svfiscanf_r+0x202>
   85db4:	682a      	ldr	r2, [r5, #0]
   85db6:	17f0      	asrs	r0, r6, #31
   85db8:	6016      	str	r6, [r2, #0]
   85dba:	6050      	str	r0, [r2, #4]
   85dbc:	e001      	b.n	85dc2 <__svfiscanf_r+0x206>
   85dbe:	682d      	ldr	r5, [r5, #0]
   85dc0:	602e      	str	r6, [r5, #0]
   85dc2:	463d      	mov	r5, r7
   85dc4:	e714      	b.n	85bf0 <__svfiscanf_r+0x34>
   85dc6:	180f      	adds	r7, r1, r0
   85dc8:	787b      	ldrb	r3, [r7, #1]
   85dca:	f003 0103 	and.w	r1, r3, #3
   85dce:	2901      	cmp	r1, #1
   85dd0:	d106      	bne.n	85de0 <__svfiscanf_r+0x224>
   85dd2:	f04b 0b01 	orr.w	fp, fp, #1
   85dd6:	e003      	b.n	85de0 <__svfiscanf_r+0x224>
   85dd8:	482b      	ldr	r0, [pc, #172]	; (85e88 <__svfiscanf_r+0x2cc>)
   85dda:	2700      	movs	r7, #0
   85ddc:	9005      	str	r0, [sp, #20]
   85dde:	e002      	b.n	85de6 <__svfiscanf_r+0x22a>
   85de0:	4f29      	ldr	r7, [pc, #164]	; (85e88 <__svfiscanf_r+0x2cc>)
   85de2:	9705      	str	r7, [sp, #20]
   85de4:	270a      	movs	r7, #10
   85de6:	9702      	str	r7, [sp, #8]
   85de8:	f04f 0903 	mov.w	r9, #3
   85dec:	6863      	ldr	r3, [r4, #4]
   85dee:	2b00      	cmp	r3, #0
   85df0:	dd03      	ble.n	85dfa <__svfiscanf_r+0x23e>
   85df2:	f01b 0f40 	tst.w	fp, #64	; 0x40
   85df6:	d122      	bne.n	85e3e <__svfiscanf_r+0x282>
   85df8:	e00e      	b.n	85e18 <__svfiscanf_r+0x25c>
   85dfa:	4640      	mov	r0, r8
   85dfc:	4621      	mov	r1, r4
   85dfe:	f002 fc36 	bl	8866e <__srefill_r>
   85e02:	2800      	cmp	r0, #0
   85e04:	d0f5      	beq.n	85df2 <__svfiscanf_r+0x236>
   85e06:	e298      	b.n	8633a <__svfiscanf_r+0x77e>
   85e08:	6863      	ldr	r3, [r4, #4]
   85e0a:	3601      	adds	r6, #1
   85e0c:	1e5a      	subs	r2, r3, #1
   85e0e:	2a00      	cmp	r2, #0
   85e10:	6062      	str	r2, [r4, #4]
   85e12:	dd0d      	ble.n	85e30 <__svfiscanf_r+0x274>
   85e14:	3001      	adds	r0, #1
   85e16:	6020      	str	r0, [r4, #0]
   85e18:	4919      	ldr	r1, [pc, #100]	; (85e80 <__svfiscanf_r+0x2c4>)
   85e1a:	6820      	ldr	r0, [r4, #0]
   85e1c:	680b      	ldr	r3, [r1, #0]
   85e1e:	7802      	ldrb	r2, [r0, #0]
   85e20:	189a      	adds	r2, r3, r2
   85e22:	7851      	ldrb	r1, [r2, #1]
   85e24:	f001 0308 	and.w	r3, r1, #8
   85e28:	b2da      	uxtb	r2, r3
   85e2a:	2a00      	cmp	r2, #0
   85e2c:	d1ec      	bne.n	85e08 <__svfiscanf_r+0x24c>
   85e2e:	e006      	b.n	85e3e <__svfiscanf_r+0x282>
   85e30:	4640      	mov	r0, r8
   85e32:	4621      	mov	r1, r4
   85e34:	f002 fc1b 	bl	8866e <__srefill_r>
   85e38:	2800      	cmp	r0, #0
   85e3a:	d0ed      	beq.n	85e18 <__svfiscanf_r+0x25c>
   85e3c:	e27d      	b.n	8633a <__svfiscanf_r+0x77e>
   85e3e:	f1b9 0f02 	cmp.w	r9, #2
   85e42:	f000 80e6 	beq.w	86012 <__svfiscanf_r+0x456>
   85e46:	f1b9 0f03 	cmp.w	r9, #3
   85e4a:	f000 81aa 	beq.w	861a2 <__svfiscanf_r+0x5e6>
   85e4e:	f1b9 0f01 	cmp.w	r9, #1
   85e52:	f000 808a 	beq.w	85f6a <__svfiscanf_r+0x3ae>
   85e56:	f1ba 0f00 	cmp.w	sl, #0
   85e5a:	bf08      	it	eq
   85e5c:	f04f 0a01 	moveq.w	sl, #1
   85e60:	f01b 0901 	ands.w	r9, fp, #1
   85e64:	d054      	beq.n	85f10 <__svfiscanf_r+0x354>
   85e66:	2100      	movs	r1, #0
   85e68:	2208      	movs	r2, #8
   85e6a:	a80a      	add	r0, sp, #40	; 0x28
   85e6c:	f7fe fb99 	bl	845a2 <memset>
   85e70:	f01b 0710 	ands.w	r7, fp, #16
   85e74:	d10a      	bne.n	85e8c <__svfiscanf_r+0x2d0>
   85e76:	f8d5 9000 	ldr.w	r9, [r5]
   85e7a:	3504      	adds	r5, #4
   85e7c:	e008      	b.n	85e90 <__svfiscanf_r+0x2d4>
   85e7e:	bf00      	nop
   85e80:	20070470 	.word	0x20070470
   85e84:	00088ba9 	.word	0x00088ba9
   85e88:	000888f1 	.word	0x000888f1
   85e8c:	f04f 0900 	mov.w	r9, #0
   85e90:	f04f 0b00 	mov.w	fp, #0
   85e94:	f001 fb5e 	bl	87554 <__locale_mb_cur_max>
   85e98:	4583      	cmp	fp, r0
   85e9a:	f000 824e 	beq.w	8633a <__svfiscanf_r+0x77e>
   85e9e:	6820      	ldr	r0, [r4, #0]
   85ea0:	6863      	ldr	r3, [r4, #4]
   85ea2:	f810 1b01 	ldrb.w	r1, [r0], #1
   85ea6:	aa0e      	add	r2, sp, #56	; 0x38
   85ea8:	f802 100b 	strb.w	r1, [r2, fp]
   85eac:	6020      	str	r0, [r4, #0]
   85eae:	1e59      	subs	r1, r3, #1
   85eb0:	a80a      	add	r0, sp, #40	; 0x28
   85eb2:	f10b 0b01 	add.w	fp, fp, #1
   85eb6:	6061      	str	r1, [r4, #4]
   85eb8:	9000      	str	r0, [sp, #0]
   85eba:	4649      	mov	r1, r9
   85ebc:	4640      	mov	r0, r8
   85ebe:	465b      	mov	r3, fp
   85ec0:	f001 fde4 	bl	87a8c <_mbrtowc_r>
   85ec4:	1c42      	adds	r2, r0, #1
   85ec6:	f000 8238 	beq.w	8633a <__svfiscanf_r+0x77e>
   85eca:	b918      	cbnz	r0, 85ed4 <__svfiscanf_r+0x318>
   85ecc:	b927      	cbnz	r7, 85ed8 <__svfiscanf_r+0x31c>
   85ece:	f8c9 7000 	str.w	r7, [r9]
   85ed2:	e001      	b.n	85ed8 <__svfiscanf_r+0x31c>
   85ed4:	3002      	adds	r0, #2
   85ed6:	d007      	beq.n	85ee8 <__svfiscanf_r+0x32c>
   85ed8:	445e      	add	r6, fp
   85eda:	f10a 3aff 	add.w	sl, sl, #4294967295
   85ede:	b90f      	cbnz	r7, 85ee4 <__svfiscanf_r+0x328>
   85ee0:	f109 0904 	add.w	r9, r9, #4
   85ee4:	f04f 0b00 	mov.w	fp, #0
   85ee8:	6862      	ldr	r2, [r4, #4]
   85eea:	2a00      	cmp	r2, #0
   85eec:	dc0c      	bgt.n	85f08 <__svfiscanf_r+0x34c>
   85eee:	4640      	mov	r0, r8
   85ef0:	4621      	mov	r1, r4
   85ef2:	f002 fbbc 	bl	8866e <__srefill_r>
   85ef6:	b138      	cbz	r0, 85f08 <__svfiscanf_r+0x34c>
   85ef8:	f1bb 0f00 	cmp.w	fp, #0
   85efc:	f040 821d 	bne.w	8633a <__svfiscanf_r+0x77e>
   85f00:	2f00      	cmp	r7, #0
   85f02:	f000 80fa 	beq.w	860fa <__svfiscanf_r+0x53e>
   85f06:	e673      	b.n	85bf0 <__svfiscanf_r+0x34>
   85f08:	f1ba 0f00 	cmp.w	sl, #0
   85f0c:	d1c2      	bne.n	85e94 <__svfiscanf_r+0x2d8>
   85f0e:	e7f7      	b.n	85f00 <__svfiscanf_r+0x344>
   85f10:	f01b 0f10 	tst.w	fp, #16
   85f14:	d01b      	beq.n	85f4e <__svfiscanf_r+0x392>
   85f16:	6867      	ldr	r7, [r4, #4]
   85f18:	6820      	ldr	r0, [r4, #0]
   85f1a:	4557      	cmp	r7, sl
   85f1c:	da0f      	bge.n	85f3e <__svfiscanf_r+0x382>
   85f1e:	19c2      	adds	r2, r0, r7
   85f20:	6022      	str	r2, [r4, #0]
   85f22:	4640      	mov	r0, r8
   85f24:	4621      	mov	r1, r4
   85f26:	44b9      	add	r9, r7
   85f28:	ebc7 0a0a 	rsb	sl, r7, sl
   85f2c:	f002 fb9f 	bl	8866e <__srefill_r>
   85f30:	2800      	cmp	r0, #0
   85f32:	d0f0      	beq.n	85f16 <__svfiscanf_r+0x35a>
   85f34:	f1b9 0f00 	cmp.w	r9, #0
   85f38:	f040 81fd 	bne.w	86336 <__svfiscanf_r+0x77a>
   85f3c:	e1fd      	b.n	8633a <__svfiscanf_r+0x77e>
   85f3e:	ebca 0107 	rsb	r1, sl, r7
   85f42:	eb00 030a 	add.w	r3, r0, sl
   85f46:	44d1      	add	r9, sl
   85f48:	6061      	str	r1, [r4, #4]
   85f4a:	6023      	str	r3, [r4, #0]
   85f4c:	e1f3      	b.n	86336 <__svfiscanf_r+0x77a>
   85f4e:	9400      	str	r4, [sp, #0]
   85f50:	4640      	mov	r0, r8
   85f52:	6829      	ldr	r1, [r5, #0]
   85f54:	2201      	movs	r2, #1
   85f56:	4653      	mov	r3, sl
   85f58:	f105 0904 	add.w	r9, r5, #4
   85f5c:	f000 fc8a 	bl	86874 <_fread_r>
   85f60:	2800      	cmp	r0, #0
   85f62:	f000 81ea 	beq.w	8633a <__svfiscanf_r+0x77e>
   85f66:	1986      	adds	r6, r0, r6
   85f68:	e116      	b.n	86198 <__svfiscanf_r+0x5dc>
   85f6a:	f1ba 0f00 	cmp.w	sl, #0
   85f6e:	bf08      	it	eq
   85f70:	f04f 3aff 	moveq.w	sl, #4294967295
   85f74:	f01b 0f10 	tst.w	fp, #16
   85f78:	d01e      	beq.n	85fb8 <__svfiscanf_r+0x3fc>
   85f7a:	f04f 0900 	mov.w	r9, #0
   85f7e:	6823      	ldr	r3, [r4, #0]
   85f80:	a818      	add	r0, sp, #96	; 0x60
   85f82:	781a      	ldrb	r2, [r3, #0]
   85f84:	5c81      	ldrb	r1, [r0, r2]
   85f86:	b191      	cbz	r1, 85fae <__svfiscanf_r+0x3f2>
   85f88:	6862      	ldr	r2, [r4, #4]
   85f8a:	f109 0901 	add.w	r9, r9, #1
   85f8e:	1e50      	subs	r0, r2, #1
   85f90:	3301      	adds	r3, #1
   85f92:	45ca      	cmp	sl, r9
   85f94:	6060      	str	r0, [r4, #4]
   85f96:	6023      	str	r3, [r4, #0]
   85f98:	f000 81cd 	beq.w	86336 <__svfiscanf_r+0x77a>
   85f9c:	2800      	cmp	r0, #0
   85f9e:	dcee      	bgt.n	85f7e <__svfiscanf_r+0x3c2>
   85fa0:	4640      	mov	r0, r8
   85fa2:	4621      	mov	r1, r4
   85fa4:	f002 fb63 	bl	8866e <__srefill_r>
   85fa8:	2800      	cmp	r0, #0
   85faa:	d0e8      	beq.n	85f7e <__svfiscanf_r+0x3c2>
   85fac:	e1c3      	b.n	86336 <__svfiscanf_r+0x77a>
   85fae:	f1b9 0f00 	cmp.w	r9, #0
   85fb2:	f040 81c0 	bne.w	86336 <__svfiscanf_r+0x77a>
   85fb6:	e1ce      	b.n	86356 <__svfiscanf_r+0x79a>
   85fb8:	f8d5 9000 	ldr.w	r9, [r5]
   85fbc:	f105 0b04 	add.w	fp, r5, #4
   85fc0:	464d      	mov	r5, r9
   85fc2:	6823      	ldr	r3, [r4, #0]
   85fc4:	a918      	add	r1, sp, #96	; 0x60
   85fc6:	7818      	ldrb	r0, [r3, #0]
   85fc8:	5c0a      	ldrb	r2, [r1, r0]
   85fca:	b1ba      	cbz	r2, 85ffc <__svfiscanf_r+0x440>
   85fcc:	6860      	ldr	r0, [r4, #4]
   85fce:	1e41      	subs	r1, r0, #1
   85fd0:	6061      	str	r1, [r4, #4]
   85fd2:	f813 2b01 	ldrb.w	r2, [r3], #1
   85fd6:	f805 2b01 	strb.w	r2, [r5], #1
   85fda:	6023      	str	r3, [r4, #0]
   85fdc:	eb09 030a 	add.w	r3, r9, sl
   85fe0:	42ab      	cmp	r3, r5
   85fe2:	d00b      	beq.n	85ffc <__svfiscanf_r+0x440>
   85fe4:	6860      	ldr	r0, [r4, #4]
   85fe6:	2800      	cmp	r0, #0
   85fe8:	dceb      	bgt.n	85fc2 <__svfiscanf_r+0x406>
   85fea:	4640      	mov	r0, r8
   85fec:	4621      	mov	r1, r4
   85fee:	f002 fb3e 	bl	8866e <__srefill_r>
   85ff2:	2800      	cmp	r0, #0
   85ff4:	d0e5      	beq.n	85fc2 <__svfiscanf_r+0x406>
   85ff6:	454d      	cmp	r5, r9
   85ff8:	f000 819f 	beq.w	8633a <__svfiscanf_r+0x77e>
   85ffc:	ebb5 0909 	subs.w	r9, r5, r9
   86000:	f000 81a9 	beq.w	86356 <__svfiscanf_r+0x79a>
   86004:	2700      	movs	r7, #0
   86006:	702f      	strb	r7, [r5, #0]
   86008:	9d04      	ldr	r5, [sp, #16]
   8600a:	1c69      	adds	r1, r5, #1
   8600c:	9104      	str	r1, [sp, #16]
   8600e:	465d      	mov	r5, fp
   86010:	e191      	b.n	86336 <__svfiscanf_r+0x77a>
   86012:	f1ba 0f00 	cmp.w	sl, #0
   86016:	bf08      	it	eq
   86018:	f04f 3aff 	moveq.w	sl, #4294967295
   8601c:	f01b 0901 	ands.w	r9, fp, #1
   86020:	d06f      	beq.n	86102 <__svfiscanf_r+0x546>
   86022:	2100      	movs	r1, #0
   86024:	2208      	movs	r2, #8
   86026:	a80c      	add	r0, sp, #48	; 0x30
   86028:	f7fe fabb 	bl	845a2 <memset>
   8602c:	f01b 0710 	ands.w	r7, fp, #16
   86030:	d103      	bne.n	8603a <__svfiscanf_r+0x47e>
   86032:	f8d5 9000 	ldr.w	r9, [r5]
   86036:	3504      	adds	r5, #4
   86038:	e001      	b.n	8603e <__svfiscanf_r+0x482>
   8603a:	f10d 0924 	add.w	r9, sp, #36	; 0x24
   8603e:	f04f 0b00 	mov.w	fp, #0
   86042:	6822      	ldr	r2, [r4, #0]
   86044:	4990      	ldr	r1, [pc, #576]	; (86288 <__svfiscanf_r+0x6cc>)
   86046:	7813      	ldrb	r3, [r2, #0]
   86048:	6808      	ldr	r0, [r1, #0]
   8604a:	18c2      	adds	r2, r0, r3
   8604c:	7853      	ldrb	r3, [r2, #1]
   8604e:	f003 0108 	and.w	r1, r3, #8
   86052:	b2c8      	uxtb	r0, r1
   86054:	2800      	cmp	r0, #0
   86056:	d14b      	bne.n	860f0 <__svfiscanf_r+0x534>
   86058:	f1ba 0f00 	cmp.w	sl, #0
   8605c:	d048      	beq.n	860f0 <__svfiscanf_r+0x534>
   8605e:	f001 fa79 	bl	87554 <__locale_mb_cur_max>
   86062:	4583      	cmp	fp, r0
   86064:	f000 8169 	beq.w	8633a <__svfiscanf_r+0x77e>
   86068:	6823      	ldr	r3, [r4, #0]
   8606a:	6860      	ldr	r0, [r4, #4]
   8606c:	f813 1b01 	ldrb.w	r1, [r3], #1
   86070:	aa0e      	add	r2, sp, #56	; 0x38
   86072:	f802 100b 	strb.w	r1, [r2, fp]
   86076:	6023      	str	r3, [r4, #0]
   86078:	1e41      	subs	r1, r0, #1
   8607a:	ab0c      	add	r3, sp, #48	; 0x30
   8607c:	f10b 0b01 	add.w	fp, fp, #1
   86080:	6061      	str	r1, [r4, #4]
   86082:	9300      	str	r3, [sp, #0]
   86084:	4640      	mov	r0, r8
   86086:	465b      	mov	r3, fp
   86088:	4649      	mov	r1, r9
   8608a:	f001 fcff 	bl	87a8c <_mbrtowc_r>
   8608e:	1c43      	adds	r3, r0, #1
   86090:	f000 8153 	beq.w	8633a <__svfiscanf_r+0x77e>
   86094:	b910      	cbnz	r0, 8609c <__svfiscanf_r+0x4e0>
   86096:	f8c9 0000 	str.w	r0, [r9]
   8609a:	e001      	b.n	860a0 <__svfiscanf_r+0x4e4>
   8609c:	3002      	adds	r0, #2
   8609e:	d01a      	beq.n	860d6 <__svfiscanf_r+0x51a>
   860a0:	f8d9 0000 	ldr.w	r0, [r9]
   860a4:	f001 fa22 	bl	874ec <iswspace>
   860a8:	b160      	cbz	r0, 860c4 <__svfiscanf_r+0x508>
   860aa:	f1bb 0f00 	cmp.w	fp, #0
   860ae:	d01f      	beq.n	860f0 <__svfiscanf_r+0x534>
   860b0:	f10b 3bff 	add.w	fp, fp, #4294967295
   860b4:	a90e      	add	r1, sp, #56	; 0x38
   860b6:	4640      	mov	r0, r8
   860b8:	f811 100b 	ldrb.w	r1, [r1, fp]
   860bc:	4622      	mov	r2, r4
   860be:	f002 feea 	bl	88e96 <_ungetc_r>
   860c2:	e7f2      	b.n	860aa <__svfiscanf_r+0x4ee>
   860c4:	445e      	add	r6, fp
   860c6:	f10a 3aff 	add.w	sl, sl, #4294967295
   860ca:	b91f      	cbnz	r7, 860d4 <__svfiscanf_r+0x518>
   860cc:	f109 0904 	add.w	r9, r9, #4
   860d0:	46bb      	mov	fp, r7
   860d2:	e000      	b.n	860d6 <__svfiscanf_r+0x51a>
   860d4:	4683      	mov	fp, r0
   860d6:	6862      	ldr	r2, [r4, #4]
   860d8:	2a00      	cmp	r2, #0
   860da:	dcb2      	bgt.n	86042 <__svfiscanf_r+0x486>
   860dc:	4640      	mov	r0, r8
   860de:	4621      	mov	r1, r4
   860e0:	f002 fac5 	bl	8866e <__srefill_r>
   860e4:	2800      	cmp	r0, #0
   860e6:	d0ac      	beq.n	86042 <__svfiscanf_r+0x486>
   860e8:	f1bb 0f00 	cmp.w	fp, #0
   860ec:	f040 8125 	bne.w	8633a <__svfiscanf_r+0x77e>
   860f0:	2f00      	cmp	r7, #0
   860f2:	f47f ad7d 	bne.w	85bf0 <__svfiscanf_r+0x34>
   860f6:	f8c9 7000 	str.w	r7, [r9]
   860fa:	9f04      	ldr	r7, [sp, #16]
   860fc:	1c78      	adds	r0, r7, #1
   860fe:	9004      	str	r0, [sp, #16]
   86100:	e576      	b.n	85bf0 <__svfiscanf_r+0x34>
   86102:	f01b 0f10 	tst.w	fp, #16
   86106:	d01e      	beq.n	86146 <__svfiscanf_r+0x58a>
   86108:	4a5f      	ldr	r2, [pc, #380]	; (86288 <__svfiscanf_r+0x6cc>)
   8610a:	6820      	ldr	r0, [r4, #0]
   8610c:	6813      	ldr	r3, [r2, #0]
   8610e:	7807      	ldrb	r7, [r0, #0]
   86110:	19d9      	adds	r1, r3, r7
   86112:	784f      	ldrb	r7, [r1, #1]
   86114:	f007 0208 	and.w	r2, r7, #8
   86118:	b2d3      	uxtb	r3, r2
   8611a:	2b00      	cmp	r3, #0
   8611c:	f040 810b 	bne.w	86336 <__svfiscanf_r+0x77a>
   86120:	6861      	ldr	r1, [r4, #4]
   86122:	f109 0901 	add.w	r9, r9, #1
   86126:	1e4f      	subs	r7, r1, #1
   86128:	3001      	adds	r0, #1
   8612a:	45ca      	cmp	sl, r9
   8612c:	6067      	str	r7, [r4, #4]
   8612e:	6020      	str	r0, [r4, #0]
   86130:	f000 8101 	beq.w	86336 <__svfiscanf_r+0x77a>
   86134:	2f00      	cmp	r7, #0
   86136:	dce7      	bgt.n	86108 <__svfiscanf_r+0x54c>
   86138:	4640      	mov	r0, r8
   8613a:	4621      	mov	r1, r4
   8613c:	f002 fa97 	bl	8866e <__srefill_r>
   86140:	2800      	cmp	r0, #0
   86142:	d0e1      	beq.n	86108 <__svfiscanf_r+0x54c>
   86144:	e0f7      	b.n	86336 <__svfiscanf_r+0x77a>
   86146:	f8d5 b000 	ldr.w	fp, [r5]
   8614a:	f105 0904 	add.w	r9, r5, #4
   8614e:	465d      	mov	r5, fp
   86150:	494d      	ldr	r1, [pc, #308]	; (86288 <__svfiscanf_r+0x6cc>)
   86152:	6820      	ldr	r0, [r4, #0]
   86154:	680f      	ldr	r7, [r1, #0]
   86156:	7803      	ldrb	r3, [r0, #0]
   86158:	18fa      	adds	r2, r7, r3
   8615a:	7853      	ldrb	r3, [r2, #1]
   8615c:	f003 0108 	and.w	r1, r3, #8
   86160:	b2cf      	uxtb	r7, r1
   86162:	b9a7      	cbnz	r7, 8618e <__svfiscanf_r+0x5d2>
   86164:	6862      	ldr	r2, [r4, #4]
   86166:	1e53      	subs	r3, r2, #1
   86168:	6063      	str	r3, [r4, #4]
   8616a:	f810 1b01 	ldrb.w	r1, [r0], #1
   8616e:	f805 1b01 	strb.w	r1, [r5], #1
   86172:	6020      	str	r0, [r4, #0]
   86174:	eb0b 000a 	add.w	r0, fp, sl
   86178:	42a8      	cmp	r0, r5
   8617a:	d008      	beq.n	8618e <__svfiscanf_r+0x5d2>
   8617c:	6867      	ldr	r7, [r4, #4]
   8617e:	2f00      	cmp	r7, #0
   86180:	dce6      	bgt.n	86150 <__svfiscanf_r+0x594>
   86182:	4640      	mov	r0, r8
   86184:	4621      	mov	r1, r4
   86186:	f002 fa72 	bl	8866e <__srefill_r>
   8618a:	2800      	cmp	r0, #0
   8618c:	d0e0      	beq.n	86150 <__svfiscanf_r+0x594>
   8618e:	2200      	movs	r2, #0
   86190:	702a      	strb	r2, [r5, #0]
   86192:	ebcb 0505 	rsb	r5, fp, r5
   86196:	1976      	adds	r6, r6, r5
   86198:	9b04      	ldr	r3, [sp, #16]
   8619a:	464d      	mov	r5, r9
   8619c:	1c59      	adds	r1, r3, #1
   8619e:	9104      	str	r1, [sp, #16]
   861a0:	e526      	b.n	85bf0 <__svfiscanf_r+0x34>
   861a2:	f10a 33ff 	add.w	r3, sl, #4294967295
   861a6:	2b26      	cmp	r3, #38	; 0x26
   861a8:	bf86      	itte	hi
   861aa:	f1aa 0327 	subhi.w	r3, sl, #39	; 0x27
   861ae:	f04f 0a27 	movhi.w	sl, #39	; 0x27
   861b2:	2300      	movls	r3, #0
   861b4:	2700      	movs	r7, #0
   861b6:	f44b 6b58 	orr.w	fp, fp, #3456	; 0xd80
   861ba:	9706      	str	r7, [sp, #24]
   861bc:	f10d 0938 	add.w	r9, sp, #56	; 0x38
   861c0:	6821      	ldr	r1, [r4, #0]
   861c2:	780a      	ldrb	r2, [r1, #0]
   861c4:	2a39      	cmp	r2, #57	; 0x39
   861c6:	d809      	bhi.n	861dc <__svfiscanf_r+0x620>
   861c8:	2a38      	cmp	r2, #56	; 0x38
   861ca:	d235      	bcs.n	86238 <__svfiscanf_r+0x67c>
   861cc:	2a30      	cmp	r2, #48	; 0x30
   861ce:	d014      	beq.n	861fa <__svfiscanf_r+0x63e>
   861d0:	d82c      	bhi.n	8622c <__svfiscanf_r+0x670>
   861d2:	2a2b      	cmp	r2, #43	; 0x2b
   861d4:	d03d      	beq.n	86252 <__svfiscanf_r+0x696>
   861d6:	2a2d      	cmp	r2, #45	; 0x2d
   861d8:	d164      	bne.n	862a4 <__svfiscanf_r+0x6e8>
   861da:	e03a      	b.n	86252 <__svfiscanf_r+0x696>
   861dc:	2a58      	cmp	r2, #88	; 0x58
   861de:	d03e      	beq.n	8625e <__svfiscanf_r+0x6a2>
   861e0:	d804      	bhi.n	861ec <__svfiscanf_r+0x630>
   861e2:	f1a2 0041 	sub.w	r0, r2, #65	; 0x41
   861e6:	2805      	cmp	r0, #5
   861e8:	d85c      	bhi.n	862a4 <__svfiscanf_r+0x6e8>
   861ea:	e02c      	b.n	86246 <__svfiscanf_r+0x68a>
   861ec:	2a61      	cmp	r2, #97	; 0x61
   861ee:	d359      	bcc.n	862a4 <__svfiscanf_r+0x6e8>
   861f0:	2a66      	cmp	r2, #102	; 0x66
   861f2:	d928      	bls.n	86246 <__svfiscanf_r+0x68a>
   861f4:	2a78      	cmp	r2, #120	; 0x78
   861f6:	d155      	bne.n	862a4 <__svfiscanf_r+0x6e8>
   861f8:	e031      	b.n	8625e <__svfiscanf_r+0x6a2>
   861fa:	f41b 6f00 	tst.w	fp, #2048	; 0x800
   861fe:	d039      	beq.n	86274 <__svfiscanf_r+0x6b8>
   86200:	9f02      	ldr	r7, [sp, #8]
   86202:	b91f      	cbnz	r7, 8620c <__svfiscanf_r+0x650>
   86204:	2708      	movs	r7, #8
   86206:	f44b 7b00 	orr.w	fp, fp, #512	; 0x200
   8620a:	9702      	str	r7, [sp, #8]
   8620c:	f41b 6f80 	tst.w	fp, #1024	; 0x400
   86210:	d002      	beq.n	86218 <__svfiscanf_r+0x65c>
   86212:	f42b 6bb0 	bic.w	fp, fp, #1408	; 0x580
   86216:	e02d      	b.n	86274 <__svfiscanf_r+0x6b8>
   86218:	f42b 7b60 	bic.w	fp, fp, #896	; 0x380
   8621c:	b113      	cbz	r3, 86224 <__svfiscanf_r+0x668>
   8621e:	3b01      	subs	r3, #1
   86220:	f10a 0a01 	add.w	sl, sl, #1
   86224:	9f06      	ldr	r7, [sp, #24]
   86226:	3701      	adds	r7, #1
   86228:	9706      	str	r7, [sp, #24]
   8622a:	e025      	b.n	86278 <__svfiscanf_r+0x6bc>
   8622c:	9f02      	ldr	r7, [sp, #8]
   8622e:	4817      	ldr	r0, [pc, #92]	; (8628c <__svfiscanf_r+0x6d0>)
   86230:	f930 0017 	ldrsh.w	r0, [r0, r7, lsl #1]
   86234:	9002      	str	r0, [sp, #8]
   86236:	e009      	b.n	8624c <__svfiscanf_r+0x690>
   86238:	9f02      	ldr	r7, [sp, #8]
   8623a:	4814      	ldr	r0, [pc, #80]	; (8628c <__svfiscanf_r+0x6d0>)
   8623c:	f930 0017 	ldrsh.w	r0, [r0, r7, lsl #1]
   86240:	9002      	str	r0, [sp, #8]
   86242:	2808      	cmp	r0, #8
   86244:	e001      	b.n	8624a <__svfiscanf_r+0x68e>
   86246:	9f02      	ldr	r7, [sp, #8]
   86248:	2f0a      	cmp	r7, #10
   8624a:	dd2b      	ble.n	862a4 <__svfiscanf_r+0x6e8>
   8624c:	f42b 6b38 	bic.w	fp, fp, #2944	; 0xb80
   86250:	e010      	b.n	86274 <__svfiscanf_r+0x6b8>
   86252:	f01b 0f80 	tst.w	fp, #128	; 0x80
   86256:	d025      	beq.n	862a4 <__svfiscanf_r+0x6e8>
   86258:	f02b 0b80 	bic.w	fp, fp, #128	; 0x80
   8625c:	e00a      	b.n	86274 <__svfiscanf_r+0x6b8>
   8625e:	f40b 60c0 	and.w	r0, fp, #1536	; 0x600
   86262:	f5b0 7f00 	cmp.w	r0, #512	; 0x200
   86266:	d11d      	bne.n	862a4 <__svfiscanf_r+0x6e8>
   86268:	f42b 7c00 	bic.w	ip, fp, #512	; 0x200
   8626c:	2710      	movs	r7, #16
   8626e:	f44c 6ba0 	orr.w	fp, ip, #1280	; 0x500
   86272:	9702      	str	r7, [sp, #8]
   86274:	f809 2b01 	strb.w	r2, [r9], #1
   86278:	6862      	ldr	r2, [r4, #4]
   8627a:	1e50      	subs	r0, r2, #1
   8627c:	2800      	cmp	r0, #0
   8627e:	6060      	str	r0, [r4, #4]
   86280:	dd06      	ble.n	86290 <__svfiscanf_r+0x6d4>
   86282:	3101      	adds	r1, #1
   86284:	6021      	str	r1, [r4, #0]
   86286:	e00a      	b.n	8629e <__svfiscanf_r+0x6e2>
   86288:	20070470 	.word	0x20070470
   8628c:	00089b96 	.word	0x00089b96
   86290:	4640      	mov	r0, r8
   86292:	4621      	mov	r1, r4
   86294:	9303      	str	r3, [sp, #12]
   86296:	f002 f9ea 	bl	8866e <__srefill_r>
   8629a:	9b03      	ldr	r3, [sp, #12]
   8629c:	b910      	cbnz	r0, 862a4 <__svfiscanf_r+0x6e8>
   8629e:	f1ba 0a01 	subs.w	sl, sl, #1
   862a2:	d18d      	bne.n	861c0 <__svfiscanf_r+0x604>
   862a4:	f41b 7f80 	tst.w	fp, #256	; 0x100
   862a8:	d00e      	beq.n	862c8 <__svfiscanf_r+0x70c>
   862aa:	aa0e      	add	r2, sp, #56	; 0x38
   862ac:	4591      	cmp	r9, r2
   862ae:	d908      	bls.n	862c2 <__svfiscanf_r+0x706>
   862b0:	f819 1c01 	ldrb.w	r1, [r9, #-1]
   862b4:	4640      	mov	r0, r8
   862b6:	4622      	mov	r2, r4
   862b8:	f002 fded 	bl	88e96 <_ungetc_r>
   862bc:	f109 3aff 	add.w	sl, r9, #4294967295
   862c0:	46d1      	mov	r9, sl
   862c2:	a80e      	add	r0, sp, #56	; 0x38
   862c4:	4581      	cmp	r9, r0
   862c6:	d046      	beq.n	86356 <__svfiscanf_r+0x79a>
   862c8:	f01b 0210 	ands.w	r2, fp, #16
   862cc:	d12e      	bne.n	8632c <__svfiscanf_r+0x770>
   862ce:	9b02      	ldr	r3, [sp, #8]
   862d0:	4640      	mov	r0, r8
   862d2:	a90e      	add	r1, sp, #56	; 0x38
   862d4:	9f05      	ldr	r7, [sp, #20]
   862d6:	f889 2000 	strb.w	r2, [r9]
   862da:	47b8      	blx	r7
   862dc:	f01b 0f20 	tst.w	fp, #32
   862e0:	f105 0304 	add.w	r3, r5, #4
   862e4:	d11c      	bne.n	86320 <__svfiscanf_r+0x764>
   862e6:	f01b 0f04 	tst.w	fp, #4
   862ea:	d002      	beq.n	862f2 <__svfiscanf_r+0x736>
   862ec:	682d      	ldr	r5, [r5, #0]
   862ee:	8028      	strh	r0, [r5, #0]
   862f0:	e018      	b.n	86324 <__svfiscanf_r+0x768>
   862f2:	f01b 0201 	ands.w	r2, fp, #1
   862f6:	d113      	bne.n	86320 <__svfiscanf_r+0x764>
   862f8:	f01b 0f02 	tst.w	fp, #2
   862fc:	d010      	beq.n	86320 <__svfiscanf_r+0x764>
   862fe:	4b19      	ldr	r3, [pc, #100]	; (86364 <__svfiscanf_r+0x7a8>)
   86300:	9f05      	ldr	r7, [sp, #20]
   86302:	4640      	mov	r0, r8
   86304:	429f      	cmp	r7, r3
   86306:	a90e      	add	r1, sp, #56	; 0x38
   86308:	9b02      	ldr	r3, [sp, #8]
   8630a:	d102      	bne.n	86312 <__svfiscanf_r+0x756>
   8630c:	f002 fcd8 	bl	88cc0 <_strtoull_r>
   86310:	e001      	b.n	86316 <__svfiscanf_r+0x75a>
   86312:	f002 fb81 	bl	88a18 <_strtoll_r>
   86316:	682a      	ldr	r2, [r5, #0]
   86318:	3504      	adds	r5, #4
   8631a:	e882 0003 	stmia.w	r2, {r0, r1}
   8631e:	e002      	b.n	86326 <__svfiscanf_r+0x76a>
   86320:	6829      	ldr	r1, [r5, #0]
   86322:	6008      	str	r0, [r1, #0]
   86324:	461d      	mov	r5, r3
   86326:	9804      	ldr	r0, [sp, #16]
   86328:	1c43      	adds	r3, r0, #1
   8632a:	9304      	str	r3, [sp, #16]
   8632c:	af0e      	add	r7, sp, #56	; 0x38
   8632e:	9a06      	ldr	r2, [sp, #24]
   86330:	ebc7 0909 	rsb	r9, r7, r9
   86334:	4491      	add	r9, r2
   86336:	444e      	add	r6, r9
   86338:	e45a      	b.n	85bf0 <__svfiscanf_r+0x34>
   8633a:	f000 fa10 	bl	8675e <__sfp_lock_release>
   8633e:	9f04      	ldr	r7, [sp, #16]
   86340:	b91f      	cbnz	r7, 8634a <__svfiscanf_r+0x78e>
   86342:	f04f 37ff 	mov.w	r7, #4294967295
   86346:	9704      	str	r7, [sp, #16]
   86348:	e007      	b.n	8635a <__svfiscanf_r+0x79e>
   8634a:	89a1      	ldrh	r1, [r4, #12]
   8634c:	f001 0240 	and.w	r2, r1, #64	; 0x40
   86350:	b210      	sxth	r0, r2
   86352:	b110      	cbz	r0, 8635a <__svfiscanf_r+0x79e>
   86354:	e7f5      	b.n	86342 <__svfiscanf_r+0x786>
   86356:	f000 fa02 	bl	8675e <__sfp_lock_release>
   8635a:	9804      	ldr	r0, [sp, #16]
   8635c:	b059      	add	sp, #356	; 0x164
   8635e:	e8bd 8ff0 	ldmia.w	sp!, {r4, r5, r6, r7, r8, r9, sl, fp, pc}
   86362:	bf00      	nop
   86364:	00088ba9 	.word	0x00088ba9

00086368 <_vfiscanf_r>:
   86368:	e92d 41f0 	stmdb	sp!, {r4, r5, r6, r7, r8, lr}
   8636c:	4688      	mov	r8, r1
   8636e:	4617      	mov	r7, r2
   86370:	461e      	mov	r6, r3
   86372:	4604      	mov	r4, r0
   86374:	b118      	cbz	r0, 8637e <_vfiscanf_r+0x16>
   86376:	6b85      	ldr	r5, [r0, #56]	; 0x38
   86378:	b90d      	cbnz	r5, 8637e <_vfiscanf_r+0x16>
   8637a:	f000 f98b 	bl	86694 <__sinit>
   8637e:	4620      	mov	r0, r4
   86380:	4641      	mov	r1, r8
   86382:	463a      	mov	r2, r7
   86384:	4633      	mov	r3, r6
   86386:	e8bd 41f0 	ldmia.w	sp!, {r4, r5, r6, r7, r8, lr}
   8638a:	f7ff bc17 	b.w	85bbc <__svfiscanf_r>

0008638e <__svfiscanf>:
   8638e:	b530      	push	{r4, r5, lr}
   86390:	4613      	mov	r3, r2
   86392:	4a05      	ldr	r2, [pc, #20]	; (863a8 <__svfiscanf+0x1a>)
   86394:	4605      	mov	r5, r0
   86396:	460c      	mov	r4, r1
   86398:	6810      	ldr	r0, [r2, #0]
   8639a:	4629      	mov	r1, r5
   8639c:	4622      	mov	r2, r4
   8639e:	e8bd 4030 	ldmia.w	sp!, {r4, r5, lr}
   863a2:	f7ff bc0b 	b.w	85bbc <__svfiscanf_r>
   863a6:	bf00      	nop
   863a8:	20070018 	.word	0x20070018

000863ac <vfiscanf>:
   863ac:	e92d 41f0 	stmdb	sp!, {r4, r5, r6, r7, r8, lr}
   863b0:	4c08      	ldr	r4, [pc, #32]	; (863d4 <vfiscanf+0x28>)
   863b2:	4680      	mov	r8, r0
   863b4:	6820      	ldr	r0, [r4, #0]
   863b6:	460f      	mov	r7, r1
   863b8:	4616      	mov	r6, r2
   863ba:	b118      	cbz	r0, 863c4 <vfiscanf+0x18>
   863bc:	6b85      	ldr	r5, [r0, #56]	; 0x38
   863be:	b90d      	cbnz	r5, 863c4 <vfiscanf+0x18>
   863c0:	f000 f968 	bl	86694 <__sinit>
   863c4:	6820      	ldr	r0, [r4, #0]
   863c6:	4641      	mov	r1, r8
   863c8:	463a      	mov	r2, r7
   863ca:	4633      	mov	r3, r6
   863cc:	e8bd 41f0 	ldmia.w	sp!, {r4, r5, r6, r7, r8, lr}
   863d0:	f7ff bbf4 	b.w	85bbc <__svfiscanf_r>
   863d4:	20070018 	.word	0x20070018

000863d8 <__swsetup_r>:
   863d8:	b538      	push	{r3, r4, r5, lr}
   863da:	4b2c      	ldr	r3, [pc, #176]	; (8648c <__swsetup_r+0xb4>)
   863dc:	4605      	mov	r5, r0
   863de:	6818      	ldr	r0, [r3, #0]
   863e0:	460c      	mov	r4, r1
   863e2:	b118      	cbz	r0, 863ec <__swsetup_r+0x14>
   863e4:	6b82      	ldr	r2, [r0, #56]	; 0x38
   863e6:	b90a      	cbnz	r2, 863ec <__swsetup_r+0x14>
   863e8:	f000 f954 	bl	86694 <__sinit>
   863ec:	89a0      	ldrh	r0, [r4, #12]
   863ee:	f000 0108 	and.w	r1, r0, #8
   863f2:	b20b      	sxth	r3, r1
   863f4:	bb0b      	cbnz	r3, 8643a <__swsetup_r+0x62>
   863f6:	f000 0210 	and.w	r2, r0, #16
   863fa:	b211      	sxth	r1, r2
   863fc:	b911      	cbnz	r1, 86404 <__swsetup_r+0x2c>
   863fe:	f04f 30ff 	mov.w	r0, #4294967295
   86402:	bd38      	pop	{r3, r4, r5, pc}
   86404:	f000 0004 	and.w	r0, r0, #4
   86408:	b203      	sxth	r3, r0
   8640a:	b193      	cbz	r3, 86432 <__swsetup_r+0x5a>
   8640c:	6b21      	ldr	r1, [r4, #48]	; 0x30
   8640e:	b141      	cbz	r1, 86422 <__swsetup_r+0x4a>
   86410:	f104 0240 	add.w	r2, r4, #64	; 0x40
   86414:	4291      	cmp	r1, r2
   86416:	d002      	beq.n	8641e <__swsetup_r+0x46>
   86418:	4628      	mov	r0, r5
   8641a:	f000 fad7 	bl	869cc <_free_r>
   8641e:	2100      	movs	r1, #0
   86420:	6321      	str	r1, [r4, #48]	; 0x30
   86422:	89a0      	ldrh	r0, [r4, #12]
   86424:	6921      	ldr	r1, [r4, #16]
   86426:	f020 0324 	bic.w	r3, r0, #36	; 0x24
   8642a:	2200      	movs	r2, #0
   8642c:	81a3      	strh	r3, [r4, #12]
   8642e:	6062      	str	r2, [r4, #4]
   86430:	6021      	str	r1, [r4, #0]
   86432:	89a0      	ldrh	r0, [r4, #12]
   86434:	f040 0308 	orr.w	r3, r0, #8
   86438:	81a3      	strh	r3, [r4, #12]
   8643a:	6922      	ldr	r2, [r4, #16]
   8643c:	b94a      	cbnz	r2, 86452 <__swsetup_r+0x7a>
   8643e:	89a1      	ldrh	r1, [r4, #12]
   86440:	f401 7020 	and.w	r0, r1, #640	; 0x280
   86444:	f5b0 7f00 	cmp.w	r0, #512	; 0x200
   86448:	d003      	beq.n	86452 <__swsetup_r+0x7a>
   8644a:	4628      	mov	r0, r5
   8644c:	4621      	mov	r1, r4
   8644e:	f001 f89f 	bl	87590 <__smakebuf_r>
   86452:	89a3      	ldrh	r3, [r4, #12]
   86454:	f013 0201 	ands.w	r2, r3, #1
   86458:	d005      	beq.n	86466 <__swsetup_r+0x8e>
   8645a:	6961      	ldr	r1, [r4, #20]
   8645c:	2200      	movs	r2, #0
   8645e:	4248      	negs	r0, r1
   86460:	60a2      	str	r2, [r4, #8]
   86462:	61a0      	str	r0, [r4, #24]
   86464:	e007      	b.n	86476 <__swsetup_r+0x9e>
   86466:	f003 0102 	and.w	r1, r3, #2
   8646a:	b208      	sxth	r0, r1
   8646c:	b908      	cbnz	r0, 86472 <__swsetup_r+0x9a>
   8646e:	6963      	ldr	r3, [r4, #20]
   86470:	e000      	b.n	86474 <__swsetup_r+0x9c>
   86472:	4613      	mov	r3, r2
   86474:	60a3      	str	r3, [r4, #8]
   86476:	6923      	ldr	r3, [r4, #16]
   86478:	b933      	cbnz	r3, 86488 <__swsetup_r+0xb0>
   8647a:	89a2      	ldrh	r2, [r4, #12]
   8647c:	f002 0180 	and.w	r1, r2, #128	; 0x80
   86480:	b208      	sxth	r0, r1
   86482:	2800      	cmp	r0, #0
   86484:	d1bb      	bne.n	863fe <__swsetup_r+0x26>
   86486:	bd38      	pop	{r3, r4, r5, pc}
   86488:	2000      	movs	r0, #0
   8648a:	bd38      	pop	{r3, r4, r5, pc}
   8648c:	20070018 	.word	0x20070018

00086490 <register_fini>:
   86490:	4b02      	ldr	r3, [pc, #8]	; (8649c <register_fini+0xc>)
   86492:	b113      	cbz	r3, 8649a <register_fini+0xa>
   86494:	4802      	ldr	r0, [pc, #8]	; (864a0 <register_fini+0x10>)
   86496:	f000 b805 	b.w	864a4 <atexit>
   8649a:	4770      	bx	lr
   8649c:	00000000 	.word	0x00000000
   864a0:	00084499 	.word	0x00084499

000864a4 <atexit>:
   864a4:	4601      	mov	r1, r0
   864a6:	2000      	movs	r0, #0
   864a8:	4602      	mov	r2, r0
   864aa:	4603      	mov	r3, r0
   864ac:	f7fd bfa2 	b.w	843f4 <__register_exitproc>

000864b0 <_fflush_r>:
   864b0:	e92d 41f0 	stmdb	sp!, {r4, r5, r6, r7, r8, lr}
   864b4:	460c      	mov	r4, r1
   864b6:	4605      	mov	r5, r0
   864b8:	b118      	cbz	r0, 864c2 <_fflush_r+0x12>
   864ba:	6b83      	ldr	r3, [r0, #56]	; 0x38
   864bc:	b90b      	cbnz	r3, 864c2 <_fflush_r+0x12>
   864be:	f000 f8e9 	bl	86694 <__sinit>
   864c2:	89a2      	ldrh	r2, [r4, #12]
   864c4:	b332      	cbz	r2, 86514 <_fflush_r+0x64>
   864c6:	f002 0008 	and.w	r0, r2, #8
   864ca:	b201      	sxth	r1, r0
   864cc:	2900      	cmp	r1, #0
   864ce:	d162      	bne.n	86596 <_fflush_r+0xe6>
   864d0:	6861      	ldr	r1, [r4, #4]
   864d2:	f442 6000 	orr.w	r0, r2, #2048	; 0x800
   864d6:	2900      	cmp	r1, #0
   864d8:	81a0      	strh	r0, [r4, #12]
   864da:	dc02      	bgt.n	864e2 <_fflush_r+0x32>
   864dc:	6be3      	ldr	r3, [r4, #60]	; 0x3c
   864de:	2b00      	cmp	r3, #0
   864e0:	dd18      	ble.n	86514 <_fflush_r+0x64>
   864e2:	6aa6      	ldr	r6, [r4, #40]	; 0x28
   864e4:	b1b6      	cbz	r6, 86514 <_fflush_r+0x64>
   864e6:	f402 5280 	and.w	r2, r2, #4096	; 0x1000
   864ea:	2000      	movs	r0, #0
   864ec:	b212      	sxth	r2, r2
   864ee:	682f      	ldr	r7, [r5, #0]
   864f0:	6028      	str	r0, [r5, #0]
   864f2:	b10a      	cbz	r2, 864f8 <_fflush_r+0x48>
   864f4:	6d22      	ldr	r2, [r4, #80]	; 0x50
   864f6:	e010      	b.n	8651a <_fflush_r+0x6a>
   864f8:	2301      	movs	r3, #1
   864fa:	4628      	mov	r0, r5
   864fc:	69e1      	ldr	r1, [r4, #28]
   864fe:	47b0      	blx	r6
   86500:	4602      	mov	r2, r0
   86502:	3001      	adds	r0, #1
   86504:	d109      	bne.n	8651a <_fflush_r+0x6a>
   86506:	6829      	ldr	r1, [r5, #0]
   86508:	b139      	cbz	r1, 8651a <_fflush_r+0x6a>
   8650a:	291d      	cmp	r1, #29
   8650c:	d001      	beq.n	86512 <_fflush_r+0x62>
   8650e:	2916      	cmp	r1, #22
   86510:	d14e      	bne.n	865b0 <_fflush_r+0x100>
   86512:	602f      	str	r7, [r5, #0]
   86514:	2000      	movs	r0, #0
   86516:	e8bd 81f0 	ldmia.w	sp!, {r4, r5, r6, r7, r8, pc}
   8651a:	89a6      	ldrh	r6, [r4, #12]
   8651c:	f006 0104 	and.w	r1, r6, #4
   86520:	b20b      	sxth	r3, r1
   86522:	b12b      	cbz	r3, 86530 <_fflush_r+0x80>
   86524:	6860      	ldr	r0, [r4, #4]
   86526:	6b26      	ldr	r6, [r4, #48]	; 0x30
   86528:	1a12      	subs	r2, r2, r0
   8652a:	b10e      	cbz	r6, 86530 <_fflush_r+0x80>
   8652c:	6be1      	ldr	r1, [r4, #60]	; 0x3c
   8652e:	1a52      	subs	r2, r2, r1
   86530:	69e1      	ldr	r1, [r4, #28]
   86532:	2300      	movs	r3, #0
   86534:	6aa6      	ldr	r6, [r4, #40]	; 0x28
   86536:	4628      	mov	r0, r5
   86538:	47b0      	blx	r6
   8653a:	1c41      	adds	r1, r0, #1
   8653c:	d105      	bne.n	8654a <_fflush_r+0x9a>
   8653e:	682a      	ldr	r2, [r5, #0]
   86540:	b11a      	cbz	r2, 8654a <_fflush_r+0x9a>
   86542:	2a1d      	cmp	r2, #29
   86544:	d001      	beq.n	8654a <_fflush_r+0x9a>
   86546:	2a16      	cmp	r2, #22
   86548:	d11f      	bne.n	8658a <_fflush_r+0xda>
   8654a:	89a3      	ldrh	r3, [r4, #12]
   8654c:	2100      	movs	r1, #0
   8654e:	f423 6200 	bic.w	r2, r3, #2048	; 0x800
   86552:	81a2      	strh	r2, [r4, #12]
   86554:	f403 5380 	and.w	r3, r3, #4096	; 0x1000
   86558:	6922      	ldr	r2, [r4, #16]
   8655a:	6061      	str	r1, [r4, #4]
   8655c:	b219      	sxth	r1, r3
   8655e:	6022      	str	r2, [r4, #0]
   86560:	b121      	cbz	r1, 8656c <_fflush_r+0xbc>
   86562:	1c42      	adds	r2, r0, #1
   86564:	d101      	bne.n	8656a <_fflush_r+0xba>
   86566:	682a      	ldr	r2, [r5, #0]
   86568:	b902      	cbnz	r2, 8656c <_fflush_r+0xbc>
   8656a:	6520      	str	r0, [r4, #80]	; 0x50
   8656c:	6b21      	ldr	r1, [r4, #48]	; 0x30
   8656e:	602f      	str	r7, [r5, #0]
   86570:	2900      	cmp	r1, #0
   86572:	d0cf      	beq.n	86514 <_fflush_r+0x64>
   86574:	f104 0040 	add.w	r0, r4, #64	; 0x40
   86578:	4281      	cmp	r1, r0
   8657a:	d002      	beq.n	86582 <_fflush_r+0xd2>
   8657c:	4628      	mov	r0, r5
   8657e:	f000 fa25 	bl	869cc <_free_r>
   86582:	2000      	movs	r0, #0
   86584:	6320      	str	r0, [r4, #48]	; 0x30
   86586:	e8bd 81f0 	ldmia.w	sp!, {r4, r5, r6, r7, r8, pc}
   8658a:	89a3      	ldrh	r3, [r4, #12]
   8658c:	f043 0140 	orr.w	r1, r3, #64	; 0x40
   86590:	81a1      	strh	r1, [r4, #12]
   86592:	e8bd 81f0 	ldmia.w	sp!, {r4, r5, r6, r7, r8, pc}
   86596:	6926      	ldr	r6, [r4, #16]
   86598:	2e00      	cmp	r6, #0
   8659a:	d0bb      	beq.n	86514 <_fflush_r+0x64>
   8659c:	0792      	lsls	r2, r2, #30
   8659e:	6823      	ldr	r3, [r4, #0]
   865a0:	bf0c      	ite	eq
   865a2:	6962      	ldreq	r2, [r4, #20]
   865a4:	2200      	movne	r2, #0
   865a6:	ebc6 0803 	rsb	r8, r6, r3
   865aa:	6026      	str	r6, [r4, #0]
   865ac:	60a2      	str	r2, [r4, #8]
   865ae:	e012      	b.n	865d6 <_fflush_r+0x126>
   865b0:	89a3      	ldrh	r3, [r4, #12]
   865b2:	f043 0040 	orr.w	r0, r3, #64	; 0x40
   865b6:	81a0      	strh	r0, [r4, #12]
   865b8:	f04f 30ff 	mov.w	r0, #4294967295
   865bc:	e8bd 81f0 	ldmia.w	sp!, {r4, r5, r6, r7, r8, pc}
   865c0:	6a67      	ldr	r7, [r4, #36]	; 0x24
   865c2:	4628      	mov	r0, r5
   865c4:	69e1      	ldr	r1, [r4, #28]
   865c6:	4632      	mov	r2, r6
   865c8:	4643      	mov	r3, r8
   865ca:	47b8      	blx	r7
   865cc:	2800      	cmp	r0, #0
   865ce:	ddef      	ble.n	865b0 <_fflush_r+0x100>
   865d0:	1836      	adds	r6, r6, r0
   865d2:	ebc0 0808 	rsb	r8, r0, r8
   865d6:	f1b8 0f00 	cmp.w	r8, #0
   865da:	dcf1      	bgt.n	865c0 <_fflush_r+0x110>
   865dc:	e79a      	b.n	86514 <_fflush_r+0x64>

000865de <fflush>:
   865de:	4601      	mov	r1, r0
   865e0:	b920      	cbnz	r0, 865ec <fflush+0xe>
   865e2:	4804      	ldr	r0, [pc, #16]	; (865f4 <fflush+0x16>)
   865e4:	4904      	ldr	r1, [pc, #16]	; (865f8 <fflush+0x1a>)
   865e6:	6800      	ldr	r0, [r0, #0]
   865e8:	f000 bc22 	b.w	86e30 <_fwalk_reent>
   865ec:	4b03      	ldr	r3, [pc, #12]	; (865fc <fflush+0x1e>)
   865ee:	6818      	ldr	r0, [r3, #0]
   865f0:	f7ff bf5e 	b.w	864b0 <_fflush_r>
   865f4:	00089b14 	.word	0x00089b14
   865f8:	000864b1 	.word	0x000864b1
   865fc:	20070018 	.word	0x20070018

00086600 <__fp_lock>:
   86600:	2000      	movs	r0, #0
   86602:	4770      	bx	lr

00086604 <__fp_unlock>:
   86604:	2000      	movs	r0, #0
   86606:	4770      	bx	lr

00086608 <_cleanup_r>:
   86608:	4901      	ldr	r1, [pc, #4]	; (86610 <_cleanup_r+0x8>)
   8660a:	f000 bbf0 	b.w	86dee <_fwalk>
   8660e:	bf00      	nop
   86610:	00089209 	.word	0x00089209

00086614 <std.isra.0>:
   86614:	2300      	movs	r3, #0
   86616:	b510      	push	{r4, lr}
   86618:	4604      	mov	r4, r0
   8661a:	6003      	str	r3, [r0, #0]
   8661c:	6043      	str	r3, [r0, #4]
   8661e:	6083      	str	r3, [r0, #8]
   86620:	8181      	strh	r1, [r0, #12]
   86622:	6643      	str	r3, [r0, #100]	; 0x64
   86624:	81c2      	strh	r2, [r0, #14]
   86626:	6103      	str	r3, [r0, #16]
   86628:	6143      	str	r3, [r0, #20]
   8662a:	6183      	str	r3, [r0, #24]
   8662c:	4619      	mov	r1, r3
   8662e:	2208      	movs	r2, #8
   86630:	f100 005c 	add.w	r0, r0, #92	; 0x5c
   86634:	f7fd ffb5 	bl	845a2 <memset>
   86638:	4804      	ldr	r0, [pc, #16]	; (8664c <std.isra.0+0x38>)
   8663a:	4905      	ldr	r1, [pc, #20]	; (86650 <std.isra.0+0x3c>)
   8663c:	4a05      	ldr	r2, [pc, #20]	; (86654 <std.isra.0+0x40>)
   8663e:	4b06      	ldr	r3, [pc, #24]	; (86658 <std.isra.0+0x44>)
   86640:	61e4      	str	r4, [r4, #28]
   86642:	6220      	str	r0, [r4, #32]
   86644:	6261      	str	r1, [r4, #36]	; 0x24
   86646:	62a2      	str	r2, [r4, #40]	; 0x28
   86648:	62e3      	str	r3, [r4, #44]	; 0x2c
   8664a:	bd10      	pop	{r4, pc}
   8664c:	0008884d 	.word	0x0008884d
   86650:	00088873 	.word	0x00088873
   86654:	000888af 	.word	0x000888af
   86658:	000888d3 	.word	0x000888d3

0008665c <__sfmoreglue>:
   8665c:	b570      	push	{r4, r5, r6, lr}
   8665e:	2568      	movs	r5, #104	; 0x68
   86660:	434d      	muls	r5, r1
   86662:	460e      	mov	r6, r1
   86664:	f105 010c 	add.w	r1, r5, #12
   86668:	f001 f80e 	bl	87688 <_malloc_r>
   8666c:	4604      	mov	r4, r0
   8666e:	b140      	cbz	r0, 86682 <__sfmoreglue+0x26>
   86670:	f100 000c 	add.w	r0, r0, #12
   86674:	2100      	movs	r1, #0
   86676:	e884 0042 	stmia.w	r4, {r1, r6}
   8667a:	60a0      	str	r0, [r4, #8]
   8667c:	462a      	mov	r2, r5
   8667e:	f7fd ff90 	bl	845a2 <memset>
   86682:	4620      	mov	r0, r4
   86684:	bd70      	pop	{r4, r5, r6, pc}

00086686 <_cleanup>:
   86686:	4b02      	ldr	r3, [pc, #8]	; (86690 <_cleanup+0xa>)
   86688:	6818      	ldr	r0, [r3, #0]
   8668a:	f7ff bfbd 	b.w	86608 <_cleanup_r>
   8668e:	bf00      	nop
   86690:	00089b14 	.word	0x00089b14

00086694 <__sinit>:
   86694:	b538      	push	{r3, r4, r5, lr}
   86696:	6b83      	ldr	r3, [r0, #56]	; 0x38
   86698:	4604      	mov	r4, r0
   8669a:	b9eb      	cbnz	r3, 866d8 <__sinit+0x44>
   8669c:	4a0f      	ldr	r2, [pc, #60]	; (866dc <__sinit+0x48>)
   8669e:	2501      	movs	r5, #1
   866a0:	f8c0 32e0 	str.w	r3, [r0, #736]	; 0x2e0
   866a4:	63c2      	str	r2, [r0, #60]	; 0x3c
   866a6:	6385      	str	r5, [r0, #56]	; 0x38
   866a8:	f504 713b 	add.w	r1, r4, #748	; 0x2ec
   866ac:	2003      	movs	r0, #3
   866ae:	461a      	mov	r2, r3
   866b0:	f8c4 02e4 	str.w	r0, [r4, #740]	; 0x2e4
   866b4:	f8c4 12e8 	str.w	r1, [r4, #744]	; 0x2e8
   866b8:	6860      	ldr	r0, [r4, #4]
   866ba:	2104      	movs	r1, #4
   866bc:	f7ff ffaa 	bl	86614 <std.isra.0>
   866c0:	68a0      	ldr	r0, [r4, #8]
   866c2:	2109      	movs	r1, #9
   866c4:	462a      	mov	r2, r5
   866c6:	f7ff ffa5 	bl	86614 <std.isra.0>
   866ca:	68e0      	ldr	r0, [r4, #12]
   866cc:	2112      	movs	r1, #18
   866ce:	2202      	movs	r2, #2
   866d0:	e8bd 4038 	ldmia.w	sp!, {r3, r4, r5, lr}
   866d4:	f7ff bf9e 	b.w	86614 <std.isra.0>
   866d8:	bd38      	pop	{r3, r4, r5, pc}
   866da:	bf00      	nop
   866dc:	00086609 	.word	0x00086609

000866e0 <__sfp>:
   866e0:	b5f8      	push	{r3, r4, r5, r6, r7, lr}
   866e2:	4b1d      	ldr	r3, [pc, #116]	; (86758 <__sfp+0x78>)
   866e4:	4607      	mov	r7, r0
   866e6:	681e      	ldr	r6, [r3, #0]
   866e8:	6bb0      	ldr	r0, [r6, #56]	; 0x38
   866ea:	b910      	cbnz	r0, 866f2 <__sfp+0x12>
   866ec:	4630      	mov	r0, r6
   866ee:	f7ff ffd1 	bl	86694 <__sinit>
   866f2:	f506 7638 	add.w	r6, r6, #736	; 0x2e0
   866f6:	68b4      	ldr	r4, [r6, #8]
   866f8:	6871      	ldr	r1, [r6, #4]
   866fa:	3901      	subs	r1, #1
   866fc:	d404      	bmi.n	86708 <__sfp+0x28>
   866fe:	f9b4 500c 	ldrsh.w	r5, [r4, #12]
   86702:	b185      	cbz	r5, 86726 <__sfp+0x46>
   86704:	3468      	adds	r4, #104	; 0x68
   86706:	e7f8      	b.n	866fa <__sfp+0x1a>
   86708:	6832      	ldr	r2, [r6, #0]
   8670a:	b10a      	cbz	r2, 86710 <__sfp+0x30>
   8670c:	6836      	ldr	r6, [r6, #0]
   8670e:	e7f2      	b.n	866f6 <__sfp+0x16>
   86710:	4638      	mov	r0, r7
   86712:	2104      	movs	r1, #4
   86714:	f7ff ffa2 	bl	8665c <__sfmoreglue>
   86718:	6030      	str	r0, [r6, #0]
   8671a:	2800      	cmp	r0, #0
   8671c:	d1f6      	bne.n	8670c <__sfp+0x2c>
   8671e:	240c      	movs	r4, #12
   86720:	603c      	str	r4, [r7, #0]
   86722:	4604      	mov	r4, r0
   86724:	e015      	b.n	86752 <__sfp+0x72>
   86726:	f64f 73ff 	movw	r3, #65535	; 0xffff
   8672a:	2001      	movs	r0, #1
   8672c:	81a0      	strh	r0, [r4, #12]
   8672e:	81e3      	strh	r3, [r4, #14]
   86730:	6665      	str	r5, [r4, #100]	; 0x64
   86732:	6025      	str	r5, [r4, #0]
   86734:	60a5      	str	r5, [r4, #8]
   86736:	6065      	str	r5, [r4, #4]
   86738:	6125      	str	r5, [r4, #16]
   8673a:	6165      	str	r5, [r4, #20]
   8673c:	61a5      	str	r5, [r4, #24]
   8673e:	f104 005c 	add.w	r0, r4, #92	; 0x5c
   86742:	4629      	mov	r1, r5
   86744:	2208      	movs	r2, #8
   86746:	f7fd ff2c 	bl	845a2 <memset>
   8674a:	6325      	str	r5, [r4, #48]	; 0x30
   8674c:	6365      	str	r5, [r4, #52]	; 0x34
   8674e:	6465      	str	r5, [r4, #68]	; 0x44
   86750:	64a5      	str	r5, [r4, #72]	; 0x48
   86752:	4620      	mov	r0, r4
   86754:	bdf8      	pop	{r3, r4, r5, r6, r7, pc}
   86756:	bf00      	nop
   86758:	00089b14 	.word	0x00089b14

0008675c <__sfp_lock_acquire>:
   8675c:	4770      	bx	lr

0008675e <__sfp_lock_release>:
   8675e:	4770      	bx	lr

00086760 <__sinit_lock_acquire>:
   86760:	4770      	bx	lr

00086762 <__sinit_lock_release>:
   86762:	4770      	bx	lr

00086764 <__fp_lock_all>:
   86764:	4b02      	ldr	r3, [pc, #8]	; (86770 <__fp_lock_all+0xc>)
   86766:	4903      	ldr	r1, [pc, #12]	; (86774 <__fp_lock_all+0x10>)
   86768:	6818      	ldr	r0, [r3, #0]
   8676a:	f000 bb40 	b.w	86dee <_fwalk>
   8676e:	bf00      	nop
   86770:	20070018 	.word	0x20070018
   86774:	00086601 	.word	0x00086601

00086778 <__fp_unlock_all>:
   86778:	4b02      	ldr	r3, [pc, #8]	; (86784 <__fp_unlock_all+0xc>)
   8677a:	4903      	ldr	r1, [pc, #12]	; (86788 <__fp_unlock_all+0x10>)
   8677c:	6818      	ldr	r0, [r3, #0]
   8677e:	f000 bb36 	b.w	86dee <_fwalk>
   86782:	bf00      	nop
   86784:	20070018 	.word	0x20070018
   86788:	00086605 	.word	0x00086605

0008678c <_fputwc_r>:
   8678c:	8993      	ldrh	r3, [r2, #12]
   8678e:	e92d 41f3 	stmdb	sp!, {r0, r1, r4, r5, r6, r7, r8, lr}
   86792:	4614      	mov	r4, r2
   86794:	f403 5200 	and.w	r2, r3, #8192	; 0x2000
   86798:	4680      	mov	r8, r0
   8679a:	b210      	sxth	r0, r2
   8679c:	460e      	mov	r6, r1
   8679e:	b930      	cbnz	r0, 867ae <_fputwc_r+0x22>
   867a0:	6e67      	ldr	r7, [r4, #100]	; 0x64
   867a2:	f443 5100 	orr.w	r1, r3, #8192	; 0x2000
   867a6:	f447 5300 	orr.w	r3, r7, #8192	; 0x2000
   867aa:	81a1      	strh	r1, [r4, #12]
   867ac:	6663      	str	r3, [r4, #100]	; 0x64
   867ae:	f000 fed1 	bl	87554 <__locale_mb_cur_max>
   867b2:	2801      	cmp	r0, #1
   867b4:	d106      	bne.n	867c4 <_fputwc_r+0x38>
   867b6:	b12e      	cbz	r6, 867c4 <_fputwc_r+0x38>
   867b8:	2eff      	cmp	r6, #255	; 0xff
   867ba:	d803      	bhi.n	867c4 <_fputwc_r+0x38>
   867bc:	f88d 6004 	strb.w	r6, [sp, #4]
   867c0:	4607      	mov	r7, r0
   867c2:	e00f      	b.n	867e4 <_fputwc_r+0x58>
   867c4:	4632      	mov	r2, r6
   867c6:	4640      	mov	r0, r8
   867c8:	a901      	add	r1, sp, #4
   867ca:	f104 035c 	add.w	r3, r4, #92	; 0x5c
   867ce:	f002 fc33 	bl	89038 <_wcrtomb_r>
   867d2:	1c42      	adds	r2, r0, #1
   867d4:	4607      	mov	r7, r0
   867d6:	d105      	bne.n	867e4 <_fputwc_r+0x58>
   867d8:	89a2      	ldrh	r2, [r4, #12]
   867da:	f042 0040 	orr.w	r0, r2, #64	; 0x40
   867de:	81a0      	strh	r0, [r4, #12]
   867e0:	4638      	mov	r0, r7
   867e2:	e031      	b.n	86848 <_fputwc_r+0xbc>
   867e4:	2500      	movs	r5, #0
   867e6:	42bd      	cmp	r5, r7
   867e8:	d02a      	beq.n	86840 <_fputwc_r+0xb4>
   867ea:	68a1      	ldr	r1, [r4, #8]
   867ec:	ab01      	add	r3, sp, #4
   867ee:	1e4a      	subs	r2, r1, #1
   867f0:	2a00      	cmp	r2, #0
   867f2:	60a2      	str	r2, [r4, #8]
   867f4:	da1a      	bge.n	8682c <_fputwc_r+0xa0>
   867f6:	69a0      	ldr	r0, [r4, #24]
   867f8:	4282      	cmp	r2, r0
   867fa:	db0c      	blt.n	86816 <_fputwc_r+0x8a>
   867fc:	6821      	ldr	r1, [r4, #0]
   867fe:	5d5a      	ldrb	r2, [r3, r5]
   86800:	700a      	strb	r2, [r1, #0]
   86802:	6823      	ldr	r3, [r4, #0]
   86804:	7819      	ldrb	r1, [r3, #0]
   86806:	290a      	cmp	r1, #10
   86808:	d003      	beq.n	86812 <_fputwc_r+0x86>
   8680a:	3301      	adds	r3, #1
   8680c:	2200      	movs	r2, #0
   8680e:	6023      	str	r3, [r4, #0]
   86810:	e013      	b.n	8683a <_fputwc_r+0xae>
   86812:	4640      	mov	r0, r8
   86814:	e001      	b.n	8681a <_fputwc_r+0x8e>
   86816:	5d59      	ldrb	r1, [r3, r5]
   86818:	4640      	mov	r0, r8
   8681a:	4622      	mov	r2, r4
   8681c:	f002 fbb2 	bl	88f84 <__swbuf_r>
   86820:	f1b0 31ff 	subs.w	r1, r0, #4294967295
   86824:	4248      	negs	r0, r1
   86826:	eb50 0201 	adcs.w	r2, r0, r1
   8682a:	e006      	b.n	8683a <_fputwc_r+0xae>
   8682c:	6820      	ldr	r0, [r4, #0]
   8682e:	5d59      	ldrb	r1, [r3, r5]
   86830:	7001      	strb	r1, [r0, #0]
   86832:	6822      	ldr	r2, [r4, #0]
   86834:	1c53      	adds	r3, r2, #1
   86836:	6023      	str	r3, [r4, #0]
   86838:	e000      	b.n	8683c <_fputwc_r+0xb0>
   8683a:	b91a      	cbnz	r2, 86844 <_fputwc_r+0xb8>
   8683c:	3501      	adds	r5, #1
   8683e:	e7d2      	b.n	867e6 <_fputwc_r+0x5a>
   86840:	4630      	mov	r0, r6
   86842:	e001      	b.n	86848 <_fputwc_r+0xbc>
   86844:	f04f 30ff 	mov.w	r0, #4294967295
   86848:	e8bd 81fc 	ldmia.w	sp!, {r2, r3, r4, r5, r6, r7, r8, pc}

0008684c <fputwc>:
   8684c:	b5f8      	push	{r3, r4, r5, r6, r7, lr}
   8684e:	4c08      	ldr	r4, [pc, #32]	; (86870 <fputwc+0x24>)
   86850:	4607      	mov	r7, r0
   86852:	6820      	ldr	r0, [r4, #0]
   86854:	460e      	mov	r6, r1
   86856:	b118      	cbz	r0, 86860 <fputwc+0x14>
   86858:	6b85      	ldr	r5, [r0, #56]	; 0x38
   8685a:	b90d      	cbnz	r5, 86860 <fputwc+0x14>
   8685c:	f7ff ff1a 	bl	86694 <__sinit>
   86860:	6820      	ldr	r0, [r4, #0]
   86862:	4639      	mov	r1, r7
   86864:	4632      	mov	r2, r6
   86866:	e8bd 40f8 	ldmia.w	sp!, {r3, r4, r5, r6, r7, lr}
   8686a:	f7ff bf8f 	b.w	8678c <_fputwc_r>
   8686e:	bf00      	nop
   86870:	20070018 	.word	0x20070018

00086874 <_fread_r>:
   86874:	e92d 4ff8 	stmdb	sp!, {r3, r4, r5, r6, r7, r8, r9, sl, fp, lr}
   86878:	461e      	mov	r6, r3
   8687a:	4613      	mov	r3, r2
   8687c:	4373      	muls	r3, r6
   8687e:	4682      	mov	sl, r0
   86880:	4688      	mov	r8, r1
   86882:	4693      	mov	fp, r2
   86884:	9c0a      	ldr	r4, [sp, #40]	; 0x28
   86886:	4699      	mov	r9, r3
   86888:	d03e      	beq.n	86908 <_fread_r+0x94>
   8688a:	b118      	cbz	r0, 86894 <_fread_r+0x20>
   8688c:	6b81      	ldr	r1, [r0, #56]	; 0x38
   8688e:	b909      	cbnz	r1, 86894 <_fread_r+0x20>
   86890:	f7ff ff00 	bl	86694 <__sinit>
   86894:	f7ff ff62 	bl	8675c <__sfp_lock_acquire>
   86898:	89a0      	ldrh	r0, [r4, #12]
   8689a:	f400 5200 	and.w	r2, r0, #8192	; 0x2000
   8689e:	b215      	sxth	r5, r2
   868a0:	b935      	cbnz	r5, 868b0 <_fread_r+0x3c>
   868a2:	6e63      	ldr	r3, [r4, #100]	; 0x64
   868a4:	f440 5700 	orr.w	r7, r0, #8192	; 0x2000
   868a8:	f423 5100 	bic.w	r1, r3, #8192	; 0x2000
   868ac:	81a7      	strh	r7, [r4, #12]
   868ae:	6661      	str	r1, [r4, #100]	; 0x64
   868b0:	6860      	ldr	r0, [r4, #4]
   868b2:	2800      	cmp	r0, #0
   868b4:	da01      	bge.n	868ba <_fread_r+0x46>
   868b6:	2200      	movs	r2, #0
   868b8:	6062      	str	r2, [r4, #4]
   868ba:	464d      	mov	r5, r9
   868bc:	6867      	ldr	r7, [r4, #4]
   868be:	4640      	mov	r0, r8
   868c0:	42bd      	cmp	r5, r7
   868c2:	6821      	ldr	r1, [r4, #0]
   868c4:	d914      	bls.n	868f0 <_fread_r+0x7c>
   868c6:	463a      	mov	r2, r7
   868c8:	f7fd fe62 	bl	84590 <memcpy>
   868cc:	6822      	ldr	r2, [r4, #0]
   868ce:	4650      	mov	r0, sl
   868d0:	19d3      	adds	r3, r2, r7
   868d2:	6023      	str	r3, [r4, #0]
   868d4:	4621      	mov	r1, r4
   868d6:	44b8      	add	r8, r7
   868d8:	1bed      	subs	r5, r5, r7
   868da:	f001 fec8 	bl	8866e <__srefill_r>
   868de:	2800      	cmp	r0, #0
   868e0:	d0ec      	beq.n	868bc <_fread_r+0x48>
   868e2:	ebc5 0509 	rsb	r5, r5, r9
   868e6:	f7ff ff3a 	bl	8675e <__sfp_lock_release>
   868ea:	fbb5 f6fb 	udiv	r6, r5, fp
   868ee:	e00c      	b.n	8690a <_fread_r+0x96>
   868f0:	462a      	mov	r2, r5
   868f2:	f7fd fe4d 	bl	84590 <memcpy>
   868f6:	6863      	ldr	r3, [r4, #4]
   868f8:	6820      	ldr	r0, [r4, #0]
   868fa:	1b59      	subs	r1, r3, r5
   868fc:	1945      	adds	r5, r0, r5
   868fe:	6061      	str	r1, [r4, #4]
   86900:	6025      	str	r5, [r4, #0]
   86902:	f7ff ff2c 	bl	8675e <__sfp_lock_release>
   86906:	e000      	b.n	8690a <_fread_r+0x96>
   86908:	461e      	mov	r6, r3
   8690a:	4630      	mov	r0, r6
   8690c:	e8bd 8ff8 	ldmia.w	sp!, {r3, r4, r5, r6, r7, r8, r9, sl, fp, pc}

00086910 <fread>:
   86910:	b573      	push	{r0, r1, r4, r5, r6, lr}
   86912:	9300      	str	r3, [sp, #0]
   86914:	4b05      	ldr	r3, [pc, #20]	; (8692c <fread+0x1c>)
   86916:	4606      	mov	r6, r0
   86918:	460d      	mov	r5, r1
   8691a:	4614      	mov	r4, r2
   8691c:	6818      	ldr	r0, [r3, #0]
   8691e:	4631      	mov	r1, r6
   86920:	462a      	mov	r2, r5
   86922:	4623      	mov	r3, r4
   86924:	f7ff ffa6 	bl	86874 <_fread_r>
   86928:	bd7c      	pop	{r2, r3, r4, r5, r6, pc}
   8692a:	bf00      	nop
   8692c:	20070018 	.word	0x20070018

00086930 <_malloc_trim_r>:
   86930:	b5f8      	push	{r3, r4, r5, r6, r7, lr}
   86932:	4d23      	ldr	r5, [pc, #140]	; (869c0 <_malloc_trim_r+0x90>)
   86934:	460e      	mov	r6, r1
   86936:	4604      	mov	r4, r0
   86938:	f001 f930 	bl	87b9c <__malloc_lock>
   8693c:	68ab      	ldr	r3, [r5, #8]
   8693e:	685f      	ldr	r7, [r3, #4]
   86940:	f027 0703 	bic.w	r7, r7, #3
   86944:	f607 70ef 	addw	r0, r7, #4079	; 0xfef
   86948:	1b81      	subs	r1, r0, r6
   8694a:	f421 627f 	bic.w	r2, r1, #4080	; 0xff0
   8694e:	f022 060f 	bic.w	r6, r2, #15
   86952:	f5a6 5680 	sub.w	r6, r6, #4096	; 0x1000
   86956:	f5b6 5f80 	cmp.w	r6, #4096	; 0x1000
   8695a:	da04      	bge.n	86966 <_malloc_trim_r+0x36>
   8695c:	4620      	mov	r0, r4
   8695e:	f001 f91e 	bl	87b9e <__malloc_unlock>
   86962:	2000      	movs	r0, #0
   86964:	bdf8      	pop	{r3, r4, r5, r6, r7, pc}
   86966:	2100      	movs	r1, #0
   86968:	4620      	mov	r0, r4
   8696a:	f001 ff2b 	bl	887c4 <_sbrk_r>
   8696e:	68ab      	ldr	r3, [r5, #8]
   86970:	19d9      	adds	r1, r3, r7
   86972:	4288      	cmp	r0, r1
   86974:	d1f2      	bne.n	8695c <_malloc_trim_r+0x2c>
   86976:	4271      	negs	r1, r6
   86978:	4620      	mov	r0, r4
   8697a:	f001 ff23 	bl	887c4 <_sbrk_r>
   8697e:	3001      	adds	r0, #1
   86980:	d110      	bne.n	869a4 <_malloc_trim_r+0x74>
   86982:	2100      	movs	r1, #0
   86984:	4620      	mov	r0, r4
   86986:	f001 ff1d 	bl	887c4 <_sbrk_r>
   8698a:	68ab      	ldr	r3, [r5, #8]
   8698c:	1ac2      	subs	r2, r0, r3
   8698e:	2a0f      	cmp	r2, #15
   86990:	dde4      	ble.n	8695c <_malloc_trim_r+0x2c>
   86992:	490c      	ldr	r1, [pc, #48]	; (869c4 <_malloc_trim_r+0x94>)
   86994:	f042 0201 	orr.w	r2, r2, #1
   86998:	6809      	ldr	r1, [r1, #0]
   8699a:	605a      	str	r2, [r3, #4]
   8699c:	1a40      	subs	r0, r0, r1
   8699e:	490a      	ldr	r1, [pc, #40]	; (869c8 <_malloc_trim_r+0x98>)
   869a0:	6008      	str	r0, [r1, #0]
   869a2:	e7db      	b.n	8695c <_malloc_trim_r+0x2c>
   869a4:	4b08      	ldr	r3, [pc, #32]	; (869c8 <_malloc_trim_r+0x98>)
   869a6:	68a8      	ldr	r0, [r5, #8]
   869a8:	681a      	ldr	r2, [r3, #0]
   869aa:	1bbf      	subs	r7, r7, r6
   869ac:	f047 0701 	orr.w	r7, r7, #1
   869b0:	6047      	str	r7, [r0, #4]
   869b2:	1b96      	subs	r6, r2, r6
   869b4:	4620      	mov	r0, r4
   869b6:	601e      	str	r6, [r3, #0]
   869b8:	f001 f8f1 	bl	87b9e <__malloc_unlock>
   869bc:	2001      	movs	r0, #1
   869be:	bdf8      	pop	{r3, r4, r5, r6, r7, pc}
   869c0:	200704f0 	.word	0x200704f0
   869c4:	200708f8 	.word	0x200708f8
   869c8:	2007abcc 	.word	0x2007abcc

000869cc <_free_r>:
   869cc:	b5f8      	push	{r3, r4, r5, r6, r7, lr}
   869ce:	4606      	mov	r6, r0
   869d0:	460d      	mov	r5, r1
   869d2:	2900      	cmp	r1, #0
   869d4:	f000 80a6 	beq.w	86b24 <_free_r+0x158>
   869d8:	f001 f8e0 	bl	87b9c <__malloc_lock>
   869dc:	f855 cc04 	ldr.w	ip, [r5, #-4]
   869e0:	4f51      	ldr	r7, [pc, #324]	; (86b28 <_free_r+0x15c>)
   869e2:	f1a5 0308 	sub.w	r3, r5, #8
   869e6:	f02c 0201 	bic.w	r2, ip, #1
   869ea:	189c      	adds	r4, r3, r2
   869ec:	68b9      	ldr	r1, [r7, #8]
   869ee:	6860      	ldr	r0, [r4, #4]
   869f0:	428c      	cmp	r4, r1
   869f2:	f020 0003 	bic.w	r0, r0, #3
   869f6:	f00c 0101 	and.w	r1, ip, #1
   869fa:	d11c      	bne.n	86a36 <_free_r+0x6a>
   869fc:	1882      	adds	r2, r0, r2
   869fe:	b939      	cbnz	r1, 86a10 <_free_r+0x44>
   86a00:	f855 1c08 	ldr.w	r1, [r5, #-8]
   86a04:	1a5b      	subs	r3, r3, r1
   86a06:	6898      	ldr	r0, [r3, #8]
   86a08:	1852      	adds	r2, r2, r1
   86a0a:	68d9      	ldr	r1, [r3, #12]
   86a0c:	60c1      	str	r1, [r0, #12]
   86a0e:	6088      	str	r0, [r1, #8]
   86a10:	4845      	ldr	r0, [pc, #276]	; (86b28 <_free_r+0x15c>)
   86a12:	f042 0101 	orr.w	r1, r2, #1
   86a16:	6059      	str	r1, [r3, #4]
   86a18:	6083      	str	r3, [r0, #8]
   86a1a:	4b44      	ldr	r3, [pc, #272]	; (86b2c <_free_r+0x160>)
   86a1c:	6819      	ldr	r1, [r3, #0]
   86a1e:	428a      	cmp	r2, r1
   86a20:	d304      	bcc.n	86a2c <_free_r+0x60>
   86a22:	4a43      	ldr	r2, [pc, #268]	; (86b30 <_free_r+0x164>)
   86a24:	4630      	mov	r0, r6
   86a26:	6811      	ldr	r1, [r2, #0]
   86a28:	f7ff ff82 	bl	86930 <_malloc_trim_r>
   86a2c:	4630      	mov	r0, r6
   86a2e:	e8bd 40f8 	ldmia.w	sp!, {r3, r4, r5, r6, r7, lr}
   86a32:	f001 b8b4 	b.w	87b9e <__malloc_unlock>
   86a36:	6060      	str	r0, [r4, #4]
   86a38:	b959      	cbnz	r1, 86a52 <_free_r+0x86>
   86a3a:	f855 5c08 	ldr.w	r5, [r5, #-8]
   86a3e:	3708      	adds	r7, #8
   86a40:	1b5b      	subs	r3, r3, r5
   86a42:	1952      	adds	r2, r2, r5
   86a44:	689d      	ldr	r5, [r3, #8]
   86a46:	42bd      	cmp	r5, r7
   86a48:	d005      	beq.n	86a56 <_free_r+0x8a>
   86a4a:	68df      	ldr	r7, [r3, #12]
   86a4c:	60ef      	str	r7, [r5, #12]
   86a4e:	60bd      	str	r5, [r7, #8]
   86a50:	e002      	b.n	86a58 <_free_r+0x8c>
   86a52:	2100      	movs	r1, #0
   86a54:	e000      	b.n	86a58 <_free_r+0x8c>
   86a56:	2101      	movs	r1, #1
   86a58:	1825      	adds	r5, r4, r0
   86a5a:	686d      	ldr	r5, [r5, #4]
   86a5c:	f015 0f01 	tst.w	r5, #1
   86a60:	d10f      	bne.n	86a82 <_free_r+0xb6>
   86a62:	1812      	adds	r2, r2, r0
   86a64:	b949      	cbnz	r1, 86a7a <_free_r+0xae>
   86a66:	68a0      	ldr	r0, [r4, #8]
   86a68:	4d32      	ldr	r5, [pc, #200]	; (86b34 <_free_r+0x168>)
   86a6a:	42a8      	cmp	r0, r5
   86a6c:	d105      	bne.n	86a7a <_free_r+0xae>
   86a6e:	60eb      	str	r3, [r5, #12]
   86a70:	60ab      	str	r3, [r5, #8]
   86a72:	60d8      	str	r0, [r3, #12]
   86a74:	6098      	str	r0, [r3, #8]
   86a76:	2101      	movs	r1, #1
   86a78:	e003      	b.n	86a82 <_free_r+0xb6>
   86a7a:	68e0      	ldr	r0, [r4, #12]
   86a7c:	68a4      	ldr	r4, [r4, #8]
   86a7e:	60e0      	str	r0, [r4, #12]
   86a80:	6084      	str	r4, [r0, #8]
   86a82:	f042 0001 	orr.w	r0, r2, #1
   86a86:	6058      	str	r0, [r3, #4]
   86a88:	509a      	str	r2, [r3, r2]
   86a8a:	2900      	cmp	r1, #0
   86a8c:	d1ce      	bne.n	86a2c <_free_r+0x60>
   86a8e:	f5b2 7f00 	cmp.w	r2, #512	; 0x200
   86a92:	d20c      	bcs.n	86aae <_free_r+0xe2>
   86a94:	08d2      	lsrs	r2, r2, #3
   86a96:	1090      	asrs	r0, r2, #2
   86a98:	2401      	movs	r4, #1
   86a9a:	fa04 f400 	lsl.w	r4, r4, r0
   86a9e:	4922      	ldr	r1, [pc, #136]	; (86b28 <_free_r+0x15c>)
   86aa0:	6848      	ldr	r0, [r1, #4]
   86aa2:	4320      	orrs	r0, r4
   86aa4:	6048      	str	r0, [r1, #4]
   86aa6:	eb01 00c2 	add.w	r0, r1, r2, lsl #3
   86aaa:	6881      	ldr	r1, [r0, #8]
   86aac:	e035      	b.n	86b1a <_free_r+0x14e>
   86aae:	0a54      	lsrs	r4, r2, #9
   86ab0:	2c04      	cmp	r4, #4
   86ab2:	d802      	bhi.n	86aba <_free_r+0xee>
   86ab4:	0994      	lsrs	r4, r2, #6
   86ab6:	3438      	adds	r4, #56	; 0x38
   86ab8:	e016      	b.n	86ae8 <_free_r+0x11c>
   86aba:	2c14      	cmp	r4, #20
   86abc:	d801      	bhi.n	86ac2 <_free_r+0xf6>
   86abe:	345b      	adds	r4, #91	; 0x5b
   86ac0:	e012      	b.n	86ae8 <_free_r+0x11c>
   86ac2:	2c54      	cmp	r4, #84	; 0x54
   86ac4:	d802      	bhi.n	86acc <_free_r+0x100>
   86ac6:	0b14      	lsrs	r4, r2, #12
   86ac8:	346e      	adds	r4, #110	; 0x6e
   86aca:	e00d      	b.n	86ae8 <_free_r+0x11c>
   86acc:	f5b4 7faa 	cmp.w	r4, #340	; 0x154
   86ad0:	d802      	bhi.n	86ad8 <_free_r+0x10c>
   86ad2:	0bd4      	lsrs	r4, r2, #15
   86ad4:	3477      	adds	r4, #119	; 0x77
   86ad6:	e007      	b.n	86ae8 <_free_r+0x11c>
   86ad8:	f240 5554 	movw	r5, #1364	; 0x554
   86adc:	42ac      	cmp	r4, r5
   86ade:	d802      	bhi.n	86ae6 <_free_r+0x11a>
   86ae0:	0c94      	lsrs	r4, r2, #18
   86ae2:	347c      	adds	r4, #124	; 0x7c
   86ae4:	e000      	b.n	86ae8 <_free_r+0x11c>
   86ae6:	247e      	movs	r4, #126	; 0x7e
   86ae8:	4d0f      	ldr	r5, [pc, #60]	; (86b28 <_free_r+0x15c>)
   86aea:	eb05 00c4 	add.w	r0, r5, r4, lsl #3
   86aee:	6881      	ldr	r1, [r0, #8]
   86af0:	4281      	cmp	r1, r0
   86af2:	d10c      	bne.n	86b0e <_free_r+0x142>
   86af4:	2201      	movs	r2, #1
   86af6:	10a4      	asrs	r4, r4, #2
   86af8:	fa02 f404 	lsl.w	r4, r2, r4
   86afc:	6868      	ldr	r0, [r5, #4]
   86afe:	ea44 0200 	orr.w	r2, r4, r0
   86b02:	606a      	str	r2, [r5, #4]
   86b04:	4608      	mov	r0, r1
   86b06:	e008      	b.n	86b1a <_free_r+0x14e>
   86b08:	6889      	ldr	r1, [r1, #8]
   86b0a:	4281      	cmp	r1, r0
   86b0c:	d004      	beq.n	86b18 <_free_r+0x14c>
   86b0e:	684c      	ldr	r4, [r1, #4]
   86b10:	f024 0403 	bic.w	r4, r4, #3
   86b14:	42a2      	cmp	r2, r4
   86b16:	d3f7      	bcc.n	86b08 <_free_r+0x13c>
   86b18:	68c8      	ldr	r0, [r1, #12]
   86b1a:	60d8      	str	r0, [r3, #12]
   86b1c:	6099      	str	r1, [r3, #8]
   86b1e:	6083      	str	r3, [r0, #8]
   86b20:	60cb      	str	r3, [r1, #12]
   86b22:	e783      	b.n	86a2c <_free_r+0x60>
   86b24:	bdf8      	pop	{r3, r4, r5, r6, r7, pc}
   86b26:	bf00      	nop
   86b28:	200704f0 	.word	0x200704f0
   86b2c:	200708fc 	.word	0x200708fc
   86b30:	2007abc8 	.word	0x2007abc8
   86b34:	200704f8 	.word	0x200704f8

00086b38 <__sfvwrite_r>:
   86b38:	6893      	ldr	r3, [r2, #8]
   86b3a:	e92d 4ff7 	stmdb	sp!, {r0, r1, r2, r4, r5, r6, r7, r8, r9, sl, fp, lr}
   86b3e:	4606      	mov	r6, r0
   86b40:	460c      	mov	r4, r1
   86b42:	4691      	mov	r9, r2
   86b44:	b90b      	cbnz	r3, 86b4a <__sfvwrite_r+0x12>
   86b46:	2000      	movs	r0, #0
   86b48:	e14f      	b.n	86dea <__sfvwrite_r+0x2b2>
   86b4a:	8988      	ldrh	r0, [r1, #12]
   86b4c:	f000 0108 	and.w	r1, r0, #8
   86b50:	b20a      	sxth	r2, r1
   86b52:	b10a      	cbz	r2, 86b58 <__sfvwrite_r+0x20>
   86b54:	6923      	ldr	r3, [r4, #16]
   86b56:	b95b      	cbnz	r3, 86b70 <__sfvwrite_r+0x38>
   86b58:	4630      	mov	r0, r6
   86b5a:	4621      	mov	r1, r4
   86b5c:	f7ff fc3c 	bl	863d8 <__swsetup_r>
   86b60:	b130      	cbz	r0, 86b70 <__sfvwrite_r+0x38>
   86b62:	89a1      	ldrh	r1, [r4, #12]
   86b64:	2209      	movs	r2, #9
   86b66:	f041 0040 	orr.w	r0, r1, #64	; 0x40
   86b6a:	81a0      	strh	r0, [r4, #12]
   86b6c:	6032      	str	r2, [r6, #0]
   86b6e:	e13a      	b.n	86de6 <__sfvwrite_r+0x2ae>
   86b70:	f8b4 a00c 	ldrh.w	sl, [r4, #12]
   86b74:	f8d9 8000 	ldr.w	r8, [r9]
   86b78:	f00a 0c02 	and.w	ip, sl, #2
   86b7c:	fa0f f58c 	sxth.w	r5, ip
   86b80:	b315      	cbz	r5, 86bc8 <__sfvwrite_r+0x90>
   86b82:	f04f 0a00 	mov.w	sl, #0
   86b86:	4657      	mov	r7, sl
   86b88:	b937      	cbnz	r7, 86b98 <__sfvwrite_r+0x60>
   86b8a:	f8d8 a000 	ldr.w	sl, [r8]
   86b8e:	f8d8 7004 	ldr.w	r7, [r8, #4]
   86b92:	f108 0808 	add.w	r8, r8, #8
   86b96:	e7f7      	b.n	86b88 <__sfvwrite_r+0x50>
   86b98:	f5b7 6f80 	cmp.w	r7, #1024	; 0x400
   86b9c:	bf34      	ite	cc
   86b9e:	463b      	movcc	r3, r7
   86ba0:	f44f 6380 	movcs.w	r3, #1024	; 0x400
   86ba4:	4630      	mov	r0, r6
   86ba6:	69e1      	ldr	r1, [r4, #28]
   86ba8:	4652      	mov	r2, sl
   86baa:	6a65      	ldr	r5, [r4, #36]	; 0x24
   86bac:	47a8      	blx	r5
   86bae:	2800      	cmp	r0, #0
   86bb0:	f340 8115 	ble.w	86dde <__sfvwrite_r+0x2a6>
   86bb4:	f8d9 1008 	ldr.w	r1, [r9, #8]
   86bb8:	4482      	add	sl, r0
   86bba:	1a3f      	subs	r7, r7, r0
   86bbc:	1a08      	subs	r0, r1, r0
   86bbe:	f8c9 0008 	str.w	r0, [r9, #8]
   86bc2:	2800      	cmp	r0, #0
   86bc4:	d1e0      	bne.n	86b88 <__sfvwrite_r+0x50>
   86bc6:	e7be      	b.n	86b46 <__sfvwrite_r+0xe>
   86bc8:	f01a 0a01 	ands.w	sl, sl, #1
   86bcc:	d004      	beq.n	86bd8 <__sfvwrite_r+0xa0>
   86bce:	46ab      	mov	fp, r5
   86bd0:	9501      	str	r5, [sp, #4]
   86bd2:	462f      	mov	r7, r5
   86bd4:	46aa      	mov	sl, r5
   86bd6:	e0c7      	b.n	86d68 <__sfvwrite_r+0x230>
   86bd8:	4655      	mov	r5, sl
   86bda:	b935      	cbnz	r5, 86bea <__sfvwrite_r+0xb2>
   86bdc:	f8d8 a000 	ldr.w	sl, [r8]
   86be0:	f8d8 5004 	ldr.w	r5, [r8, #4]
   86be4:	f108 0808 	add.w	r8, r8, #8
   86be8:	e7f7      	b.n	86bda <__sfvwrite_r+0xa2>
   86bea:	89a2      	ldrh	r2, [r4, #12]
   86bec:	f8d4 b008 	ldr.w	fp, [r4, #8]
   86bf0:	f402 7000 	and.w	r0, r2, #512	; 0x200
   86bf4:	b203      	sxth	r3, r0
   86bf6:	2b00      	cmp	r3, #0
   86bf8:	d052      	beq.n	86ca0 <__sfvwrite_r+0x168>
   86bfa:	455d      	cmp	r5, fp
   86bfc:	d340      	bcc.n	86c80 <__sfvwrite_r+0x148>
   86bfe:	f412 6f90 	tst.w	r2, #1152	; 0x480
   86c02:	d03b      	beq.n	86c7c <__sfvwrite_r+0x144>
   86c04:	6963      	ldr	r3, [r4, #20]
   86c06:	f04f 0b03 	mov.w	fp, #3
   86c0a:	fb0b f303 	mul.w	r3, fp, r3
   86c0e:	6921      	ldr	r1, [r4, #16]
   86c10:	6827      	ldr	r7, [r4, #0]
   86c12:	2002      	movs	r0, #2
   86c14:	1a7f      	subs	r7, r7, r1
   86c16:	fb93 fcf0 	sdiv	ip, r3, r0
   86c1a:	1c7b      	adds	r3, r7, #1
   86c1c:	1958      	adds	r0, r3, r5
   86c1e:	f402 6280 	and.w	r2, r2, #1024	; 0x400
   86c22:	4584      	cmp	ip, r0
   86c24:	bf28      	it	cs
   86c26:	4660      	movcs	r0, ip
   86c28:	b213      	sxth	r3, r2
   86c2a:	9001      	str	r0, [sp, #4]
   86c2c:	4630      	mov	r0, r6
   86c2e:	b17b      	cbz	r3, 86c50 <__sfvwrite_r+0x118>
   86c30:	9901      	ldr	r1, [sp, #4]
   86c32:	f000 fd29 	bl	87688 <_malloc_r>
   86c36:	4683      	mov	fp, r0
   86c38:	b198      	cbz	r0, 86c62 <__sfvwrite_r+0x12a>
   86c3a:	6921      	ldr	r1, [r4, #16]
   86c3c:	463a      	mov	r2, r7
   86c3e:	f7fd fca7 	bl	84590 <memcpy>
   86c42:	89a1      	ldrh	r1, [r4, #12]
   86c44:	f421 6090 	bic.w	r0, r1, #1152	; 0x480
   86c48:	f040 0280 	orr.w	r2, r0, #128	; 0x80
   86c4c:	81a2      	strh	r2, [r4, #12]
   86c4e:	e00b      	b.n	86c68 <__sfvwrite_r+0x130>
   86c50:	9a01      	ldr	r2, [sp, #4]
   86c52:	f001 fb95 	bl	88380 <_realloc_r>
   86c56:	4683      	mov	fp, r0
   86c58:	b930      	cbnz	r0, 86c68 <__sfvwrite_r+0x130>
   86c5a:	4630      	mov	r0, r6
   86c5c:	6921      	ldr	r1, [r4, #16]
   86c5e:	f7ff feb5 	bl	869cc <_free_r>
   86c62:	230c      	movs	r3, #12
   86c64:	6033      	str	r3, [r6, #0]
   86c66:	e0ba      	b.n	86dde <__sfvwrite_r+0x2a6>
   86c68:	9901      	ldr	r1, [sp, #4]
   86c6a:	eb0b 0307 	add.w	r3, fp, r7
   86c6e:	1bcf      	subs	r7, r1, r7
   86c70:	f8c4 b010 	str.w	fp, [r4, #16]
   86c74:	6023      	str	r3, [r4, #0]
   86c76:	6161      	str	r1, [r4, #20]
   86c78:	46ab      	mov	fp, r5
   86c7a:	60a7      	str	r7, [r4, #8]
   86c7c:	455d      	cmp	r5, fp
   86c7e:	d200      	bcs.n	86c82 <__sfvwrite_r+0x14a>
   86c80:	46ab      	mov	fp, r5
   86c82:	465a      	mov	r2, fp
   86c84:	4651      	mov	r1, sl
   86c86:	6820      	ldr	r0, [r4, #0]
   86c88:	f000 ff6e 	bl	87b68 <memmove>
   86c8c:	68a0      	ldr	r0, [r4, #8]
   86c8e:	6823      	ldr	r3, [r4, #0]
   86c90:	ebcb 0200 	rsb	r2, fp, r0
   86c94:	eb03 010b 	add.w	r1, r3, fp
   86c98:	60a2      	str	r2, [r4, #8]
   86c9a:	6021      	str	r1, [r4, #0]
   86c9c:	46ab      	mov	fp, r5
   86c9e:	e02a      	b.n	86cf6 <__sfvwrite_r+0x1be>
   86ca0:	6820      	ldr	r0, [r4, #0]
   86ca2:	6921      	ldr	r1, [r4, #16]
   86ca4:	4288      	cmp	r0, r1
   86ca6:	d90f      	bls.n	86cc8 <__sfvwrite_r+0x190>
   86ca8:	455d      	cmp	r5, fp
   86caa:	d90d      	bls.n	86cc8 <__sfvwrite_r+0x190>
   86cac:	4651      	mov	r1, sl
   86cae:	465a      	mov	r2, fp
   86cb0:	f000 ff5a 	bl	87b68 <memmove>
   86cb4:	6822      	ldr	r2, [r4, #0]
   86cb6:	4621      	mov	r1, r4
   86cb8:	eb02 000b 	add.w	r0, r2, fp
   86cbc:	6020      	str	r0, [r4, #0]
   86cbe:	4630      	mov	r0, r6
   86cc0:	f7ff fbf6 	bl	864b0 <_fflush_r>
   86cc4:	b1b8      	cbz	r0, 86cf6 <__sfvwrite_r+0x1be>
   86cc6:	e08a      	b.n	86dde <__sfvwrite_r+0x2a6>
   86cc8:	6963      	ldr	r3, [r4, #20]
   86cca:	429d      	cmp	r5, r3
   86ccc:	d308      	bcc.n	86ce0 <__sfvwrite_r+0x1a8>
   86cce:	6a67      	ldr	r7, [r4, #36]	; 0x24
   86cd0:	4630      	mov	r0, r6
   86cd2:	69e1      	ldr	r1, [r4, #28]
   86cd4:	4652      	mov	r2, sl
   86cd6:	47b8      	blx	r7
   86cd8:	f1b0 0b00 	subs.w	fp, r0, #0
   86cdc:	dc0b      	bgt.n	86cf6 <__sfvwrite_r+0x1be>
   86cde:	e07e      	b.n	86dde <__sfvwrite_r+0x2a6>
   86ce0:	4651      	mov	r1, sl
   86ce2:	462a      	mov	r2, r5
   86ce4:	f000 ff40 	bl	87b68 <memmove>
   86ce8:	68a2      	ldr	r2, [r4, #8]
   86cea:	6823      	ldr	r3, [r4, #0]
   86cec:	1b50      	subs	r0, r2, r5
   86cee:	1959      	adds	r1, r3, r5
   86cf0:	46ab      	mov	fp, r5
   86cf2:	60a0      	str	r0, [r4, #8]
   86cf4:	6021      	str	r1, [r4, #0]
   86cf6:	f8d9 0008 	ldr.w	r0, [r9, #8]
   86cfa:	44da      	add	sl, fp
   86cfc:	ebcb 0200 	rsb	r2, fp, r0
   86d00:	ebcb 0505 	rsb	r5, fp, r5
   86d04:	f8c9 2008 	str.w	r2, [r9, #8]
   86d08:	2a00      	cmp	r2, #0
   86d0a:	f47f af66 	bne.w	86bda <__sfvwrite_r+0xa2>
   86d0e:	e71a      	b.n	86b46 <__sfvwrite_r+0xe>
   86d10:	9801      	ldr	r0, [sp, #4]
   86d12:	2800      	cmp	r0, #0
   86d14:	d032      	beq.n	86d7c <__sfvwrite_r+0x244>
   86d16:	6820      	ldr	r0, [r4, #0]
   86d18:	6921      	ldr	r1, [r4, #16]
   86d1a:	45d3      	cmp	fp, sl
   86d1c:	bf34      	ite	cc
   86d1e:	465b      	movcc	r3, fp
   86d20:	4653      	movcs	r3, sl
   86d22:	4288      	cmp	r0, r1
   86d24:	68a5      	ldr	r5, [r4, #8]
   86d26:	f8d4 e014 	ldr.w	lr, [r4, #20]
   86d2a:	d937      	bls.n	86d9c <__sfvwrite_r+0x264>
   86d2c:	4475      	add	r5, lr
   86d2e:	42ab      	cmp	r3, r5
   86d30:	dd34      	ble.n	86d9c <__sfvwrite_r+0x264>
   86d32:	4639      	mov	r1, r7
   86d34:	462a      	mov	r2, r5
   86d36:	f000 ff17 	bl	87b68 <memmove>
   86d3a:	6820      	ldr	r0, [r4, #0]
   86d3c:	4621      	mov	r1, r4
   86d3e:	1943      	adds	r3, r0, r5
   86d40:	6023      	str	r3, [r4, #0]
   86d42:	4630      	mov	r0, r6
   86d44:	f7ff fbb4 	bl	864b0 <_fflush_r>
   86d48:	2800      	cmp	r0, #0
   86d4a:	d148      	bne.n	86dde <__sfvwrite_r+0x2a6>
   86d4c:	ebbb 0b05 	subs.w	fp, fp, r5
   86d50:	d03d      	beq.n	86dce <__sfvwrite_r+0x296>
   86d52:	f8d9 2008 	ldr.w	r2, [r9, #8]
   86d56:	197f      	adds	r7, r7, r5
   86d58:	ebc5 0a0a 	rsb	sl, r5, sl
   86d5c:	1b55      	subs	r5, r2, r5
   86d5e:	f8c9 5008 	str.w	r5, [r9, #8]
   86d62:	2d00      	cmp	r5, #0
   86d64:	f43f aeef 	beq.w	86b46 <__sfvwrite_r+0xe>
   86d68:	f1ba 0f00 	cmp.w	sl, #0
   86d6c:	d1d0      	bne.n	86d10 <__sfvwrite_r+0x1d8>
   86d6e:	2100      	movs	r1, #0
   86d70:	e898 0480 	ldmia.w	r8, {r7, sl}
   86d74:	9101      	str	r1, [sp, #4]
   86d76:	f108 0808 	add.w	r8, r8, #8
   86d7a:	e7f5      	b.n	86d68 <__sfvwrite_r+0x230>
   86d7c:	4638      	mov	r0, r7
   86d7e:	210a      	movs	r1, #10
   86d80:	4652      	mov	r2, sl
   86d82:	f000 fee3 	bl	87b4c <memchr>
   86d86:	b120      	cbz	r0, 86d92 <__sfvwrite_r+0x25a>
   86d88:	f100 0101 	add.w	r1, r0, #1
   86d8c:	ebc7 0b01 	rsb	fp, r7, r1
   86d90:	e001      	b.n	86d96 <__sfvwrite_r+0x25e>
   86d92:	f10a 0b01 	add.w	fp, sl, #1
   86d96:	2201      	movs	r2, #1
   86d98:	9201      	str	r2, [sp, #4]
   86d9a:	e7bc      	b.n	86d16 <__sfvwrite_r+0x1de>
   86d9c:	4573      	cmp	r3, lr
   86d9e:	db08      	blt.n	86db2 <__sfvwrite_r+0x27a>
   86da0:	6a65      	ldr	r5, [r4, #36]	; 0x24
   86da2:	4630      	mov	r0, r6
   86da4:	69e1      	ldr	r1, [r4, #28]
   86da6:	463a      	mov	r2, r7
   86da8:	4673      	mov	r3, lr
   86daa:	47a8      	blx	r5
   86dac:	1e05      	subs	r5, r0, #0
   86dae:	dccd      	bgt.n	86d4c <__sfvwrite_r+0x214>
   86db0:	e015      	b.n	86dde <__sfvwrite_r+0x2a6>
   86db2:	461a      	mov	r2, r3
   86db4:	4639      	mov	r1, r7
   86db6:	9300      	str	r3, [sp, #0]
   86db8:	f000 fed6 	bl	87b68 <memmove>
   86dbc:	9b00      	ldr	r3, [sp, #0]
   86dbe:	6825      	ldr	r5, [r4, #0]
   86dc0:	68a0      	ldr	r0, [r4, #8]
   86dc2:	18e9      	adds	r1, r5, r3
   86dc4:	1ac2      	subs	r2, r0, r3
   86dc6:	60a2      	str	r2, [r4, #8]
   86dc8:	6021      	str	r1, [r4, #0]
   86dca:	461d      	mov	r5, r3
   86dcc:	e7be      	b.n	86d4c <__sfvwrite_r+0x214>
   86dce:	4630      	mov	r0, r6
   86dd0:	4621      	mov	r1, r4
   86dd2:	f7ff fb6d 	bl	864b0 <_fflush_r>
   86dd6:	b910      	cbnz	r0, 86dde <__sfvwrite_r+0x2a6>
   86dd8:	f8cd b004 	str.w	fp, [sp, #4]
   86ddc:	e7b9      	b.n	86d52 <__sfvwrite_r+0x21a>
   86dde:	89a2      	ldrh	r2, [r4, #12]
   86de0:	f042 0340 	orr.w	r3, r2, #64	; 0x40
   86de4:	81a3      	strh	r3, [r4, #12]
   86de6:	f04f 30ff 	mov.w	r0, #4294967295
   86dea:	e8bd 8ffe 	ldmia.w	sp!, {r1, r2, r3, r4, r5, r6, r7, r8, r9, sl, fp, pc}

00086dee <_fwalk>:
   86dee:	e92d 41f0 	stmdb	sp!, {r4, r5, r6, r7, r8, lr}
   86df2:	4604      	mov	r4, r0
   86df4:	4688      	mov	r8, r1
   86df6:	f7ff fcb1 	bl	8675c <__sfp_lock_acquire>
   86dfa:	f504 7438 	add.w	r4, r4, #736	; 0x2e0
   86dfe:	2600      	movs	r6, #0
   86e00:	b18c      	cbz	r4, 86e26 <_fwalk+0x38>
   86e02:	68a5      	ldr	r5, [r4, #8]
   86e04:	6867      	ldr	r7, [r4, #4]
   86e06:	3f01      	subs	r7, #1
   86e08:	d40b      	bmi.n	86e22 <_fwalk+0x34>
   86e0a:	f9b5 300c 	ldrsh.w	r3, [r5, #12]
   86e0e:	b133      	cbz	r3, 86e1e <_fwalk+0x30>
   86e10:	f9b5 000e 	ldrsh.w	r0, [r5, #14]
   86e14:	1c43      	adds	r3, r0, #1
   86e16:	d002      	beq.n	86e1e <_fwalk+0x30>
   86e18:	4628      	mov	r0, r5
   86e1a:	47c0      	blx	r8
   86e1c:	4306      	orrs	r6, r0
   86e1e:	3568      	adds	r5, #104	; 0x68
   86e20:	e7f1      	b.n	86e06 <_fwalk+0x18>
   86e22:	6824      	ldr	r4, [r4, #0]
   86e24:	e7ec      	b.n	86e00 <_fwalk+0x12>
   86e26:	f7ff fc9a 	bl	8675e <__sfp_lock_release>
   86e2a:	4630      	mov	r0, r6
   86e2c:	e8bd 81f0 	ldmia.w	sp!, {r4, r5, r6, r7, r8, pc}

00086e30 <_fwalk_reent>:
   86e30:	e92d 43f8 	stmdb	sp!, {r3, r4, r5, r6, r7, r8, r9, lr}
   86e34:	4680      	mov	r8, r0
   86e36:	4689      	mov	r9, r1
   86e38:	f7ff fc90 	bl	8675c <__sfp_lock_acquire>
   86e3c:	f508 7438 	add.w	r4, r8, #736	; 0x2e0
   86e40:	2600      	movs	r6, #0
   86e42:	b194      	cbz	r4, 86e6a <_fwalk_reent+0x3a>
   86e44:	68a5      	ldr	r5, [r4, #8]
   86e46:	6867      	ldr	r7, [r4, #4]
   86e48:	3f01      	subs	r7, #1
   86e4a:	d40c      	bmi.n	86e66 <_fwalk_reent+0x36>
   86e4c:	f9b5 300c 	ldrsh.w	r3, [r5, #12]
   86e50:	b13b      	cbz	r3, 86e62 <_fwalk_reent+0x32>
   86e52:	f9b5 000e 	ldrsh.w	r0, [r5, #14]
   86e56:	1c43      	adds	r3, r0, #1
   86e58:	d003      	beq.n	86e62 <_fwalk_reent+0x32>
   86e5a:	4640      	mov	r0, r8
   86e5c:	4629      	mov	r1, r5
   86e5e:	47c8      	blx	r9
   86e60:	4306      	orrs	r6, r0
   86e62:	3568      	adds	r5, #104	; 0x68
   86e64:	e7f0      	b.n	86e48 <_fwalk_reent+0x18>
   86e66:	6824      	ldr	r4, [r4, #0]
   86e68:	e7eb      	b.n	86e42 <_fwalk_reent+0x12>
   86e6a:	f7ff fc78 	bl	8675e <__sfp_lock_release>
   86e6e:	4630      	mov	r0, r6
   86e70:	e8bd 83f8 	ldmia.w	sp!, {r3, r4, r5, r6, r7, r8, r9, pc}

00086e74 <rshift>:
   86e74:	b5f0      	push	{r4, r5, r6, r7, lr}
   86e76:	6906      	ldr	r6, [r0, #16]
   86e78:	114b      	asrs	r3, r1, #5
   86e7a:	42b3      	cmp	r3, r6
   86e7c:	f100 0214 	add.w	r2, r0, #20
   86e80:	da2a      	bge.n	86ed8 <rshift+0x64>
   86e82:	1d1d      	adds	r5, r3, #4
   86e84:	eb00 0686 	add.w	r6, r0, r6, lsl #2
   86e88:	eb00 0385 	add.w	r3, r0, r5, lsl #2
   86e8c:	3614      	adds	r6, #20
   86e8e:	1d1d      	adds	r5, r3, #4
   86e90:	f011 011f 	ands.w	r1, r1, #31
   86e94:	d101      	bne.n	86e9a <rshift+0x26>
   86e96:	4613      	mov	r3, r2
   86e98:	e017      	b.n	86eca <rshift+0x56>
   86e9a:	685c      	ldr	r4, [r3, #4]
   86e9c:	f1c1 0c20 	rsb	ip, r1, #32
   86ea0:	fa24 f401 	lsr.w	r4, r4, r1
   86ea4:	3504      	adds	r5, #4
   86ea6:	4613      	mov	r3, r2
   86ea8:	42b5      	cmp	r5, r6
   86eaa:	d20a      	bcs.n	86ec2 <rshift+0x4e>
   86eac:	682f      	ldr	r7, [r5, #0]
   86eae:	fa07 f70c 	lsl.w	r7, r7, ip
   86eb2:	433c      	orrs	r4, r7
   86eb4:	f843 4b04 	str.w	r4, [r3], #4
   86eb8:	f855 4b04 	ldr.w	r4, [r5], #4
   86ebc:	fa24 f401 	lsr.w	r4, r4, r1
   86ec0:	e7f2      	b.n	86ea8 <rshift+0x34>
   86ec2:	601c      	str	r4, [r3, #0]
   86ec4:	b14c      	cbz	r4, 86eda <rshift+0x66>
   86ec6:	3304      	adds	r3, #4
   86ec8:	e007      	b.n	86eda <rshift+0x66>
   86eca:	42b5      	cmp	r5, r6
   86ecc:	d205      	bcs.n	86eda <rshift+0x66>
   86ece:	f855 1b04 	ldr.w	r1, [r5], #4
   86ed2:	f843 1b04 	str.w	r1, [r3], #4
   86ed6:	e7f8      	b.n	86eca <rshift+0x56>
   86ed8:	4613      	mov	r3, r2
   86eda:	1a9b      	subs	r3, r3, r2
   86edc:	109a      	asrs	r2, r3, #2
   86ede:	6102      	str	r2, [r0, #16]
   86ee0:	b902      	cbnz	r2, 86ee4 <rshift+0x70>
   86ee2:	6142      	str	r2, [r0, #20]
   86ee4:	bdf0      	pop	{r4, r5, r6, r7, pc}

00086ee6 <htinit.constprop.0>:
   86ee6:	b530      	push	{r4, r5, lr}
   86ee8:	2300      	movs	r3, #0
   86eea:	5cc2      	ldrb	r2, [r0, r3]
   86eec:	b122      	cbz	r2, 86ef8 <htinit.constprop.0+0x12>
   86eee:	4c03      	ldr	r4, [pc, #12]	; (86efc <htinit.constprop.0+0x16>)
   86ef0:	185d      	adds	r5, r3, r1
   86ef2:	5515      	strb	r5, [r2, r4]
   86ef4:	3301      	adds	r3, #1
   86ef6:	e7f8      	b.n	86eea <htinit.constprop.0+0x4>
   86ef8:	bd30      	pop	{r4, r5, pc}
   86efa:	bf00      	nop
   86efc:	2007acf8 	.word	0x2007acf8

00086f00 <__hexdig_init>:
   86f00:	b508      	push	{r3, lr}
   86f02:	2110      	movs	r1, #16
   86f04:	4806      	ldr	r0, [pc, #24]	; (86f20 <__hexdig_init+0x20>)
   86f06:	f7ff ffee 	bl	86ee6 <htinit.constprop.0>
   86f0a:	211a      	movs	r1, #26
   86f0c:	4805      	ldr	r0, [pc, #20]	; (86f24 <__hexdig_init+0x24>)
   86f0e:	f7ff ffea 	bl	86ee6 <htinit.constprop.0>
   86f12:	4805      	ldr	r0, [pc, #20]	; (86f28 <__hexdig_init+0x28>)
   86f14:	211a      	movs	r1, #26
   86f16:	e8bd 4008 	ldmia.w	sp!, {r3, lr}
   86f1a:	f7ff bfe4 	b.w	86ee6 <htinit.constprop.0>
   86f1e:	bf00      	nop
   86f20:	00089cb9 	.word	0x00089cb9
   86f24:	00089b8f 	.word	0x00089b8f
   86f28:	00089b7e 	.word	0x00089b7e

00086f2c <__gethex>:
   86f2c:	e92d 4ff0 	stmdb	sp!, {r4, r5, r6, r7, r8, r9, sl, fp, lr}
   86f30:	b089      	sub	sp, #36	; 0x24
   86f32:	468a      	mov	sl, r1
   86f34:	4616      	mov	r6, r2
   86f36:	9306      	str	r3, [sp, #24]
   86f38:	9003      	str	r0, [sp, #12]
   86f3a:	f000 fb17 	bl	8756c <_localeconv_r>
   86f3e:	6800      	ldr	r0, [r0, #0]
   86f40:	9004      	str	r0, [sp, #16]
   86f42:	f7fd fbb5 	bl	846b0 <strlen>
   86f46:	9904      	ldr	r1, [sp, #16]
   86f48:	4a9d      	ldr	r2, [pc, #628]	; (871c0 <__gethex+0x294>)
   86f4a:	180b      	adds	r3, r1, r0
   86f4c:	4680      	mov	r8, r0
   86f4e:	f892 4030 	ldrb.w	r4, [r2, #48]	; 0x30
   86f52:	f813 0c01 	ldrb.w	r0, [r3, #-1]
   86f56:	9007      	str	r0, [sp, #28]
   86f58:	b90c      	cbnz	r4, 86f5e <__gethex+0x32>
   86f5a:	f7ff ffd1 	bl	86f00 <__hexdig_init>
   86f5e:	f8da 5000 	ldr.w	r5, [sl]
   86f62:	f04f 0900 	mov.w	r9, #0
   86f66:	1cac      	adds	r4, r5, #2
   86f68:	46a3      	mov	fp, r4
   86f6a:	f814 7b01 	ldrb.w	r7, [r4], #1
   86f6e:	2f30      	cmp	r7, #48	; 0x30
   86f70:	d102      	bne.n	86f78 <__gethex+0x4c>
   86f72:	f109 0901 	add.w	r9, r9, #1
   86f76:	e7f7      	b.n	86f68 <__gethex+0x3c>
   86f78:	4c91      	ldr	r4, [pc, #580]	; (871c0 <__gethex+0x294>)
   86f7a:	5de5      	ldrb	r5, [r4, r7]
   86f7c:	b9d5      	cbnz	r5, 86fb4 <__gethex+0x88>
   86f7e:	4658      	mov	r0, fp
   86f80:	9904      	ldr	r1, [sp, #16]
   86f82:	4642      	mov	r2, r8
   86f84:	f7fd fb9c 	bl	846c0 <strncmp>
   86f88:	2800      	cmp	r0, #0
   86f8a:	d136      	bne.n	86ffa <__gethex+0xce>
   86f8c:	f81b 1008 	ldrb.w	r1, [fp, r8]
   86f90:	eb0b 0708 	add.w	r7, fp, r8
   86f94:	5c65      	ldrb	r5, [r4, r1]
   86f96:	2d00      	cmp	r5, #0
   86f98:	d030      	beq.n	86ffc <__gethex+0xd0>
   86f9a:	463b      	mov	r3, r7
   86f9c:	4618      	mov	r0, r3
   86f9e:	f813 2b01 	ldrb.w	r2, [r3], #1
   86fa2:	2a30      	cmp	r2, #48	; 0x30
   86fa4:	d0fa      	beq.n	86f9c <__gethex+0x70>
   86fa6:	4d86      	ldr	r5, [pc, #536]	; (871c0 <__gethex+0x294>)
   86fa8:	4683      	mov	fp, r0
   86faa:	5cac      	ldrb	r4, [r5, r2]
   86fac:	463d      	mov	r5, r7
   86fae:	b924      	cbnz	r4, 86fba <__gethex+0x8e>
   86fb0:	2401      	movs	r4, #1
   86fb2:	e003      	b.n	86fbc <__gethex+0x90>
   86fb4:	2400      	movs	r4, #0
   86fb6:	4625      	mov	r5, r4
   86fb8:	e002      	b.n	86fc0 <__gethex+0x94>
   86fba:	2400      	movs	r4, #0
   86fbc:	f04f 0901 	mov.w	r9, #1
   86fc0:	465b      	mov	r3, fp
   86fc2:	461f      	mov	r7, r3
   86fc4:	7838      	ldrb	r0, [r7, #0]
   86fc6:	497e      	ldr	r1, [pc, #504]	; (871c0 <__gethex+0x294>)
   86fc8:	3301      	adds	r3, #1
   86fca:	5c0a      	ldrb	r2, [r1, r0]
   86fcc:	2a00      	cmp	r2, #0
   86fce:	d1f8      	bne.n	86fc2 <__gethex+0x96>
   86fd0:	4638      	mov	r0, r7
   86fd2:	9904      	ldr	r1, [sp, #16]
   86fd4:	4642      	mov	r2, r8
   86fd6:	f7fd fb73 	bl	846c0 <strncmp>
   86fda:	b950      	cbnz	r0, 86ff2 <__gethex+0xc6>
   86fdc:	b955      	cbnz	r5, 86ff4 <__gethex+0xc8>
   86fde:	eb07 0508 	add.w	r5, r7, r8
   86fe2:	462b      	mov	r3, r5
   86fe4:	461f      	mov	r7, r3
   86fe6:	7838      	ldrb	r0, [r7, #0]
   86fe8:	4975      	ldr	r1, [pc, #468]	; (871c0 <__gethex+0x294>)
   86fea:	3301      	adds	r3, #1
   86fec:	5c0a      	ldrb	r2, [r1, r0]
   86fee:	2a00      	cmp	r2, #0
   86ff0:	d1f8      	bne.n	86fe4 <__gethex+0xb8>
   86ff2:	b125      	cbz	r5, 86ffe <__gethex+0xd2>
   86ff4:	1bed      	subs	r5, r5, r7
   86ff6:	00ad      	lsls	r5, r5, #2
   86ff8:	e001      	b.n	86ffe <__gethex+0xd2>
   86ffa:	465f      	mov	r7, fp
   86ffc:	2401      	movs	r4, #1
   86ffe:	783b      	ldrb	r3, [r7, #0]
   87000:	2b50      	cmp	r3, #80	; 0x50
   87002:	d001      	beq.n	87008 <__gethex+0xdc>
   87004:	2b70      	cmp	r3, #112	; 0x70
   87006:	d12e      	bne.n	87066 <__gethex+0x13a>
   87008:	7878      	ldrb	r0, [r7, #1]
   8700a:	282b      	cmp	r0, #43	; 0x2b
   8700c:	d005      	beq.n	8701a <__gethex+0xee>
   8700e:	282d      	cmp	r0, #45	; 0x2d
   87010:	d006      	beq.n	87020 <__gethex+0xf4>
   87012:	2100      	movs	r1, #0
   87014:	1c78      	adds	r0, r7, #1
   87016:	9105      	str	r1, [sp, #20]
   87018:	e005      	b.n	87026 <__gethex+0xfa>
   8701a:	2300      	movs	r3, #0
   8701c:	9305      	str	r3, [sp, #20]
   8701e:	e001      	b.n	87024 <__gethex+0xf8>
   87020:	2201      	movs	r2, #1
   87022:	9205      	str	r2, [sp, #20]
   87024:	1cb8      	adds	r0, r7, #2
   87026:	7801      	ldrb	r1, [r0, #0]
   87028:	4a65      	ldr	r2, [pc, #404]	; (871c0 <__gethex+0x294>)
   8702a:	5c52      	ldrb	r2, [r2, r1]
   8702c:	b1da      	cbz	r2, 87066 <__gethex+0x13a>
   8702e:	2a19      	cmp	r2, #25
   87030:	dc19      	bgt.n	87066 <__gethex+0x13a>
   87032:	3a10      	subs	r2, #16
   87034:	3001      	adds	r0, #1
   87036:	4603      	mov	r3, r0
   87038:	f893 c000 	ldrb.w	ip, [r3]
   8703c:	4960      	ldr	r1, [pc, #384]	; (871c0 <__gethex+0x294>)
   8703e:	3001      	adds	r0, #1
   87040:	f811 100c 	ldrb.w	r1, [r1, ip]
   87044:	9102      	str	r1, [sp, #8]
   87046:	b919      	cbnz	r1, 87050 <__gethex+0x124>
   87048:	9805      	ldr	r0, [sp, #20]
   8704a:	b150      	cbz	r0, 87062 <__gethex+0x136>
   8704c:	4252      	negs	r2, r2
   8704e:	e008      	b.n	87062 <__gethex+0x136>
   87050:	9902      	ldr	r1, [sp, #8]
   87052:	2919      	cmp	r1, #25
   87054:	dcf8      	bgt.n	87048 <__gethex+0x11c>
   87056:	9b02      	ldr	r3, [sp, #8]
   87058:	210a      	movs	r1, #10
   8705a:	fb01 3202 	mla	r2, r1, r2, r3
   8705e:	3a10      	subs	r2, #16
   87060:	e7e9      	b.n	87036 <__gethex+0x10a>
   87062:	18ad      	adds	r5, r5, r2
   87064:	e000      	b.n	87068 <__gethex+0x13c>
   87066:	463b      	mov	r3, r7
   87068:	f8ca 3000 	str.w	r3, [sl]
   8706c:	b13c      	cbz	r4, 8707e <__gethex+0x152>
   8706e:	f1b9 0f00 	cmp.w	r9, #0
   87072:	bf0c      	ite	eq
   87074:	f04f 0906 	moveq.w	r9, #6
   87078:	f04f 0900 	movne.w	r9, #0
   8707c:	e18b      	b.n	87396 <__gethex+0x46a>
   8707e:	ebcb 0007 	rsb	r0, fp, r7
   87082:	1e43      	subs	r3, r0, #1
   87084:	4621      	mov	r1, r4
   87086:	2b07      	cmp	r3, #7
   87088:	dd02      	ble.n	87090 <__gethex+0x164>
   8708a:	3101      	adds	r1, #1
   8708c:	105b      	asrs	r3, r3, #1
   8708e:	e7fa      	b.n	87086 <__gethex+0x15a>
   87090:	9803      	ldr	r0, [sp, #12]
   87092:	f000 fd85 	bl	87ba0 <_Balloc>
   87096:	46b9      	mov	r9, r7
   87098:	f100 0314 	add.w	r3, r0, #20
   8709c:	2700      	movs	r7, #0
   8709e:	4604      	mov	r4, r0
   870a0:	9302      	str	r3, [sp, #8]
   870a2:	46ba      	mov	sl, r7
   870a4:	45d9      	cmp	r9, fp
   870a6:	d932      	bls.n	8710e <__gethex+0x1e2>
   870a8:	f819 1c01 	ldrb.w	r1, [r9, #-1]
   870ac:	f8dd c01c 	ldr.w	ip, [sp, #28]
   870b0:	f109 3eff 	add.w	lr, r9, #4294967295
   870b4:	4561      	cmp	r1, ip
   870b6:	f8cd e014 	str.w	lr, [sp, #20]
   870ba:	d007      	beq.n	870cc <__gethex+0x1a0>
   870bc:	f1ba 0f20 	cmp.w	sl, #32
   870c0:	d116      	bne.n	870f0 <__gethex+0x1c4>
   870c2:	f843 7b04 	str.w	r7, [r3], #4
   870c6:	2700      	movs	r7, #0
   870c8:	46ba      	mov	sl, r7
   870ca:	e011      	b.n	870f0 <__gethex+0x1c4>
   870cc:	9a05      	ldr	r2, [sp, #20]
   870ce:	f1c8 0001 	rsb	r0, r8, #1
   870d2:	eb02 0c00 	add.w	ip, r2, r0
   870d6:	45dc      	cmp	ip, fp
   870d8:	d3f0      	bcc.n	870bc <__gethex+0x190>
   870da:	4660      	mov	r0, ip
   870dc:	9904      	ldr	r1, [sp, #16]
   870de:	4642      	mov	r2, r8
   870e0:	e88d 1008 	stmia.w	sp, {r3, ip}
   870e4:	f7fd faec 	bl	846c0 <strncmp>
   870e8:	e89d 1008 	ldmia.w	sp, {r3, ip}
   870ec:	b168      	cbz	r0, 8710a <__gethex+0x1de>
   870ee:	e7e5      	b.n	870bc <__gethex+0x190>
   870f0:	f819 0c01 	ldrb.w	r0, [r9, #-1]
   870f4:	4932      	ldr	r1, [pc, #200]	; (871c0 <__gethex+0x294>)
   870f6:	f8dd c014 	ldr.w	ip, [sp, #20]
   870fa:	5c0a      	ldrb	r2, [r1, r0]
   870fc:	f002 000f 	and.w	r0, r2, #15
   87100:	fa00 f10a 	lsl.w	r1, r0, sl
   87104:	f10a 0a04 	add.w	sl, sl, #4
   87108:	430f      	orrs	r7, r1
   8710a:	46e1      	mov	r9, ip
   8710c:	e7ca      	b.n	870a4 <__gethex+0x178>
   8710e:	9a02      	ldr	r2, [sp, #8]
   87110:	f843 7b04 	str.w	r7, [r3], #4
   87114:	1a99      	subs	r1, r3, r2
   87116:	108b      	asrs	r3, r1, #2
   87118:	4638      	mov	r0, r7
   8711a:	6123      	str	r3, [r4, #16]
   8711c:	ea4f 1a43 	mov.w	sl, r3, lsl #5
   87120:	f000 fdeb 	bl	87cfa <__hi0bits>
   87124:	6837      	ldr	r7, [r6, #0]
   87126:	ebc0 000a 	rsb	r0, r0, sl
   8712a:	42b8      	cmp	r0, r7
   8712c:	dd2a      	ble.n	87184 <__gethex+0x258>
   8712e:	ebc7 0900 	rsb	r9, r7, r0
   87132:	4649      	mov	r1, r9
   87134:	4620      	mov	r0, r4
   87136:	f001 f8fc 	bl	88332 <__any_on>
   8713a:	b1e0      	cbz	r0, 87176 <__gethex+0x24a>
   8713c:	f109 33ff 	add.w	r3, r9, #4294967295
   87140:	f003 011f 	and.w	r1, r3, #31
   87144:	f04f 0a01 	mov.w	sl, #1
   87148:	fa0a f001 	lsl.w	r0, sl, r1
   8714c:	115a      	asrs	r2, r3, #5
   8714e:	eb04 0182 	add.w	r1, r4, r2, lsl #2
   87152:	694a      	ldr	r2, [r1, #20]
   87154:	4210      	tst	r0, r2
   87156:	d00f      	beq.n	87178 <__gethex+0x24c>
   87158:	4553      	cmp	r3, sl
   8715a:	dc02      	bgt.n	87162 <__gethex+0x236>
   8715c:	f04f 0a02 	mov.w	sl, #2
   87160:	e00a      	b.n	87178 <__gethex+0x24c>
   87162:	4620      	mov	r0, r4
   87164:	f1a9 0102 	sub.w	r1, r9, #2
   87168:	f001 f8e3 	bl	88332 <__any_on>
   8716c:	2800      	cmp	r0, #0
   8716e:	d0f5      	beq.n	8715c <__gethex+0x230>
   87170:	f04f 0a03 	mov.w	sl, #3
   87174:	e000      	b.n	87178 <__gethex+0x24c>
   87176:	4682      	mov	sl, r0
   87178:	4620      	mov	r0, r4
   8717a:	4649      	mov	r1, r9
   8717c:	f7ff fe7a 	bl	86e74 <rshift>
   87180:	444d      	add	r5, r9
   87182:	e00f      	b.n	871a4 <__gethex+0x278>
   87184:	da0c      	bge.n	871a0 <__gethex+0x274>
   87186:	ebc0 0907 	rsb	r9, r0, r7
   8718a:	4621      	mov	r1, r4
   8718c:	464a      	mov	r2, r9
   8718e:	9803      	ldr	r0, [sp, #12]
   87190:	f000 fedc 	bl	87f4c <__lshift>
   87194:	f100 0214 	add.w	r2, r0, #20
   87198:	4604      	mov	r4, r0
   8719a:	ebc9 0505 	rsb	r5, r9, r5
   8719e:	9202      	str	r2, [sp, #8]
   871a0:	f04f 0a00 	mov.w	sl, #0
   871a4:	68b3      	ldr	r3, [r6, #8]
   871a6:	429d      	cmp	r5, r3
   871a8:	dd0c      	ble.n	871c4 <__gethex+0x298>
   871aa:	9803      	ldr	r0, [sp, #12]
   871ac:	4621      	mov	r1, r4
   871ae:	f000 fd1d 	bl	87bec <_Bfree>
   871b2:	9a12      	ldr	r2, [sp, #72]	; 0x48
   871b4:	2000      	movs	r0, #0
   871b6:	6010      	str	r0, [r2, #0]
   871b8:	f04f 09a3 	mov.w	r9, #163	; 0xa3
   871bc:	e0eb      	b.n	87396 <__gethex+0x46a>
   871be:	bf00      	nop
   871c0:	2007acf8 	.word	0x2007acf8
   871c4:	6870      	ldr	r0, [r6, #4]
   871c6:	4285      	cmp	r5, r0
   871c8:	da58      	bge.n	8727c <__gethex+0x350>
   871ca:	1b45      	subs	r5, r0, r5
   871cc:	42bd      	cmp	r5, r7
   871ce:	db2e      	blt.n	8722e <__gethex+0x302>
   871d0:	68f2      	ldr	r2, [r6, #12]
   871d2:	2a02      	cmp	r2, #2
   871d4:	d01a      	beq.n	8720c <__gethex+0x2e0>
   871d6:	2a03      	cmp	r2, #3
   871d8:	d01c      	beq.n	87214 <__gethex+0x2e8>
   871da:	2a01      	cmp	r2, #1
   871dc:	d11d      	bne.n	8721a <__gethex+0x2ee>
   871de:	42bd      	cmp	r5, r7
   871e0:	d11b      	bne.n	8721a <__gethex+0x2ee>
   871e2:	2f01      	cmp	r7, #1
   871e4:	dc0b      	bgt.n	871fe <__gethex+0x2d2>
   871e6:	6873      	ldr	r3, [r6, #4]
   871e8:	9806      	ldr	r0, [sp, #24]
   871ea:	9902      	ldr	r1, [sp, #8]
   871ec:	6003      	str	r3, [r0, #0]
   871ee:	9b12      	ldr	r3, [sp, #72]	; 0x48
   871f0:	2201      	movs	r2, #1
   871f2:	6122      	str	r2, [r4, #16]
   871f4:	f04f 0962 	mov.w	r9, #98	; 0x62
   871f8:	600a      	str	r2, [r1, #0]
   871fa:	601c      	str	r4, [r3, #0]
   871fc:	e0cb      	b.n	87396 <__gethex+0x46a>
   871fe:	4620      	mov	r0, r4
   87200:	1e79      	subs	r1, r7, #1
   87202:	f001 f896 	bl	88332 <__any_on>
   87206:	2800      	cmp	r0, #0
   87208:	d1ed      	bne.n	871e6 <__gethex+0x2ba>
   8720a:	e006      	b.n	8721a <__gethex+0x2ee>
   8720c:	9813      	ldr	r0, [sp, #76]	; 0x4c
   8720e:	2800      	cmp	r0, #0
   87210:	d0e9      	beq.n	871e6 <__gethex+0x2ba>
   87212:	e002      	b.n	8721a <__gethex+0x2ee>
   87214:	9b13      	ldr	r3, [sp, #76]	; 0x4c
   87216:	2b00      	cmp	r3, #0
   87218:	d1e5      	bne.n	871e6 <__gethex+0x2ba>
   8721a:	4621      	mov	r1, r4
   8721c:	9803      	ldr	r0, [sp, #12]
   8721e:	f000 fce5 	bl	87bec <_Bfree>
   87222:	9912      	ldr	r1, [sp, #72]	; 0x48
   87224:	2200      	movs	r2, #0
   87226:	600a      	str	r2, [r1, #0]
   87228:	f04f 0950 	mov.w	r9, #80	; 0x50
   8722c:	e0b3      	b.n	87396 <__gethex+0x46a>
   8722e:	f105 39ff 	add.w	r9, r5, #4294967295
   87232:	f1ba 0f00 	cmp.w	sl, #0
   87236:	d108      	bne.n	8724a <__gethex+0x31e>
   87238:	f1b9 0f00 	cmp.w	r9, #0
   8723c:	dd07      	ble.n	8724e <__gethex+0x322>
   8723e:	4620      	mov	r0, r4
   87240:	4649      	mov	r1, r9
   87242:	f001 f876 	bl	88332 <__any_on>
   87246:	4682      	mov	sl, r0
   87248:	e001      	b.n	8724e <__gethex+0x322>
   8724a:	f04f 0a01 	mov.w	sl, #1
   8724e:	f009 031f 	and.w	r3, r9, #31
   87252:	2201      	movs	r2, #1
   87254:	fa02 f003 	lsl.w	r0, r2, r3
   87258:	9b02      	ldr	r3, [sp, #8]
   8725a:	ea4f 1169 	mov.w	r1, r9, asr #5
   8725e:	f853 1021 	ldr.w	r1, [r3, r1, lsl #2]
   87262:	1b7f      	subs	r7, r7, r5
   87264:	4208      	tst	r0, r1
   87266:	4629      	mov	r1, r5
   87268:	4620      	mov	r0, r4
   8726a:	bf18      	it	ne
   8726c:	f04a 0a02 	orrne.w	sl, sl, #2
   87270:	f04f 0902 	mov.w	r9, #2
   87274:	f7ff fdfe 	bl	86e74 <rshift>
   87278:	6875      	ldr	r5, [r6, #4]
   8727a:	e001      	b.n	87280 <__gethex+0x354>
   8727c:	f04f 0901 	mov.w	r9, #1
   87280:	f1ba 0f00 	cmp.w	sl, #0
   87284:	f000 8083 	beq.w	8738e <__gethex+0x462>
   87288:	68f2      	ldr	r2, [r6, #12]
   8728a:	2a02      	cmp	r2, #2
   8728c:	d00e      	beq.n	872ac <__gethex+0x380>
   8728e:	2a03      	cmp	r2, #3
   87290:	d010      	beq.n	872b4 <__gethex+0x388>
   87292:	2a01      	cmp	r2, #1
   87294:	d179      	bne.n	8738a <__gethex+0x45e>
   87296:	f01a 0f02 	tst.w	sl, #2
   8729a:	d076      	beq.n	8738a <__gethex+0x45e>
   8729c:	9802      	ldr	r0, [sp, #8]
   8729e:	6803      	ldr	r3, [r0, #0]
   872a0:	ea4a 0a03 	orr.w	sl, sl, r3
   872a4:	f01a 0f01 	tst.w	sl, #1
   872a8:	d107      	bne.n	872ba <__gethex+0x38e>
   872aa:	e06e      	b.n	8738a <__gethex+0x45e>
   872ac:	9a13      	ldr	r2, [sp, #76]	; 0x4c
   872ae:	f1c2 0101 	rsb	r1, r2, #1
   872b2:	e000      	b.n	872b6 <__gethex+0x38a>
   872b4:	9913      	ldr	r1, [sp, #76]	; 0x4c
   872b6:	2900      	cmp	r1, #0
   872b8:	d067      	beq.n	8738a <__gethex+0x45e>
   872ba:	f8d4 8010 	ldr.w	r8, [r4, #16]
   872be:	f104 0314 	add.w	r3, r4, #20
   872c2:	eb04 0188 	add.w	r1, r4, r8, lsl #2
   872c6:	3114      	adds	r1, #20
   872c8:	4618      	mov	r0, r3
   872ca:	f853 2b04 	ldr.w	r2, [r3], #4
   872ce:	f1b2 3fff 	cmp.w	r2, #4294967295
   872d2:	d002      	beq.n	872da <__gethex+0x3ae>
   872d4:	3201      	adds	r2, #1
   872d6:	6002      	str	r2, [r0, #0]
   872d8:	e022      	b.n	87320 <__gethex+0x3f4>
   872da:	2000      	movs	r0, #0
   872dc:	428b      	cmp	r3, r1
   872de:	f843 0c04 	str.w	r0, [r3, #-4]
   872e2:	d3f1      	bcc.n	872c8 <__gethex+0x39c>
   872e4:	68a1      	ldr	r1, [r4, #8]
   872e6:	4588      	cmp	r8, r1
   872e8:	db13      	blt.n	87312 <__gethex+0x3e6>
   872ea:	6863      	ldr	r3, [r4, #4]
   872ec:	9803      	ldr	r0, [sp, #12]
   872ee:	1c59      	adds	r1, r3, #1
   872f0:	f000 fc56 	bl	87ba0 <_Balloc>
   872f4:	6922      	ldr	r2, [r4, #16]
   872f6:	f104 010c 	add.w	r1, r4, #12
   872fa:	1c93      	adds	r3, r2, #2
   872fc:	4682      	mov	sl, r0
   872fe:	009a      	lsls	r2, r3, #2
   87300:	f100 000c 	add.w	r0, r0, #12
   87304:	f7fd f944 	bl	84590 <memcpy>
   87308:	4621      	mov	r1, r4
   8730a:	9803      	ldr	r0, [sp, #12]
   8730c:	f000 fc6e 	bl	87bec <_Bfree>
   87310:	4654      	mov	r4, sl
   87312:	6920      	ldr	r0, [r4, #16]
   87314:	2101      	movs	r1, #1
   87316:	eb04 0280 	add.w	r2, r4, r0, lsl #2
   8731a:	1843      	adds	r3, r0, r1
   8731c:	6151      	str	r1, [r2, #20]
   8731e:	6123      	str	r3, [r4, #16]
   87320:	f1b9 0f02 	cmp.w	r9, #2
   87324:	d113      	bne.n	8734e <__gethex+0x422>
   87326:	6832      	ldr	r2, [r6, #0]
   87328:	1e50      	subs	r0, r2, #1
   8732a:	4287      	cmp	r7, r0
   8732c:	d12a      	bne.n	87384 <__gethex+0x458>
   8732e:	f007 011f 	and.w	r1, r7, #31
   87332:	2201      	movs	r2, #1
   87334:	fa02 f201 	lsl.w	r2, r2, r1
   87338:	117f      	asrs	r7, r7, #5
   8733a:	eb04 0787 	add.w	r7, r4, r7, lsl #2
   8733e:	697b      	ldr	r3, [r7, #20]
   87340:	421a      	tst	r2, r3
   87342:	bf0c      	ite	eq
   87344:	f04f 0902 	moveq.w	r9, #2
   87348:	f04f 0901 	movne.w	r9, #1
   8734c:	e01a      	b.n	87384 <__gethex+0x458>
   8734e:	6920      	ldr	r0, [r4, #16]
   87350:	4540      	cmp	r0, r8
   87352:	dd09      	ble.n	87368 <__gethex+0x43c>
   87354:	2101      	movs	r1, #1
   87356:	4620      	mov	r0, r4
   87358:	f7ff fd8c 	bl	86e74 <rshift>
   8735c:	68b3      	ldr	r3, [r6, #8]
   8735e:	3501      	adds	r5, #1
   87360:	429d      	cmp	r5, r3
   87362:	f73f af22 	bgt.w	871aa <__gethex+0x27e>
   87366:	e00b      	b.n	87380 <__gethex+0x454>
   87368:	f017 071f 	ands.w	r7, r7, #31
   8736c:	d008      	beq.n	87380 <__gethex+0x454>
   8736e:	eb04 0188 	add.w	r1, r4, r8, lsl #2
   87372:	6908      	ldr	r0, [r1, #16]
   87374:	f000 fcc1 	bl	87cfa <__hi0bits>
   87378:	f1c7 0720 	rsb	r7, r7, #32
   8737c:	42b8      	cmp	r0, r7
   8737e:	dbe9      	blt.n	87354 <__gethex+0x428>
   87380:	f04f 0901 	mov.w	r9, #1
   87384:	f049 0920 	orr.w	r9, r9, #32
   87388:	e001      	b.n	8738e <__gethex+0x462>
   8738a:	f049 0910 	orr.w	r9, r9, #16
   8738e:	9812      	ldr	r0, [sp, #72]	; 0x48
   87390:	9906      	ldr	r1, [sp, #24]
   87392:	6004      	str	r4, [r0, #0]
   87394:	600d      	str	r5, [r1, #0]
   87396:	4648      	mov	r0, r9
   87398:	b009      	add	sp, #36	; 0x24
   8739a:	e8bd 8ff0 	ldmia.w	sp!, {r4, r5, r6, r7, r8, r9, sl, fp, pc}
   8739e:	bf00      	nop

000873a0 <L_shift>:
   873a0:	f1c2 0208 	rsb	r2, r2, #8
   873a4:	0092      	lsls	r2, r2, #2
   873a6:	b570      	push	{r4, r5, r6, lr}
   873a8:	f1c2 0420 	rsb	r4, r2, #32
   873ac:	6805      	ldr	r5, [r0, #0]
   873ae:	f850 3f04 	ldr.w	r3, [r0, #4]!
   873b2:	fa03 f604 	lsl.w	r6, r3, r4
   873b6:	fa23 f302 	lsr.w	r3, r3, r2
   873ba:	4335      	orrs	r5, r6
   873bc:	4288      	cmp	r0, r1
   873be:	f840 5c04 	str.w	r5, [r0, #-4]
   873c2:	6003      	str	r3, [r0, #0]
   873c4:	d3f2      	bcc.n	873ac <L_shift+0xc>
   873c6:	bd70      	pop	{r4, r5, r6, pc}

000873c8 <__hexnan>:
   873c8:	e92d 4ff7 	stmdb	sp!, {r0, r1, r2, r4, r5, r6, r7, r8, r9, sl, fp, lr}
   873cc:	4b46      	ldr	r3, [pc, #280]	; (874e8 <__hexnan+0x120>)
   873ce:	4683      	mov	fp, r0
   873d0:	f893 0030 	ldrb.w	r0, [r3, #48]	; 0x30
   873d4:	460c      	mov	r4, r1
   873d6:	4615      	mov	r5, r2
   873d8:	b908      	cbnz	r0, 873de <__hexnan+0x16>
   873da:	f7ff fd91 	bl	86f00 <__hexdig_init>
   873de:	6821      	ldr	r1, [r4, #0]
   873e0:	f8db 3000 	ldr.w	r3, [fp]
   873e4:	114e      	asrs	r6, r1, #5
   873e6:	eb05 0686 	add.w	r6, r5, r6, lsl #2
   873ea:	f011 0a1f 	ands.w	sl, r1, #31
   873ee:	bf18      	it	ne
   873f0:	3604      	addne	r6, #4
   873f2:	f1a6 0904 	sub.w	r9, r6, #4
   873f6:	2200      	movs	r2, #0
   873f8:	f846 2c04 	str.w	r2, [r6, #-4]
   873fc:	464f      	mov	r7, r9
   873fe:	464c      	mov	r4, r9
   87400:	4694      	mov	ip, r2
   87402:	4690      	mov	r8, r2
   87404:	7859      	ldrb	r1, [r3, #1]
   87406:	b3b9      	cbz	r1, 87478 <__hexnan+0xb0>
   87408:	4837      	ldr	r0, [pc, #220]	; (874e8 <__hexnan+0x120>)
   8740a:	5c40      	ldrb	r0, [r0, r1]
   8740c:	b9f0      	cbnz	r0, 8744c <__hexnan+0x84>
   8740e:	2920      	cmp	r1, #32
   87410:	d816      	bhi.n	87440 <__hexnan+0x78>
   87412:	45c4      	cmp	ip, r8
   87414:	da2e      	bge.n	87474 <__hexnan+0xac>
   87416:	42bc      	cmp	r4, r7
   87418:	d209      	bcs.n	8742e <__hexnan+0x66>
   8741a:	2a07      	cmp	r2, #7
   8741c:	dc07      	bgt.n	8742e <__hexnan+0x66>
   8741e:	4620      	mov	r0, r4
   87420:	4639      	mov	r1, r7
   87422:	e88d 1008 	stmia.w	sp, {r3, ip}
   87426:	f7ff ffbb 	bl	873a0 <L_shift>
   8742a:	e89d 1008 	ldmia.w	sp, {r3, ip}
   8742e:	42ac      	cmp	r4, r5
   87430:	d91f      	bls.n	87472 <__hexnan+0xaa>
   87432:	2200      	movs	r2, #0
   87434:	f844 2c04 	str.w	r2, [r4, #-4]
   87438:	3c04      	subs	r4, #4
   8743a:	46c4      	mov	ip, r8
   8743c:	4627      	mov	r7, r4
   8743e:	e019      	b.n	87474 <__hexnan+0xac>
   87440:	2929      	cmp	r1, #41	; 0x29
   87442:	d14c      	bne.n	874de <__hexnan+0x116>
   87444:	3302      	adds	r3, #2
   87446:	f8cb 3000 	str.w	r3, [fp]
   8744a:	e015      	b.n	87478 <__hexnan+0xb0>
   8744c:	3201      	adds	r2, #1
   8744e:	2a08      	cmp	r2, #8
   87450:	f108 0801 	add.w	r8, r8, #1
   87454:	dd06      	ble.n	87464 <__hexnan+0x9c>
   87456:	42ac      	cmp	r4, r5
   87458:	d90c      	bls.n	87474 <__hexnan+0xac>
   8745a:	2200      	movs	r2, #0
   8745c:	f844 2c04 	str.w	r2, [r4, #-4]
   87460:	3c04      	subs	r4, #4
   87462:	2201      	movs	r2, #1
   87464:	6821      	ldr	r1, [r4, #0]
   87466:	f000 000f 	and.w	r0, r0, #15
   8746a:	ea40 1101 	orr.w	r1, r0, r1, lsl #4
   8746e:	6021      	str	r1, [r4, #0]
   87470:	e000      	b.n	87474 <__hexnan+0xac>
   87472:	2208      	movs	r2, #8
   87474:	3301      	adds	r3, #1
   87476:	e7c5      	b.n	87404 <__hexnan+0x3c>
   87478:	f1b8 0f00 	cmp.w	r8, #0
   8747c:	d02f      	beq.n	874de <__hexnan+0x116>
   8747e:	42bc      	cmp	r4, r7
   87480:	d205      	bcs.n	8748e <__hexnan+0xc6>
   87482:	2a07      	cmp	r2, #7
   87484:	dc03      	bgt.n	8748e <__hexnan+0xc6>
   87486:	4620      	mov	r0, r4
   87488:	4639      	mov	r1, r7
   8748a:	f7ff ff89 	bl	873a0 <L_shift>
   8748e:	42ac      	cmp	r4, r5
   87490:	d90d      	bls.n	874ae <__hexnan+0xe6>
   87492:	462a      	mov	r2, r5
   87494:	f854 3b04 	ldr.w	r3, [r4], #4
   87498:	f842 3b04 	str.w	r3, [r2], #4
   8749c:	45a1      	cmp	r9, r4
   8749e:	4610      	mov	r0, r2
   874a0:	d2f8      	bcs.n	87494 <__hexnan+0xcc>
   874a2:	2100      	movs	r1, #0
   874a4:	f840 1b04 	str.w	r1, [r0], #4
   874a8:	4548      	cmp	r0, r9
   874aa:	d9fa      	bls.n	874a2 <__hexnan+0xda>
   874ac:	e00e      	b.n	874cc <__hexnan+0x104>
   874ae:	f1ba 0f00 	cmp.w	sl, #0
   874b2:	d00b      	beq.n	874cc <__hexnan+0x104>
   874b4:	f1ca 0a20 	rsb	sl, sl, #32
   874b8:	f04f 32ff 	mov.w	r2, #4294967295
   874bc:	fa22 fa0a 	lsr.w	sl, r2, sl
   874c0:	f856 0c04 	ldr.w	r0, [r6, #-4]
   874c4:	ea00 010a 	and.w	r1, r0, sl
   874c8:	f846 1c04 	str.w	r1, [r6, #-4]
   874cc:	f856 2c04 	ldr.w	r2, [r6, #-4]
   874d0:	3e04      	subs	r6, #4
   874d2:	b932      	cbnz	r2, 874e2 <__hexnan+0x11a>
   874d4:	42b5      	cmp	r5, r6
   874d6:	d1f9      	bne.n	874cc <__hexnan+0x104>
   874d8:	2301      	movs	r3, #1
   874da:	602b      	str	r3, [r5, #0]
   874dc:	e001      	b.n	874e2 <__hexnan+0x11a>
   874de:	2004      	movs	r0, #4
   874e0:	e000      	b.n	874e4 <__hexnan+0x11c>
   874e2:	2005      	movs	r0, #5
   874e4:	e8bd 8ffe 	ldmia.w	sp!, {r1, r2, r3, r4, r5, r6, r7, r8, r9, sl, fp, pc}
   874e8:	2007acf8 	.word	0x2007acf8

000874ec <iswspace>:
   874ec:	28ff      	cmp	r0, #255	; 0xff
   874ee:	d807      	bhi.n	87500 <iswspace+0x14>
   874f0:	4b04      	ldr	r3, [pc, #16]	; (87504 <iswspace+0x18>)
   874f2:	6819      	ldr	r1, [r3, #0]
   874f4:	1808      	adds	r0, r1, r0
   874f6:	7842      	ldrb	r2, [r0, #1]
   874f8:	f002 0308 	and.w	r3, r2, #8
   874fc:	b2d8      	uxtb	r0, r3
   874fe:	4770      	bx	lr
   87500:	2000      	movs	r0, #0
   87502:	4770      	bx	lr
   87504:	20070470 	.word	0x20070470

00087508 <_setlocale_r>:
   87508:	b510      	push	{r4, lr}
   8750a:	4614      	mov	r4, r2
   8750c:	b90a      	cbnz	r2, 87512 <_setlocale_r+0xa>
   8750e:	480c      	ldr	r0, [pc, #48]	; (87540 <_setlocale_r+0x38>)
   87510:	bd10      	pop	{r4, pc}
   87512:	4610      	mov	r0, r2
   87514:	490b      	ldr	r1, [pc, #44]	; (87544 <_setlocale_r+0x3c>)
   87516:	f001 f9e0 	bl	888da <strcmp>
   8751a:	2800      	cmp	r0, #0
   8751c:	d0f7      	beq.n	8750e <_setlocale_r+0x6>
   8751e:	4620      	mov	r0, r4
   87520:	4907      	ldr	r1, [pc, #28]	; (87540 <_setlocale_r+0x38>)
   87522:	f001 f9da 	bl	888da <strcmp>
   87526:	2800      	cmp	r0, #0
   87528:	d0f1      	beq.n	8750e <_setlocale_r+0x6>
   8752a:	4620      	mov	r0, r4
   8752c:	4906      	ldr	r1, [pc, #24]	; (87548 <_setlocale_r+0x40>)
   8752e:	f001 f9d4 	bl	888da <strcmp>
   87532:	4b03      	ldr	r3, [pc, #12]	; (87540 <_setlocale_r+0x38>)
   87534:	2800      	cmp	r0, #0
   87536:	bf0c      	ite	eq
   87538:	4618      	moveq	r0, r3
   8753a:	2000      	movne	r0, #0
   8753c:	bd10      	pop	{r4, pc}
   8753e:	bf00      	nop
   87540:	00089b18 	.word	0x00089b18
   87544:	00089cc4 	.word	0x00089cc4
   87548:	00089ccb 	.word	0x00089ccb

0008754c <__locale_charset>:
   8754c:	4800      	ldr	r0, [pc, #0]	; (87550 <__locale_charset+0x4>)
   8754e:	4770      	bx	lr
   87550:	20070474 	.word	0x20070474

00087554 <__locale_mb_cur_max>:
   87554:	4b01      	ldr	r3, [pc, #4]	; (8755c <__locale_mb_cur_max+0x8>)
   87556:	6a18      	ldr	r0, [r3, #32]
   87558:	4770      	bx	lr
   8755a:	bf00      	nop
   8755c:	20070474 	.word	0x20070474

00087560 <__locale_msgcharset>:
   87560:	4800      	ldr	r0, [pc, #0]	; (87564 <__locale_msgcharset+0x4>)
   87562:	4770      	bx	lr
   87564:	20070498 	.word	0x20070498

00087568 <__locale_cjk_lang>:
   87568:	2000      	movs	r0, #0
   8756a:	4770      	bx	lr

0008756c <_localeconv_r>:
   8756c:	4800      	ldr	r0, [pc, #0]	; (87570 <_localeconv_r+0x4>)
   8756e:	4770      	bx	lr
   87570:	200704b8 	.word	0x200704b8

00087574 <setlocale>:
   87574:	460a      	mov	r2, r1
   87576:	4903      	ldr	r1, [pc, #12]	; (87584 <setlocale+0x10>)
   87578:	4603      	mov	r3, r0
   8757a:	6808      	ldr	r0, [r1, #0]
   8757c:	4619      	mov	r1, r3
   8757e:	f7ff bfc3 	b.w	87508 <_setlocale_r>
   87582:	bf00      	nop
   87584:	20070018 	.word	0x20070018

00087588 <localeconv>:
   87588:	4800      	ldr	r0, [pc, #0]	; (8758c <localeconv+0x4>)
   8758a:	4770      	bx	lr
   8758c:	200704b8 	.word	0x200704b8

00087590 <__smakebuf_r>:
   87590:	b5f0      	push	{r4, r5, r6, r7, lr}
   87592:	898b      	ldrh	r3, [r1, #12]
   87594:	460c      	mov	r4, r1
   87596:	f003 0102 	and.w	r1, r3, #2
   8759a:	b20a      	sxth	r2, r1
   8759c:	b091      	sub	sp, #68	; 0x44
   8759e:	4606      	mov	r6, r0
   875a0:	2a00      	cmp	r2, #0
   875a2:	d13f      	bne.n	87624 <__smakebuf_r+0x94>
   875a4:	f9b4 100e 	ldrsh.w	r1, [r4, #14]
   875a8:	2900      	cmp	r1, #0
   875aa:	da0d      	bge.n	875c8 <__smakebuf_r+0x38>
   875ac:	89a7      	ldrh	r7, [r4, #12]
   875ae:	f007 0280 	and.w	r2, r7, #128	; 0x80
   875b2:	f447 6300 	orr.w	r3, r7, #2048	; 0x800
   875b6:	b210      	sxth	r0, r2
   875b8:	2800      	cmp	r0, #0
   875ba:	bf0c      	ite	eq
   875bc:	f44f 6580 	moveq.w	r5, #1024	; 0x400
   875c0:	2540      	movne	r5, #64	; 0x40
   875c2:	81a3      	strh	r3, [r4, #12]
   875c4:	2700      	movs	r7, #0
   875c6:	e020      	b.n	8760a <__smakebuf_r+0x7a>
   875c8:	aa01      	add	r2, sp, #4
   875ca:	f001 fe25 	bl	89218 <_fstat_r>
   875ce:	2800      	cmp	r0, #0
   875d0:	dbec      	blt.n	875ac <__smakebuf_r+0x1c>
   875d2:	9802      	ldr	r0, [sp, #8]
   875d4:	f400 4570 	and.w	r5, r0, #61440	; 0xf000
   875d8:	f5b5 5300 	subs.w	r3, r5, #8192	; 0x2000
   875dc:	425f      	negs	r7, r3
   875de:	415f      	adcs	r7, r3
   875e0:	f5b5 4f00 	cmp.w	r5, #32768	; 0x8000
   875e4:	d10b      	bne.n	875fe <__smakebuf_r+0x6e>
   875e6:	6aa1      	ldr	r1, [r4, #40]	; 0x28
   875e8:	4a1d      	ldr	r2, [pc, #116]	; (87660 <__smakebuf_r+0xd0>)
   875ea:	4291      	cmp	r1, r2
   875ec:	d107      	bne.n	875fe <__smakebuf_r+0x6e>
   875ee:	89a3      	ldrh	r3, [r4, #12]
   875f0:	f44f 6580 	mov.w	r5, #1024	; 0x400
   875f4:	f443 6180 	orr.w	r1, r3, #1024	; 0x400
   875f8:	81a1      	strh	r1, [r4, #12]
   875fa:	64e5      	str	r5, [r4, #76]	; 0x4c
   875fc:	e005      	b.n	8760a <__smakebuf_r+0x7a>
   875fe:	89a0      	ldrh	r0, [r4, #12]
   87600:	f440 6500 	orr.w	r5, r0, #2048	; 0x800
   87604:	81a5      	strh	r5, [r4, #12]
   87606:	f44f 6580 	mov.w	r5, #1024	; 0x400
   8760a:	4630      	mov	r0, r6
   8760c:	4629      	mov	r1, r5
   8760e:	f000 f83b 	bl	87688 <_malloc_r>
   87612:	b970      	cbnz	r0, 87632 <__smakebuf_r+0xa2>
   87614:	89a3      	ldrh	r3, [r4, #12]
   87616:	f403 7200 	and.w	r2, r3, #512	; 0x200
   8761a:	b210      	sxth	r0, r2
   8761c:	b9e8      	cbnz	r0, 8765a <__smakebuf_r+0xca>
   8761e:	f043 0102 	orr.w	r1, r3, #2
   87622:	81a1      	strh	r1, [r4, #12]
   87624:	f104 0343 	add.w	r3, r4, #67	; 0x43
   87628:	2201      	movs	r2, #1
   8762a:	6023      	str	r3, [r4, #0]
   8762c:	6123      	str	r3, [r4, #16]
   8762e:	6162      	str	r2, [r4, #20]
   87630:	e013      	b.n	8765a <__smakebuf_r+0xca>
   87632:	89a2      	ldrh	r2, [r4, #12]
   87634:	490b      	ldr	r1, [pc, #44]	; (87664 <__smakebuf_r+0xd4>)
   87636:	f042 0380 	orr.w	r3, r2, #128	; 0x80
   8763a:	63f1      	str	r1, [r6, #60]	; 0x3c
   8763c:	81a3      	strh	r3, [r4, #12]
   8763e:	6020      	str	r0, [r4, #0]
   87640:	6120      	str	r0, [r4, #16]
   87642:	6165      	str	r5, [r4, #20]
   87644:	b14f      	cbz	r7, 8765a <__smakebuf_r+0xca>
   87646:	4630      	mov	r0, r6
   87648:	f9b4 100e 	ldrsh.w	r1, [r4, #14]
   8764c:	f001 fdf6 	bl	8923c <_isatty_r>
   87650:	b118      	cbz	r0, 8765a <__smakebuf_r+0xca>
   87652:	89a0      	ldrh	r0, [r4, #12]
   87654:	f040 0101 	orr.w	r1, r0, #1
   87658:	81a1      	strh	r1, [r4, #12]
   8765a:	b011      	add	sp, #68	; 0x44
   8765c:	bdf0      	pop	{r4, r5, r6, r7, pc}
   8765e:	bf00      	nop
   87660:	000888af 	.word	0x000888af
   87664:	00086609 	.word	0x00086609

00087668 <malloc>:
   87668:	4b02      	ldr	r3, [pc, #8]	; (87674 <malloc+0xc>)
   8766a:	4601      	mov	r1, r0
   8766c:	6818      	ldr	r0, [r3, #0]
   8766e:	f000 b80b 	b.w	87688 <_malloc_r>
   87672:	bf00      	nop
   87674:	20070018 	.word	0x20070018

00087678 <free>:
   87678:	4b02      	ldr	r3, [pc, #8]	; (87684 <free+0xc>)
   8767a:	4601      	mov	r1, r0
   8767c:	6818      	ldr	r0, [r3, #0]
   8767e:	f7ff b9a5 	b.w	869cc <_free_r>
   87682:	bf00      	nop
   87684:	20070018 	.word	0x20070018

00087688 <_malloc_r>:
   87688:	e92d 47f0 	stmdb	sp!, {r4, r5, r6, r7, r8, r9, sl, lr}
   8768c:	f101 040b 	add.w	r4, r1, #11
   87690:	2c16      	cmp	r4, #22
   87692:	4606      	mov	r6, r0
   87694:	d903      	bls.n	8769e <_malloc_r+0x16>
   87696:	f034 0407 	bics.w	r4, r4, #7
   8769a:	d501      	bpl.n	876a0 <_malloc_r+0x18>
   8769c:	e002      	b.n	876a4 <_malloc_r+0x1c>
   8769e:	2410      	movs	r4, #16
   876a0:	428c      	cmp	r4, r1
   876a2:	d202      	bcs.n	876aa <_malloc_r+0x22>
   876a4:	250c      	movs	r5, #12
   876a6:	6035      	str	r5, [r6, #0]
   876a8:	e1d9      	b.n	87a5e <_malloc_r+0x3d6>
   876aa:	4630      	mov	r0, r6
   876ac:	f000 fa76 	bl	87b9c <__malloc_lock>
   876b0:	f5b4 7ffc 	cmp.w	r4, #504	; 0x1f8
   876b4:	d214      	bcs.n	876e0 <_malloc_r+0x58>
   876b6:	4da0      	ldr	r5, [pc, #640]	; (87938 <_malloc_r+0x2b0>)
   876b8:	08e1      	lsrs	r1, r4, #3
   876ba:	eb05 00c1 	add.w	r0, r5, r1, lsl #3
   876be:	68c5      	ldr	r5, [r0, #12]
   876c0:	4285      	cmp	r5, r0
   876c2:	d105      	bne.n	876d0 <_malloc_r+0x48>
   876c4:	f105 0308 	add.w	r3, r5, #8
   876c8:	696d      	ldr	r5, [r5, #20]
   876ca:	1c8a      	adds	r2, r1, #2
   876cc:	429d      	cmp	r5, r3
   876ce:	d044      	beq.n	8775a <_malloc_r+0xd2>
   876d0:	68e8      	ldr	r0, [r5, #12]
   876d2:	68a9      	ldr	r1, [r5, #8]
   876d4:	686a      	ldr	r2, [r5, #4]
   876d6:	60c8      	str	r0, [r1, #12]
   876d8:	f022 0303 	bic.w	r3, r2, #3
   876dc:	6081      	str	r1, [r0, #8]
   876de:	e059      	b.n	87794 <_malloc_r+0x10c>
   876e0:	0a62      	lsrs	r2, r4, #9
   876e2:	d101      	bne.n	876e8 <_malloc_r+0x60>
   876e4:	08e2      	lsrs	r2, r4, #3
   876e6:	e01b      	b.n	87720 <_malloc_r+0x98>
   876e8:	2a04      	cmp	r2, #4
   876ea:	d802      	bhi.n	876f2 <_malloc_r+0x6a>
   876ec:	09a2      	lsrs	r2, r4, #6
   876ee:	3238      	adds	r2, #56	; 0x38
   876f0:	e016      	b.n	87720 <_malloc_r+0x98>
   876f2:	2a14      	cmp	r2, #20
   876f4:	d801      	bhi.n	876fa <_malloc_r+0x72>
   876f6:	325b      	adds	r2, #91	; 0x5b
   876f8:	e012      	b.n	87720 <_malloc_r+0x98>
   876fa:	2a54      	cmp	r2, #84	; 0x54
   876fc:	d802      	bhi.n	87704 <_malloc_r+0x7c>
   876fe:	0b22      	lsrs	r2, r4, #12
   87700:	326e      	adds	r2, #110	; 0x6e
   87702:	e00d      	b.n	87720 <_malloc_r+0x98>
   87704:	f5b2 7faa 	cmp.w	r2, #340	; 0x154
   87708:	d802      	bhi.n	87710 <_malloc_r+0x88>
   8770a:	0be2      	lsrs	r2, r4, #15
   8770c:	3277      	adds	r2, #119	; 0x77
   8770e:	e007      	b.n	87720 <_malloc_r+0x98>
   87710:	f240 5354 	movw	r3, #1364	; 0x554
   87714:	429a      	cmp	r2, r3
   87716:	d802      	bhi.n	8771e <_malloc_r+0x96>
   87718:	0ca2      	lsrs	r2, r4, #18
   8771a:	327c      	adds	r2, #124	; 0x7c
   8771c:	e000      	b.n	87720 <_malloc_r+0x98>
   8771e:	227e      	movs	r2, #126	; 0x7e
   87720:	4885      	ldr	r0, [pc, #532]	; (87938 <_malloc_r+0x2b0>)
   87722:	eb00 03c2 	add.w	r3, r0, r2, lsl #3
   87726:	68dd      	ldr	r5, [r3, #12]
   87728:	429d      	cmp	r5, r3
   8772a:	d015      	beq.n	87758 <_malloc_r+0xd0>
   8772c:	6869      	ldr	r1, [r5, #4]
   8772e:	f021 0103 	bic.w	r1, r1, #3
   87732:	1b08      	subs	r0, r1, r4
   87734:	280f      	cmp	r0, #15
   87736:	dd01      	ble.n	8773c <_malloc_r+0xb4>
   87738:	3a01      	subs	r2, #1
   8773a:	e00d      	b.n	87758 <_malloc_r+0xd0>
   8773c:	2800      	cmp	r0, #0
   8773e:	db09      	blt.n	87754 <_malloc_r+0xcc>
   87740:	68eb      	ldr	r3, [r5, #12]
   87742:	68aa      	ldr	r2, [r5, #8]
   87744:	60d3      	str	r3, [r2, #12]
   87746:	609a      	str	r2, [r3, #8]
   87748:	186b      	adds	r3, r5, r1
   8774a:	685a      	ldr	r2, [r3, #4]
   8774c:	f042 0001 	orr.w	r0, r2, #1
   87750:	6058      	str	r0, [r3, #4]
   87752:	e190      	b.n	87a76 <_malloc_r+0x3ee>
   87754:	68ed      	ldr	r5, [r5, #12]
   87756:	e7e7      	b.n	87728 <_malloc_r+0xa0>
   87758:	3201      	adds	r2, #1
   8775a:	4977      	ldr	r1, [pc, #476]	; (87938 <_malloc_r+0x2b0>)
   8775c:	690d      	ldr	r5, [r1, #16]
   8775e:	f101 0708 	add.w	r7, r1, #8
   87762:	42bd      	cmp	r5, r7
   87764:	d068      	beq.n	87838 <_malloc_r+0x1b0>
   87766:	6868      	ldr	r0, [r5, #4]
   87768:	f020 0303 	bic.w	r3, r0, #3
   8776c:	1b18      	subs	r0, r3, r4
   8776e:	280f      	cmp	r0, #15
   87770:	dd0c      	ble.n	8778c <_malloc_r+0x104>
   87772:	192b      	adds	r3, r5, r4
   87774:	614b      	str	r3, [r1, #20]
   87776:	610b      	str	r3, [r1, #16]
   87778:	f044 0401 	orr.w	r4, r4, #1
   8777c:	f040 0101 	orr.w	r1, r0, #1
   87780:	606c      	str	r4, [r5, #4]
   87782:	60df      	str	r7, [r3, #12]
   87784:	609f      	str	r7, [r3, #8]
   87786:	6059      	str	r1, [r3, #4]
   87788:	5018      	str	r0, [r3, r0]
   8778a:	e174      	b.n	87a76 <_malloc_r+0x3ee>
   8778c:	2800      	cmp	r0, #0
   8778e:	614f      	str	r7, [r1, #20]
   87790:	610f      	str	r7, [r1, #16]
   87792:	db01      	blt.n	87798 <_malloc_r+0x110>
   87794:	18eb      	adds	r3, r5, r3
   87796:	e7d8      	b.n	8774a <_malloc_r+0xc2>
   87798:	f5b3 7f00 	cmp.w	r3, #512	; 0x200
   8779c:	d20f      	bcs.n	877be <_malloc_r+0x136>
   8779e:	08db      	lsrs	r3, r3, #3
   877a0:	1098      	asrs	r0, r3, #2
   877a2:	2701      	movs	r7, #1
   877a4:	fa07 f700 	lsl.w	r7, r7, r0
   877a8:	6848      	ldr	r0, [r1, #4]
   877aa:	4307      	orrs	r7, r0
   877ac:	604f      	str	r7, [r1, #4]
   877ae:	eb01 01c3 	add.w	r1, r1, r3, lsl #3
   877b2:	688b      	ldr	r3, [r1, #8]
   877b4:	60e9      	str	r1, [r5, #12]
   877b6:	60ab      	str	r3, [r5, #8]
   877b8:	60dd      	str	r5, [r3, #12]
   877ba:	608d      	str	r5, [r1, #8]
   877bc:	e03c      	b.n	87838 <_malloc_r+0x1b0>
   877be:	0a58      	lsrs	r0, r3, #9
   877c0:	2804      	cmp	r0, #4
   877c2:	d802      	bhi.n	877ca <_malloc_r+0x142>
   877c4:	0998      	lsrs	r0, r3, #6
   877c6:	3038      	adds	r0, #56	; 0x38
   877c8:	e016      	b.n	877f8 <_malloc_r+0x170>
   877ca:	2814      	cmp	r0, #20
   877cc:	d801      	bhi.n	877d2 <_malloc_r+0x14a>
   877ce:	305b      	adds	r0, #91	; 0x5b
   877d0:	e012      	b.n	877f8 <_malloc_r+0x170>
   877d2:	2854      	cmp	r0, #84	; 0x54
   877d4:	d802      	bhi.n	877dc <_malloc_r+0x154>
   877d6:	0b18      	lsrs	r0, r3, #12
   877d8:	306e      	adds	r0, #110	; 0x6e
   877da:	e00d      	b.n	877f8 <_malloc_r+0x170>
   877dc:	f5b0 7faa 	cmp.w	r0, #340	; 0x154
   877e0:	d802      	bhi.n	877e8 <_malloc_r+0x160>
   877e2:	0bd8      	lsrs	r0, r3, #15
   877e4:	3077      	adds	r0, #119	; 0x77
   877e6:	e007      	b.n	877f8 <_malloc_r+0x170>
   877e8:	f240 5754 	movw	r7, #1364	; 0x554
   877ec:	42b8      	cmp	r0, r7
   877ee:	d802      	bhi.n	877f6 <_malloc_r+0x16e>
   877f0:	0c98      	lsrs	r0, r3, #18
   877f2:	307c      	adds	r0, #124	; 0x7c
   877f4:	e000      	b.n	877f8 <_malloc_r+0x170>
   877f6:	207e      	movs	r0, #126	; 0x7e
   877f8:	f8df e13c 	ldr.w	lr, [pc, #316]	; 87938 <_malloc_r+0x2b0>
   877fc:	eb0e 07c0 	add.w	r7, lr, r0, lsl #3
   87800:	68b9      	ldr	r1, [r7, #8]
   87802:	42b9      	cmp	r1, r7
   87804:	d10e      	bne.n	87824 <_malloc_r+0x19c>
   87806:	1087      	asrs	r7, r0, #2
   87808:	2301      	movs	r3, #1
   8780a:	fa03 f007 	lsl.w	r0, r3, r7
   8780e:	f8de 7004 	ldr.w	r7, [lr, #4]
   87812:	ea40 0307 	orr.w	r3, r0, r7
   87816:	f8ce 3004 	str.w	r3, [lr, #4]
   8781a:	4608      	mov	r0, r1
   8781c:	e008      	b.n	87830 <_malloc_r+0x1a8>
   8781e:	6889      	ldr	r1, [r1, #8]
   87820:	42b9      	cmp	r1, r7
   87822:	d004      	beq.n	8782e <_malloc_r+0x1a6>
   87824:	6848      	ldr	r0, [r1, #4]
   87826:	f020 0003 	bic.w	r0, r0, #3
   8782a:	4283      	cmp	r3, r0
   8782c:	d3f7      	bcc.n	8781e <_malloc_r+0x196>
   8782e:	68c8      	ldr	r0, [r1, #12]
   87830:	60e8      	str	r0, [r5, #12]
   87832:	60a9      	str	r1, [r5, #8]
   87834:	60cd      	str	r5, [r1, #12]
   87836:	6085      	str	r5, [r0, #8]
   87838:	1095      	asrs	r5, r2, #2
   8783a:	2001      	movs	r0, #1
   8783c:	fa00 f305 	lsl.w	r3, r0, r5
   87840:	4f3d      	ldr	r7, [pc, #244]	; (87938 <_malloc_r+0x2b0>)
   87842:	6879      	ldr	r1, [r7, #4]
   87844:	428b      	cmp	r3, r1
   87846:	d85d      	bhi.n	87904 <_malloc_r+0x27c>
   87848:	420b      	tst	r3, r1
   8784a:	d105      	bne.n	87858 <_malloc_r+0x1d0>
   8784c:	f022 0203 	bic.w	r2, r2, #3
   87850:	005b      	lsls	r3, r3, #1
   87852:	3204      	adds	r2, #4
   87854:	420b      	tst	r3, r1
   87856:	d0fb      	beq.n	87850 <_malloc_r+0x1c8>
   87858:	4d37      	ldr	r5, [pc, #220]	; (87938 <_malloc_r+0x2b0>)
   8785a:	4610      	mov	r0, r2
   8785c:	eb05 0ec2 	add.w	lr, r5, r2, lsl #3
   87860:	4677      	mov	r7, lr
   87862:	68fd      	ldr	r5, [r7, #12]
   87864:	42bd      	cmp	r5, r7
   87866:	d02d      	beq.n	878c4 <_malloc_r+0x23c>
   87868:	6869      	ldr	r1, [r5, #4]
   8786a:	f021 0c03 	bic.w	ip, r1, #3
   8786e:	ebc4 010c 	rsb	r1, r4, ip
   87872:	290f      	cmp	r1, #15
   87874:	dd13      	ble.n	8789e <_malloc_r+0x216>
   87876:	192b      	adds	r3, r5, r4
   87878:	f044 0401 	orr.w	r4, r4, #1
   8787c:	68ea      	ldr	r2, [r5, #12]
   8787e:	606c      	str	r4, [r5, #4]
   87880:	f855 0f08 	ldr.w	r0, [r5, #8]!
   87884:	5059      	str	r1, [r3, r1]
   87886:	60c2      	str	r2, [r0, #12]
   87888:	6090      	str	r0, [r2, #8]
   8788a:	4a2b      	ldr	r2, [pc, #172]	; (87938 <_malloc_r+0x2b0>)
   8788c:	f041 0001 	orr.w	r0, r1, #1
   87890:	6153      	str	r3, [r2, #20]
   87892:	6113      	str	r3, [r2, #16]
   87894:	3208      	adds	r2, #8
   87896:	60da      	str	r2, [r3, #12]
   87898:	609a      	str	r2, [r3, #8]
   8789a:	6058      	str	r0, [r3, #4]
   8789c:	e00c      	b.n	878b8 <_malloc_r+0x230>
   8789e:	2900      	cmp	r1, #0
   878a0:	db0e      	blt.n	878c0 <_malloc_r+0x238>
   878a2:	eb05 000c 	add.w	r0, r5, ip
   878a6:	6842      	ldr	r2, [r0, #4]
   878a8:	68e9      	ldr	r1, [r5, #12]
   878aa:	f042 0301 	orr.w	r3, r2, #1
   878ae:	6043      	str	r3, [r0, #4]
   878b0:	f855 0f08 	ldr.w	r0, [r5, #8]!
   878b4:	60c1      	str	r1, [r0, #12]
   878b6:	6088      	str	r0, [r1, #8]
   878b8:	4630      	mov	r0, r6
   878ba:	f000 f970 	bl	87b9e <__malloc_unlock>
   878be:	e0de      	b.n	87a7e <_malloc_r+0x3f6>
   878c0:	68ed      	ldr	r5, [r5, #12]
   878c2:	e7cf      	b.n	87864 <_malloc_r+0x1dc>
   878c4:	3001      	adds	r0, #1
   878c6:	0781      	lsls	r1, r0, #30
   878c8:	f105 0708 	add.w	r7, r5, #8
   878cc:	d1c9      	bne.n	87862 <_malloc_r+0x1da>
   878ce:	4671      	mov	r1, lr
   878d0:	0795      	lsls	r5, r2, #30
   878d2:	d105      	bne.n	878e0 <_malloc_r+0x258>
   878d4:	4a18      	ldr	r2, [pc, #96]	; (87938 <_malloc_r+0x2b0>)
   878d6:	6855      	ldr	r5, [r2, #4]
   878d8:	ea25 0503 	bic.w	r5, r5, r3
   878dc:	6055      	str	r5, [r2, #4]
   878de:	e005      	b.n	878ec <_malloc_r+0x264>
   878e0:	f1a1 0708 	sub.w	r7, r1, #8
   878e4:	6809      	ldr	r1, [r1, #0]
   878e6:	3a01      	subs	r2, #1
   878e8:	42b9      	cmp	r1, r7
   878ea:	d0f1      	beq.n	878d0 <_malloc_r+0x248>
   878ec:	4f12      	ldr	r7, [pc, #72]	; (87938 <_malloc_r+0x2b0>)
   878ee:	005b      	lsls	r3, r3, #1
   878f0:	687f      	ldr	r7, [r7, #4]
   878f2:	42bb      	cmp	r3, r7
   878f4:	d806      	bhi.n	87904 <_malloc_r+0x27c>
   878f6:	b12b      	cbz	r3, 87904 <_malloc_r+0x27c>
   878f8:	4602      	mov	r2, r0
   878fa:	423b      	tst	r3, r7
   878fc:	d1ac      	bne.n	87858 <_malloc_r+0x1d0>
   878fe:	3204      	adds	r2, #4
   87900:	005b      	lsls	r3, r3, #1
   87902:	e7fa      	b.n	878fa <_malloc_r+0x272>
   87904:	4b0c      	ldr	r3, [pc, #48]	; (87938 <_malloc_r+0x2b0>)
   87906:	689f      	ldr	r7, [r3, #8]
   87908:	4619      	mov	r1, r3
   8790a:	6878      	ldr	r0, [r7, #4]
   8790c:	f020 0903 	bic.w	r9, r0, #3
   87910:	45a1      	cmp	r9, r4
   87912:	d304      	bcc.n	8791e <_malloc_r+0x296>
   87914:	ebc4 0009 	rsb	r0, r4, r9
   87918:	280f      	cmp	r0, #15
   8791a:	f300 80a2 	bgt.w	87a62 <_malloc_r+0x3da>
   8791e:	4a07      	ldr	r2, [pc, #28]	; (8793c <_malloc_r+0x2b4>)
   87920:	f8d1 3408 	ldr.w	r3, [r1, #1032]	; 0x408
   87924:	6815      	ldr	r5, [r2, #0]
   87926:	3301      	adds	r3, #1
   87928:	eb07 0a09 	add.w	sl, r7, r9
   8792c:	eb04 0805 	add.w	r8, r4, r5
   87930:	d106      	bne.n	87940 <_malloc_r+0x2b8>
   87932:	f108 0810 	add.w	r8, r8, #16
   87936:	e00b      	b.n	87950 <_malloc_r+0x2c8>
   87938:	200704f0 	.word	0x200704f0
   8793c:	2007abc8 	.word	0x2007abc8
   87940:	f508 5080 	add.w	r0, r8, #4096	; 0x1000
   87944:	f100 010f 	add.w	r1, r0, #15
   87948:	f421 627f 	bic.w	r2, r1, #4080	; 0xff0
   8794c:	f022 080f 	bic.w	r8, r2, #15
   87950:	4630      	mov	r0, r6
   87952:	4641      	mov	r1, r8
   87954:	f000 ff36 	bl	887c4 <_sbrk_r>
   87958:	1c42      	adds	r2, r0, #1
   8795a:	4605      	mov	r5, r0
   8795c:	d071      	beq.n	87a42 <_malloc_r+0x3ba>
   8795e:	4550      	cmp	r0, sl
   87960:	d202      	bcs.n	87968 <_malloc_r+0x2e0>
   87962:	4b48      	ldr	r3, [pc, #288]	; (87a84 <_malloc_r+0x3fc>)
   87964:	429f      	cmp	r7, r3
   87966:	d16c      	bne.n	87a42 <_malloc_r+0x3ba>
   87968:	4847      	ldr	r0, [pc, #284]	; (87a88 <_malloc_r+0x400>)
   8796a:	4555      	cmp	r5, sl
   8796c:	6841      	ldr	r1, [r0, #4]
   8796e:	4a45      	ldr	r2, [pc, #276]	; (87a84 <_malloc_r+0x3fc>)
   87970:	eb08 0301 	add.w	r3, r8, r1
   87974:	6043      	str	r3, [r0, #4]
   87976:	d107      	bne.n	87988 <_malloc_r+0x300>
   87978:	0529      	lsls	r1, r5, #20
   8797a:	d105      	bne.n	87988 <_malloc_r+0x300>
   8797c:	6895      	ldr	r5, [r2, #8]
   8797e:	44c8      	add	r8, r9
   87980:	f048 0001 	orr.w	r0, r8, #1
   87984:	6068      	str	r0, [r5, #4]
   87986:	e051      	b.n	87a2c <_malloc_r+0x3a4>
   87988:	f8d2 0408 	ldr.w	r0, [r2, #1032]	; 0x408
   8798c:	1c42      	adds	r2, r0, #1
   8798e:	d103      	bne.n	87998 <_malloc_r+0x310>
   87990:	4a3c      	ldr	r2, [pc, #240]	; (87a84 <_malloc_r+0x3fc>)
   87992:	f8c2 5408 	str.w	r5, [r2, #1032]	; 0x408
   87996:	e005      	b.n	879a4 <_malloc_r+0x31c>
   87998:	ebca 0a05 	rsb	sl, sl, r5
   8799c:	eb03 010a 	add.w	r1, r3, sl
   879a0:	4b39      	ldr	r3, [pc, #228]	; (87a88 <_malloc_r+0x400>)
   879a2:	6059      	str	r1, [r3, #4]
   879a4:	f015 0007 	ands.w	r0, r5, #7
   879a8:	bf1c      	itt	ne
   879aa:	f1c0 0008 	rsbne	r0, r0, #8
   879ae:	182d      	addne	r5, r5, r0
   879b0:	eb05 0c08 	add.w	ip, r5, r8
   879b4:	f500 5180 	add.w	r1, r0, #4096	; 0x1000
   879b8:	ea4f 5e0c 	mov.w	lr, ip, lsl #20
   879bc:	eba1 581e 	sub.w	r8, r1, lr, lsr #20
   879c0:	4641      	mov	r1, r8
   879c2:	4630      	mov	r0, r6
   879c4:	f000 fefe 	bl	887c4 <_sbrk_r>
   879c8:	4a2f      	ldr	r2, [pc, #188]	; (87a88 <_malloc_r+0x400>)
   879ca:	1c43      	adds	r3, r0, #1
   879cc:	6853      	ldr	r3, [r2, #4]
   879ce:	bf08      	it	eq
   879d0:	f04f 0800 	moveq.w	r8, #0
   879d4:	eb08 0103 	add.w	r1, r8, r3
   879d8:	bf08      	it	eq
   879da:	4628      	moveq	r0, r5
   879dc:	6051      	str	r1, [r2, #4]
   879de:	1b40      	subs	r0, r0, r5
   879e0:	4a28      	ldr	r2, [pc, #160]	; (87a84 <_malloc_r+0x3fc>)
   879e2:	eb00 0308 	add.w	r3, r0, r8
   879e6:	f043 0101 	orr.w	r1, r3, #1
   879ea:	4297      	cmp	r7, r2
   879ec:	6095      	str	r5, [r2, #8]
   879ee:	6069      	str	r1, [r5, #4]
   879f0:	d01c      	beq.n	87a2c <_malloc_r+0x3a4>
   879f2:	f1b9 0f0f 	cmp.w	r9, #15
   879f6:	d802      	bhi.n	879fe <_malloc_r+0x376>
   879f8:	2201      	movs	r2, #1
   879fa:	606a      	str	r2, [r5, #4]
   879fc:	e021      	b.n	87a42 <_malloc_r+0x3ba>
   879fe:	687d      	ldr	r5, [r7, #4]
   87a00:	f1a9 090c 	sub.w	r9, r9, #12
   87a04:	f029 0907 	bic.w	r9, r9, #7
   87a08:	f005 0201 	and.w	r2, r5, #1
   87a0c:	2105      	movs	r1, #5
   87a0e:	eb07 0309 	add.w	r3, r7, r9
   87a12:	ea49 0002 	orr.w	r0, r9, r2
   87a16:	f1b9 0f0f 	cmp.w	r9, #15
   87a1a:	6078      	str	r0, [r7, #4]
   87a1c:	6059      	str	r1, [r3, #4]
   87a1e:	6099      	str	r1, [r3, #8]
   87a20:	d904      	bls.n	87a2c <_malloc_r+0x3a4>
   87a22:	4630      	mov	r0, r6
   87a24:	f107 0108 	add.w	r1, r7, #8
   87a28:	f7fe ffd0 	bl	869cc <_free_r>
   87a2c:	4a16      	ldr	r2, [pc, #88]	; (87a88 <_malloc_r+0x400>)
   87a2e:	6853      	ldr	r3, [r2, #4]
   87a30:	6ad1      	ldr	r1, [r2, #44]	; 0x2c
   87a32:	6b15      	ldr	r5, [r2, #48]	; 0x30
   87a34:	428b      	cmp	r3, r1
   87a36:	bf88      	it	hi
   87a38:	62d3      	strhi	r3, [r2, #44]	; 0x2c
   87a3a:	42ab      	cmp	r3, r5
   87a3c:	bf84      	itt	hi
   87a3e:	4d12      	ldrhi	r5, [pc, #72]	; (87a88 <_malloc_r+0x400>)
   87a40:	632b      	strhi	r3, [r5, #48]	; 0x30
   87a42:	4810      	ldr	r0, [pc, #64]	; (87a84 <_malloc_r+0x3fc>)
   87a44:	6882      	ldr	r2, [r0, #8]
   87a46:	6853      	ldr	r3, [r2, #4]
   87a48:	f023 0103 	bic.w	r1, r3, #3
   87a4c:	42a1      	cmp	r1, r4
   87a4e:	ebc4 0001 	rsb	r0, r4, r1
   87a52:	d301      	bcc.n	87a58 <_malloc_r+0x3d0>
   87a54:	280f      	cmp	r0, #15
   87a56:	dc04      	bgt.n	87a62 <_malloc_r+0x3da>
   87a58:	4630      	mov	r0, r6
   87a5a:	f000 f8a0 	bl	87b9e <__malloc_unlock>
   87a5e:	2500      	movs	r5, #0
   87a60:	e00d      	b.n	87a7e <_malloc_r+0x3f6>
   87a62:	4a08      	ldr	r2, [pc, #32]	; (87a84 <_malloc_r+0x3fc>)
   87a64:	f044 0301 	orr.w	r3, r4, #1
   87a68:	6895      	ldr	r5, [r2, #8]
   87a6a:	f040 0101 	orr.w	r1, r0, #1
   87a6e:	192c      	adds	r4, r5, r4
   87a70:	606b      	str	r3, [r5, #4]
   87a72:	6094      	str	r4, [r2, #8]
   87a74:	6061      	str	r1, [r4, #4]
   87a76:	4630      	mov	r0, r6
   87a78:	f000 f891 	bl	87b9e <__malloc_unlock>
   87a7c:	3508      	adds	r5, #8
   87a7e:	4628      	mov	r0, r5
   87a80:	e8bd 87f0 	ldmia.w	sp!, {r4, r5, r6, r7, r8, r9, sl, pc}
   87a84:	200704f0 	.word	0x200704f0
   87a88:	2007abc8 	.word	0x2007abc8

00087a8c <_mbrtowc_r>:
   87a8c:	e92d 43f7 	stmdb	sp!, {r0, r1, r2, r4, r5, r6, r7, r8, r9, lr}
   87a90:	4616      	mov	r6, r2
   87a92:	4a10      	ldr	r2, [pc, #64]	; (87ad4 <_mbrtowc_r+0x48>)
   87a94:	4604      	mov	r4, r0
   87a96:	4689      	mov	r9, r1
   87a98:	4698      	mov	r8, r3
   87a9a:	9d0a      	ldr	r5, [sp, #40]	; 0x28
   87a9c:	6817      	ldr	r7, [r2, #0]
   87a9e:	b946      	cbnz	r6, 87ab2 <_mbrtowc_r+0x26>
   87aa0:	f7ff fd54 	bl	8754c <__locale_charset>
   87aa4:	4631      	mov	r1, r6
   87aa6:	e88d 0021 	stmia.w	sp, {r0, r5}
   87aaa:	4a0b      	ldr	r2, [pc, #44]	; (87ad8 <_mbrtowc_r+0x4c>)
   87aac:	4620      	mov	r0, r4
   87aae:	2301      	movs	r3, #1
   87ab0:	e007      	b.n	87ac2 <_mbrtowc_r+0x36>
   87ab2:	f7ff fd4b 	bl	8754c <__locale_charset>
   87ab6:	4649      	mov	r1, r9
   87ab8:	e88d 0021 	stmia.w	sp, {r0, r5}
   87abc:	4632      	mov	r2, r6
   87abe:	4620      	mov	r0, r4
   87ac0:	4643      	mov	r3, r8
   87ac2:	47b8      	blx	r7
   87ac4:	1c43      	adds	r3, r0, #1
   87ac6:	d103      	bne.n	87ad0 <_mbrtowc_r+0x44>
   87ac8:	2300      	movs	r3, #0
   87aca:	218a      	movs	r1, #138	; 0x8a
   87acc:	602b      	str	r3, [r5, #0]
   87ace:	6021      	str	r1, [r4, #0]
   87ad0:	e8bd 83fe 	ldmia.w	sp!, {r1, r2, r3, r4, r5, r6, r7, r8, r9, pc}
   87ad4:	20070900 	.word	0x20070900
   87ad8:	00089ccb 	.word	0x00089ccb

00087adc <mbrtowc>:
   87adc:	b573      	push	{r0, r1, r4, r5, r6, lr}
   87ade:	9300      	str	r3, [sp, #0]
   87ae0:	4b05      	ldr	r3, [pc, #20]	; (87af8 <mbrtowc+0x1c>)
   87ae2:	4606      	mov	r6, r0
   87ae4:	460d      	mov	r5, r1
   87ae6:	4614      	mov	r4, r2
   87ae8:	6818      	ldr	r0, [r3, #0]
   87aea:	4631      	mov	r1, r6
   87aec:	462a      	mov	r2, r5
   87aee:	4623      	mov	r3, r4
   87af0:	f7ff ffcc 	bl	87a8c <_mbrtowc_r>
   87af4:	bd7c      	pop	{r2, r3, r4, r5, r6, pc}
   87af6:	bf00      	nop
   87af8:	20070018 	.word	0x20070018

00087afc <__ascii_mbtowc>:
   87afc:	b082      	sub	sp, #8
   87afe:	b901      	cbnz	r1, 87b02 <__ascii_mbtowc+0x6>
   87b00:	a901      	add	r1, sp, #4
   87b02:	b13a      	cbz	r2, 87b14 <__ascii_mbtowc+0x18>
   87b04:	b143      	cbz	r3, 87b18 <__ascii_mbtowc+0x1c>
   87b06:	7813      	ldrb	r3, [r2, #0]
   87b08:	600b      	str	r3, [r1, #0]
   87b0a:	7810      	ldrb	r0, [r2, #0]
   87b0c:	3000      	adds	r0, #0
   87b0e:	bf18      	it	ne
   87b10:	2001      	movne	r0, #1
   87b12:	e003      	b.n	87b1c <__ascii_mbtowc+0x20>
   87b14:	4610      	mov	r0, r2
   87b16:	e001      	b.n	87b1c <__ascii_mbtowc+0x20>
   87b18:	f06f 0001 	mvn.w	r0, #1
   87b1c:	b002      	add	sp, #8
   87b1e:	4770      	bx	lr

00087b20 <_mbtowc_r>:
   87b20:	e92d 43f7 	stmdb	sp!, {r0, r1, r2, r4, r5, r6, r7, r8, r9, lr}
   87b24:	461f      	mov	r7, r3
   87b26:	4b08      	ldr	r3, [pc, #32]	; (87b48 <_mbtowc_r+0x28>)
   87b28:	4606      	mov	r6, r0
   87b2a:	4689      	mov	r9, r1
   87b2c:	4690      	mov	r8, r2
   87b2e:	681c      	ldr	r4, [r3, #0]
   87b30:	f7ff fd0c 	bl	8754c <__locale_charset>
   87b34:	9d0a      	ldr	r5, [sp, #40]	; 0x28
   87b36:	9000      	str	r0, [sp, #0]
   87b38:	9501      	str	r5, [sp, #4]
   87b3a:	4630      	mov	r0, r6
   87b3c:	4649      	mov	r1, r9
   87b3e:	4642      	mov	r2, r8
   87b40:	463b      	mov	r3, r7
   87b42:	47a0      	blx	r4
   87b44:	e8bd 83fe 	ldmia.w	sp!, {r1, r2, r3, r4, r5, r6, r7, r8, r9, pc}
   87b48:	20070900 	.word	0x20070900

00087b4c <memchr>:
   87b4c:	b510      	push	{r4, lr}
   87b4e:	b2c9      	uxtb	r1, r1
   87b50:	4603      	mov	r3, r0
   87b52:	1882      	adds	r2, r0, r2
   87b54:	4293      	cmp	r3, r2
   87b56:	4618      	mov	r0, r3
   87b58:	d004      	beq.n	87b64 <memchr+0x18>
   87b5a:	7804      	ldrb	r4, [r0, #0]
   87b5c:	3301      	adds	r3, #1
   87b5e:	428c      	cmp	r4, r1
   87b60:	d1f8      	bne.n	87b54 <memchr+0x8>
   87b62:	e000      	b.n	87b66 <memchr+0x1a>
   87b64:	2000      	movs	r0, #0
   87b66:	bd10      	pop	{r4, pc}

00087b68 <memmove>:
   87b68:	4281      	cmp	r1, r0
   87b6a:	b570      	push	{r4, r5, r6, lr}
   87b6c:	d20e      	bcs.n	87b8c <memmove+0x24>
   87b6e:	188c      	adds	r4, r1, r2
   87b70:	42a0      	cmp	r0, r4
   87b72:	d20b      	bcs.n	87b8c <memmove+0x24>
   87b74:	1885      	adds	r5, r0, r2
   87b76:	4613      	mov	r3, r2
   87b78:	f113 33ff 	adds.w	r3, r3, #4294967295
   87b7c:	d305      	bcc.n	87b8a <memmove+0x22>
   87b7e:	4251      	negs	r1, r2
   87b80:	1866      	adds	r6, r4, r1
   87b82:	5cf6      	ldrb	r6, [r6, r3]
   87b84:	1869      	adds	r1, r5, r1
   87b86:	54ce      	strb	r6, [r1, r3]
   87b88:	e7f6      	b.n	87b78 <memmove+0x10>
   87b8a:	bd70      	pop	{r4, r5, r6, pc}
   87b8c:	2300      	movs	r3, #0
   87b8e:	4293      	cmp	r3, r2
   87b90:	d003      	beq.n	87b9a <memmove+0x32>
   87b92:	5ccc      	ldrb	r4, [r1, r3]
   87b94:	54c4      	strb	r4, [r0, r3]
   87b96:	3301      	adds	r3, #1
   87b98:	e7f9      	b.n	87b8e <memmove+0x26>
   87b9a:	bd70      	pop	{r4, r5, r6, pc}

00087b9c <__malloc_lock>:
   87b9c:	4770      	bx	lr

00087b9e <__malloc_unlock>:
   87b9e:	4770      	bx	lr

00087ba0 <_Balloc>:
   87ba0:	6cc3      	ldr	r3, [r0, #76]	; 0x4c
   87ba2:	b570      	push	{r4, r5, r6, lr}
   87ba4:	4605      	mov	r5, r0
   87ba6:	460c      	mov	r4, r1
   87ba8:	b13b      	cbz	r3, 87bba <_Balloc+0x1a>
   87baa:	6ce9      	ldr	r1, [r5, #76]	; 0x4c
   87bac:	f851 0024 	ldr.w	r0, [r1, r4, lsl #2]
   87bb0:	b160      	cbz	r0, 87bcc <_Balloc+0x2c>
   87bb2:	6803      	ldr	r3, [r0, #0]
   87bb4:	f841 3024 	str.w	r3, [r1, r4, lsl #2]
   87bb8:	e014      	b.n	87be4 <_Balloc+0x44>
   87bba:	2104      	movs	r1, #4
   87bbc:	2221      	movs	r2, #33	; 0x21
   87bbe:	f001 faa3 	bl	89108 <_calloc_r>
   87bc2:	64e8      	str	r0, [r5, #76]	; 0x4c
   87bc4:	2800      	cmp	r0, #0
   87bc6:	d1f0      	bne.n	87baa <_Balloc+0xa>
   87bc8:	2000      	movs	r0, #0
   87bca:	bd70      	pop	{r4, r5, r6, pc}
   87bcc:	2101      	movs	r1, #1
   87bce:	fa01 f604 	lsl.w	r6, r1, r4
   87bd2:	1d72      	adds	r2, r6, #5
   87bd4:	4628      	mov	r0, r5
   87bd6:	0092      	lsls	r2, r2, #2
   87bd8:	f001 fa96 	bl	89108 <_calloc_r>
   87bdc:	2800      	cmp	r0, #0
   87bde:	d0f3      	beq.n	87bc8 <_Balloc+0x28>
   87be0:	6044      	str	r4, [r0, #4]
   87be2:	6086      	str	r6, [r0, #8]
   87be4:	2100      	movs	r1, #0
   87be6:	6101      	str	r1, [r0, #16]
   87be8:	60c1      	str	r1, [r0, #12]
   87bea:	bd70      	pop	{r4, r5, r6, pc}

00087bec <_Bfree>:
   87bec:	b131      	cbz	r1, 87bfc <_Bfree+0x10>
   87bee:	6cc3      	ldr	r3, [r0, #76]	; 0x4c
   87bf0:	684a      	ldr	r2, [r1, #4]
   87bf2:	f853 0022 	ldr.w	r0, [r3, r2, lsl #2]
   87bf6:	6008      	str	r0, [r1, #0]
   87bf8:	f843 1022 	str.w	r1, [r3, r2, lsl #2]
   87bfc:	4770      	bx	lr

00087bfe <__multadd>:
   87bfe:	e92d 41f0 	stmdb	sp!, {r4, r5, r6, r7, r8, lr}
   87c02:	460c      	mov	r4, r1
   87c04:	461e      	mov	r6, r3
   87c06:	690d      	ldr	r5, [r1, #16]
   87c08:	4607      	mov	r7, r0
   87c0a:	f101 0114 	add.w	r1, r1, #20
   87c0e:	2300      	movs	r3, #0
   87c10:	6808      	ldr	r0, [r1, #0]
   87c12:	3301      	adds	r3, #1
   87c14:	fa1f fc80 	uxth.w	ip, r0
   87c18:	fb02 6c0c 	mla	ip, r2, ip, r6
   87c1c:	0c06      	lsrs	r6, r0, #16
   87c1e:	4356      	muls	r6, r2
   87c20:	eb06 401c 	add.w	r0, r6, ip, lsr #16
   87c24:	fa1f fc8c 	uxth.w	ip, ip
   87c28:	0c06      	lsrs	r6, r0, #16
   87c2a:	eb0c 4000 	add.w	r0, ip, r0, lsl #16
   87c2e:	42ab      	cmp	r3, r5
   87c30:	f841 0b04 	str.w	r0, [r1], #4
   87c34:	dbec      	blt.n	87c10 <__multadd+0x12>
   87c36:	b1de      	cbz	r6, 87c70 <__multadd+0x72>
   87c38:	68a2      	ldr	r2, [r4, #8]
   87c3a:	4295      	cmp	r5, r2
   87c3c:	db13      	blt.n	87c66 <__multadd+0x68>
   87c3e:	6861      	ldr	r1, [r4, #4]
   87c40:	4638      	mov	r0, r7
   87c42:	3101      	adds	r1, #1
   87c44:	f7ff ffac 	bl	87ba0 <_Balloc>
   87c48:	4680      	mov	r8, r0
   87c4a:	6920      	ldr	r0, [r4, #16]
   87c4c:	f104 010c 	add.w	r1, r4, #12
   87c50:	1c83      	adds	r3, r0, #2
   87c52:	009a      	lsls	r2, r3, #2
   87c54:	f108 000c 	add.w	r0, r8, #12
   87c58:	f7fc fc9a 	bl	84590 <memcpy>
   87c5c:	4621      	mov	r1, r4
   87c5e:	4638      	mov	r0, r7
   87c60:	f7ff ffc4 	bl	87bec <_Bfree>
   87c64:	4644      	mov	r4, r8
   87c66:	eb04 0285 	add.w	r2, r4, r5, lsl #2
   87c6a:	3501      	adds	r5, #1
   87c6c:	6156      	str	r6, [r2, #20]
   87c6e:	6125      	str	r5, [r4, #16]
   87c70:	4620      	mov	r0, r4
   87c72:	e8bd 81f0 	ldmia.w	sp!, {r4, r5, r6, r7, r8, pc}

00087c76 <__s2b>:
   87c76:	e92d 43f8 	stmdb	sp!, {r3, r4, r5, r6, r7, r8, r9, lr}
   87c7a:	4614      	mov	r4, r2
   87c7c:	4698      	mov	r8, r3
   87c7e:	f103 0208 	add.w	r2, r3, #8
   87c82:	2309      	movs	r3, #9
   87c84:	4605      	mov	r5, r0
   87c86:	460e      	mov	r6, r1
   87c88:	fb92 f0f3 	sdiv	r0, r2, r3
   87c8c:	2100      	movs	r1, #0
   87c8e:	2301      	movs	r3, #1
   87c90:	4298      	cmp	r0, r3
   87c92:	dd02      	ble.n	87c9a <__s2b+0x24>
   87c94:	005b      	lsls	r3, r3, #1
   87c96:	3101      	adds	r1, #1
   87c98:	e7fa      	b.n	87c90 <__s2b+0x1a>
   87c9a:	4628      	mov	r0, r5
   87c9c:	f7ff ff80 	bl	87ba0 <_Balloc>
   87ca0:	4601      	mov	r1, r0
   87ca2:	9808      	ldr	r0, [sp, #32]
   87ca4:	2701      	movs	r7, #1
   87ca6:	2c09      	cmp	r4, #9
   87ca8:	6148      	str	r0, [r1, #20]
   87caa:	610f      	str	r7, [r1, #16]
   87cac:	dd12      	ble.n	87cd4 <__s2b+0x5e>
   87cae:	f106 0909 	add.w	r9, r6, #9
   87cb2:	464f      	mov	r7, r9
   87cb4:	1936      	adds	r6, r6, r4
   87cb6:	f817 3b01 	ldrb.w	r3, [r7], #1
   87cba:	220a      	movs	r2, #10
   87cbc:	3b30      	subs	r3, #48	; 0x30
   87cbe:	4628      	mov	r0, r5
   87cc0:	f7ff ff9d 	bl	87bfe <__multadd>
   87cc4:	42b7      	cmp	r7, r6
   87cc6:	4601      	mov	r1, r0
   87cc8:	d1f5      	bne.n	87cb6 <__s2b+0x40>
   87cca:	eb09 0704 	add.w	r7, r9, r4
   87cce:	3f08      	subs	r7, #8
   87cd0:	4626      	mov	r6, r4
   87cd2:	e002      	b.n	87cda <__s2b+0x64>
   87cd4:	f106 070a 	add.w	r7, r6, #10
   87cd8:	2609      	movs	r6, #9
   87cda:	4634      	mov	r4, r6
   87cdc:	4544      	cmp	r4, r8
   87cde:	da09      	bge.n	87cf4 <__s2b+0x7e>
   87ce0:	1bba      	subs	r2, r7, r6
   87ce2:	5d13      	ldrb	r3, [r2, r4]
   87ce4:	4628      	mov	r0, r5
   87ce6:	220a      	movs	r2, #10
   87ce8:	3b30      	subs	r3, #48	; 0x30
   87cea:	f7ff ff88 	bl	87bfe <__multadd>
   87cee:	3401      	adds	r4, #1
   87cf0:	4601      	mov	r1, r0
   87cf2:	e7f3      	b.n	87cdc <__s2b+0x66>
   87cf4:	4608      	mov	r0, r1
   87cf6:	e8bd 83f8 	ldmia.w	sp!, {r3, r4, r5, r6, r7, r8, r9, pc}

00087cfa <__hi0bits>:
   87cfa:	0c02      	lsrs	r2, r0, #16
   87cfc:	4603      	mov	r3, r0
   87cfe:	0410      	lsls	r0, r2, #16
   87d00:	b910      	cbnz	r0, 87d08 <__hi0bits+0xe>
   87d02:	041b      	lsls	r3, r3, #16
   87d04:	2010      	movs	r0, #16
   87d06:	e000      	b.n	87d0a <__hi0bits+0x10>
   87d08:	2000      	movs	r0, #0
   87d0a:	f013 4f7f 	tst.w	r3, #4278190080	; 0xff000000
   87d0e:	d101      	bne.n	87d14 <__hi0bits+0x1a>
   87d10:	3008      	adds	r0, #8
   87d12:	021b      	lsls	r3, r3, #8
   87d14:	f013 4f70 	tst.w	r3, #4026531840	; 0xf0000000
   87d18:	d101      	bne.n	87d1e <__hi0bits+0x24>
   87d1a:	3004      	adds	r0, #4
   87d1c:	011b      	lsls	r3, r3, #4
   87d1e:	f013 4f40 	tst.w	r3, #3221225472	; 0xc0000000
   87d22:	d101      	bne.n	87d28 <__hi0bits+0x2e>
   87d24:	3002      	adds	r0, #2
   87d26:	009b      	lsls	r3, r3, #2
   87d28:	2b00      	cmp	r3, #0
   87d2a:	db04      	blt.n	87d36 <__hi0bits+0x3c>
   87d2c:	005b      	lsls	r3, r3, #1
   87d2e:	d501      	bpl.n	87d34 <__hi0bits+0x3a>
   87d30:	3001      	adds	r0, #1
   87d32:	4770      	bx	lr
   87d34:	2020      	movs	r0, #32
   87d36:	4770      	bx	lr

00087d38 <__lo0bits>:
   87d38:	6803      	ldr	r3, [r0, #0]
   87d3a:	4602      	mov	r2, r0
   87d3c:	f013 0007 	ands.w	r0, r3, #7
   87d40:	d00b      	beq.n	87d5a <__lo0bits+0x22>
   87d42:	07d9      	lsls	r1, r3, #31
   87d44:	d421      	bmi.n	87d8a <__lo0bits+0x52>
   87d46:	0798      	lsls	r0, r3, #30
   87d48:	d503      	bpl.n	87d52 <__lo0bits+0x1a>
   87d4a:	0859      	lsrs	r1, r3, #1
   87d4c:	6011      	str	r1, [r2, #0]
   87d4e:	2001      	movs	r0, #1
   87d50:	4770      	bx	lr
   87d52:	0898      	lsrs	r0, r3, #2
   87d54:	6010      	str	r0, [r2, #0]
   87d56:	2002      	movs	r0, #2
   87d58:	4770      	bx	lr
   87d5a:	b299      	uxth	r1, r3
   87d5c:	b909      	cbnz	r1, 87d62 <__lo0bits+0x2a>
   87d5e:	0c1b      	lsrs	r3, r3, #16
   87d60:	2010      	movs	r0, #16
   87d62:	f013 0fff 	tst.w	r3, #255	; 0xff
   87d66:	d101      	bne.n	87d6c <__lo0bits+0x34>
   87d68:	3008      	adds	r0, #8
   87d6a:	0a1b      	lsrs	r3, r3, #8
   87d6c:	0719      	lsls	r1, r3, #28
   87d6e:	d101      	bne.n	87d74 <__lo0bits+0x3c>
   87d70:	3004      	adds	r0, #4
   87d72:	091b      	lsrs	r3, r3, #4
   87d74:	0799      	lsls	r1, r3, #30
   87d76:	d101      	bne.n	87d7c <__lo0bits+0x44>
   87d78:	3002      	adds	r0, #2
   87d7a:	089b      	lsrs	r3, r3, #2
   87d7c:	07d9      	lsls	r1, r3, #31
   87d7e:	d402      	bmi.n	87d86 <__lo0bits+0x4e>
   87d80:	085b      	lsrs	r3, r3, #1
   87d82:	d004      	beq.n	87d8e <__lo0bits+0x56>
   87d84:	3001      	adds	r0, #1
   87d86:	6013      	str	r3, [r2, #0]
   87d88:	4770      	bx	lr
   87d8a:	2000      	movs	r0, #0
   87d8c:	4770      	bx	lr
   87d8e:	2020      	movs	r0, #32
   87d90:	4770      	bx	lr

00087d92 <__i2b>:
   87d92:	b510      	push	{r4, lr}
   87d94:	460c      	mov	r4, r1
   87d96:	2101      	movs	r1, #1
   87d98:	f7ff ff02 	bl	87ba0 <_Balloc>
   87d9c:	2201      	movs	r2, #1
   87d9e:	6144      	str	r4, [r0, #20]
   87da0:	6102      	str	r2, [r0, #16]
   87da2:	bd10      	pop	{r4, pc}

00087da4 <__multiply>:
   87da4:	e92d 4ff0 	stmdb	sp!, {r4, r5, r6, r7, r8, r9, sl, fp, lr}
   87da8:	4616      	mov	r6, r2
   87daa:	6933      	ldr	r3, [r6, #16]
   87dac:	690a      	ldr	r2, [r1, #16]
   87dae:	b085      	sub	sp, #20
   87db0:	429a      	cmp	r2, r3
   87db2:	460d      	mov	r5, r1
   87db4:	da01      	bge.n	87dba <__multiply+0x16>
   87db6:	4635      	mov	r5, r6
   87db8:	460e      	mov	r6, r1
   87dba:	f8d5 8010 	ldr.w	r8, [r5, #16]
   87dbe:	6937      	ldr	r7, [r6, #16]
   87dc0:	68aa      	ldr	r2, [r5, #8]
   87dc2:	6869      	ldr	r1, [r5, #4]
   87dc4:	eb08 0407 	add.w	r4, r8, r7
   87dc8:	4294      	cmp	r4, r2
   87dca:	bfc8      	it	gt
   87dcc:	3101      	addgt	r1, #1
   87dce:	f7ff fee7 	bl	87ba0 <_Balloc>
   87dd2:	eb00 0184 	add.w	r1, r0, r4, lsl #2
   87dd6:	3114      	adds	r1, #20
   87dd8:	f100 0314 	add.w	r3, r0, #20
   87ddc:	9101      	str	r1, [sp, #4]
   87dde:	9a01      	ldr	r2, [sp, #4]
   87de0:	4293      	cmp	r3, r2
   87de2:	d203      	bcs.n	87dec <__multiply+0x48>
   87de4:	2200      	movs	r2, #0
   87de6:	f843 2b04 	str.w	r2, [r3], #4
   87dea:	e7f8      	b.n	87dde <__multiply+0x3a>
   87dec:	eb06 0787 	add.w	r7, r6, r7, lsl #2
   87df0:	f105 0314 	add.w	r3, r5, #20
   87df4:	eb05 0c88 	add.w	ip, r5, r8, lsl #2
   87df8:	3714      	adds	r7, #20
   87dfa:	9302      	str	r3, [sp, #8]
   87dfc:	f10c 0e14 	add.w	lr, ip, #20
   87e00:	9703      	str	r7, [sp, #12]
   87e02:	f100 0318 	add.w	r3, r0, #24
   87e06:	f106 0214 	add.w	r2, r6, #20
   87e0a:	9d03      	ldr	r5, [sp, #12]
   87e0c:	4611      	mov	r1, r2
   87e0e:	42aa      	cmp	r2, r5
   87e10:	d24c      	bcs.n	87eac <__multiply+0x108>
   87e12:	8809      	ldrh	r1, [r1, #0]
   87e14:	3204      	adds	r2, #4
   87e16:	b309      	cbz	r1, 87e5c <__multiply+0xb8>
   87e18:	9f02      	ldr	r7, [sp, #8]
   87e1a:	1f1d      	subs	r5, r3, #4
   87e1c:	2600      	movs	r6, #0
   87e1e:	f857 9b04 	ldr.w	r9, [r7], #4
   87e22:	f8d5 8000 	ldr.w	r8, [r5]
   87e26:	fa1f fb89 	uxth.w	fp, r9
   87e2a:	fa1f fa88 	uxth.w	sl, r8
   87e2e:	fb01 ac0b 	mla	ip, r1, fp, sl
   87e32:	ea4f 4919 	mov.w	r9, r9, lsr #16
   87e36:	eb0c 0a06 	add.w	sl, ip, r6
   87e3a:	ea4f 4618 	mov.w	r6, r8, lsr #16
   87e3e:	fb01 6809 	mla	r8, r1, r9, r6
   87e42:	fa1f fc8a 	uxth.w	ip, sl
   87e46:	eb08 481a 	add.w	r8, r8, sl, lsr #16
   87e4a:	ea4c 4a08 	orr.w	sl, ip, r8, lsl #16
   87e4e:	45be      	cmp	lr, r7
   87e50:	ea4f 4618 	mov.w	r6, r8, lsr #16
   87e54:	f845 ab04 	str.w	sl, [r5], #4
   87e58:	d8e1      	bhi.n	87e1e <__multiply+0x7a>
   87e5a:	602e      	str	r6, [r5, #0]
   87e5c:	f832 1c02 	ldrh.w	r1, [r2, #-2]
   87e60:	b311      	cbz	r1, 87ea8 <__multiply+0x104>
   87e62:	f853 6c04 	ldr.w	r6, [r3, #-4]
   87e66:	9f02      	ldr	r7, [sp, #8]
   87e68:	461d      	mov	r5, r3
   87e6a:	f04f 0900 	mov.w	r9, #0
   87e6e:	f835 ac02 	ldrh.w	sl, [r5, #-2]
   87e72:	f8b7 b000 	ldrh.w	fp, [r7]
   87e76:	b2b6      	uxth	r6, r6
   87e78:	fb01 ac0b 	mla	ip, r1, fp, sl
   87e7c:	44e1      	add	r9, ip
   87e7e:	ea46 4609 	orr.w	r6, r6, r9, lsl #16
   87e82:	f845 6c04 	str.w	r6, [r5, #-4]
   87e86:	46a8      	mov	r8, r5
   87e88:	f857 6b04 	ldr.w	r6, [r7], #4
   87e8c:	f8b8 a000 	ldrh.w	sl, [r8]
   87e90:	0c36      	lsrs	r6, r6, #16
   87e92:	fb01 a606 	mla	r6, r1, r6, sl
   87e96:	3504      	adds	r5, #4
   87e98:	eb06 4619 	add.w	r6, r6, r9, lsr #16
   87e9c:	4577      	cmp	r7, lr
   87e9e:	ea4f 4916 	mov.w	r9, r6, lsr #16
   87ea2:	d3e4      	bcc.n	87e6e <__multiply+0xca>
   87ea4:	f8c8 6000 	str.w	r6, [r8]
   87ea8:	3304      	adds	r3, #4
   87eaa:	e7ae      	b.n	87e0a <__multiply+0x66>
   87eac:	9b01      	ldr	r3, [sp, #4]
   87eae:	2c00      	cmp	r4, #0
   87eb0:	dc03      	bgt.n	87eba <__multiply+0x116>
   87eb2:	6104      	str	r4, [r0, #16]
   87eb4:	b005      	add	sp, #20
   87eb6:	e8bd 8ff0 	ldmia.w	sp!, {r4, r5, r6, r7, r8, r9, sl, fp, pc}
   87eba:	f853 2d04 	ldr.w	r2, [r3, #-4]!
   87ebe:	2a00      	cmp	r2, #0
   87ec0:	d1f7      	bne.n	87eb2 <__multiply+0x10e>
   87ec2:	3c01      	subs	r4, #1
   87ec4:	e7f3      	b.n	87eae <__multiply+0x10a>

00087ec6 <__pow5mult>:
   87ec6:	f012 0303 	ands.w	r3, r2, #3
   87eca:	e92d 41f0 	stmdb	sp!, {r4, r5, r6, r7, r8, lr}
   87ece:	4605      	mov	r5, r0
   87ed0:	460e      	mov	r6, r1
   87ed2:	4617      	mov	r7, r2
   87ed4:	d007      	beq.n	87ee6 <__pow5mult+0x20>
   87ed6:	4a1c      	ldr	r2, [pc, #112]	; (87f48 <__pow5mult+0x82>)
   87ed8:	1e5e      	subs	r6, r3, #1
   87eda:	f852 2026 	ldr.w	r2, [r2, r6, lsl #2]
   87ede:	2300      	movs	r3, #0
   87ee0:	f7ff fe8d 	bl	87bfe <__multadd>
   87ee4:	4606      	mov	r6, r0
   87ee6:	10bf      	asrs	r7, r7, #2
   87ee8:	d02b      	beq.n	87f42 <__pow5mult+0x7c>
   87eea:	6cac      	ldr	r4, [r5, #72]	; 0x48
   87eec:	b994      	cbnz	r4, 87f14 <__pow5mult+0x4e>
   87eee:	4628      	mov	r0, r5
   87ef0:	f240 2171 	movw	r1, #625	; 0x271
   87ef4:	f7ff ff4d 	bl	87d92 <__i2b>
   87ef8:	4604      	mov	r4, r0
   87efa:	64a8      	str	r0, [r5, #72]	; 0x48
   87efc:	2000      	movs	r0, #0
   87efe:	6020      	str	r0, [r4, #0]
   87f00:	e008      	b.n	87f14 <__pow5mult+0x4e>
   87f02:	107f      	asrs	r7, r7, #1
   87f04:	d01d      	beq.n	87f42 <__pow5mult+0x7c>
   87f06:	f8d4 8000 	ldr.w	r8, [r4]
   87f0a:	4640      	mov	r0, r8
   87f0c:	f1b8 0f00 	cmp.w	r8, #0
   87f10:	d00e      	beq.n	87f30 <__pow5mult+0x6a>
   87f12:	4604      	mov	r4, r0
   87f14:	07f8      	lsls	r0, r7, #31
   87f16:	d5f4      	bpl.n	87f02 <__pow5mult+0x3c>
   87f18:	4631      	mov	r1, r6
   87f1a:	4622      	mov	r2, r4
   87f1c:	4628      	mov	r0, r5
   87f1e:	f7ff ff41 	bl	87da4 <__multiply>
   87f22:	4631      	mov	r1, r6
   87f24:	4680      	mov	r8, r0
   87f26:	4628      	mov	r0, r5
   87f28:	f7ff fe60 	bl	87bec <_Bfree>
   87f2c:	4646      	mov	r6, r8
   87f2e:	e7e8      	b.n	87f02 <__pow5mult+0x3c>
   87f30:	4628      	mov	r0, r5
   87f32:	4621      	mov	r1, r4
   87f34:	4622      	mov	r2, r4
   87f36:	f7ff ff35 	bl	87da4 <__multiply>
   87f3a:	6020      	str	r0, [r4, #0]
   87f3c:	f8c0 8000 	str.w	r8, [r0]
   87f40:	e7e7      	b.n	87f12 <__pow5mult+0x4c>
   87f42:	4630      	mov	r0, r6
   87f44:	e8bd 81f0 	ldmia.w	sp!, {r4, r5, r6, r7, r8, pc}
   87f48:	00089cd0 	.word	0x00089cd0

00087f4c <__lshift>:
   87f4c:	e92d 47f0 	stmdb	sp!, {r4, r5, r6, r7, r8, r9, sl, lr}
   87f50:	460c      	mov	r4, r1
   87f52:	6923      	ldr	r3, [r4, #16]
   87f54:	ea4f 1862 	mov.w	r8, r2, asr #5
   87f58:	eb08 0a03 	add.w	sl, r8, r3
   87f5c:	6849      	ldr	r1, [r1, #4]
   87f5e:	68a5      	ldr	r5, [r4, #8]
   87f60:	4681      	mov	r9, r0
   87f62:	4617      	mov	r7, r2
   87f64:	f10a 0601 	add.w	r6, sl, #1
   87f68:	42ae      	cmp	r6, r5
   87f6a:	dd02      	ble.n	87f72 <__lshift+0x26>
   87f6c:	3101      	adds	r1, #1
   87f6e:	006d      	lsls	r5, r5, #1
   87f70:	e7fa      	b.n	87f68 <__lshift+0x1c>
   87f72:	4648      	mov	r0, r9
   87f74:	f7ff fe14 	bl	87ba0 <_Balloc>
   87f78:	2200      	movs	r2, #0
   87f7a:	4605      	mov	r5, r0
   87f7c:	f100 0014 	add.w	r0, r0, #20
   87f80:	4542      	cmp	r2, r8
   87f82:	da04      	bge.n	87f8e <__lshift+0x42>
   87f84:	2100      	movs	r1, #0
   87f86:	f840 1022 	str.w	r1, [r0, r2, lsl #2]
   87f8a:	3201      	adds	r2, #1
   87f8c:	e7f8      	b.n	87f80 <__lshift+0x34>
   87f8e:	ea28 70e8 	bic.w	r0, r8, r8, asr #31
   87f92:	6922      	ldr	r2, [r4, #16]
   87f94:	eb05 0380 	add.w	r3, r5, r0, lsl #2
   87f98:	3314      	adds	r3, #20
   87f9a:	eb04 0082 	add.w	r0, r4, r2, lsl #2
   87f9e:	f017 071f 	ands.w	r7, r7, #31
   87fa2:	f104 0114 	add.w	r1, r4, #20
   87fa6:	f100 0e14 	add.w	lr, r0, #20
   87faa:	d014      	beq.n	87fd6 <__lshift+0x8a>
   87fac:	4618      	mov	r0, r3
   87fae:	f1c7 0c20 	rsb	ip, r7, #32
   87fb2:	2300      	movs	r3, #0
   87fb4:	680a      	ldr	r2, [r1, #0]
   87fb6:	fa02 f207 	lsl.w	r2, r2, r7
   87fba:	4313      	orrs	r3, r2
   87fbc:	f840 3b04 	str.w	r3, [r0], #4
   87fc0:	f851 3b04 	ldr.w	r3, [r1], #4
   87fc4:	4571      	cmp	r1, lr
   87fc6:	fa23 f30c 	lsr.w	r3, r3, ip
   87fca:	d3f3      	bcc.n	87fb4 <__lshift+0x68>
   87fcc:	6003      	str	r3, [r0, #0]
   87fce:	b143      	cbz	r3, 87fe2 <__lshift+0x96>
   87fd0:	f10a 0602 	add.w	r6, sl, #2
   87fd4:	e005      	b.n	87fe2 <__lshift+0x96>
   87fd6:	f851 2b04 	ldr.w	r2, [r1], #4
   87fda:	458e      	cmp	lr, r1
   87fdc:	f843 2b04 	str.w	r2, [r3], #4
   87fe0:	d8f9      	bhi.n	87fd6 <__lshift+0x8a>
   87fe2:	3e01      	subs	r6, #1
   87fe4:	4648      	mov	r0, r9
   87fe6:	612e      	str	r6, [r5, #16]
   87fe8:	4621      	mov	r1, r4
   87fea:	f7ff fdff 	bl	87bec <_Bfree>
   87fee:	4628      	mov	r0, r5
   87ff0:	e8bd 87f0 	ldmia.w	sp!, {r4, r5, r6, r7, r8, r9, sl, pc}

00087ff4 <__mcmp>:
   87ff4:	4603      	mov	r3, r0
   87ff6:	690a      	ldr	r2, [r1, #16]
   87ff8:	6900      	ldr	r0, [r0, #16]
   87ffa:	b530      	push	{r4, r5, lr}
   87ffc:	1a80      	subs	r0, r0, r2
   87ffe:	d115      	bne.n	8802c <__mcmp+0x38>
   88000:	1d15      	adds	r5, r2, #4
   88002:	00aa      	lsls	r2, r5, #2
   88004:	f103 0414 	add.w	r4, r3, #20
   88008:	1889      	adds	r1, r1, r2
   8800a:	189b      	adds	r3, r3, r2
   8800c:	3304      	adds	r3, #4
   8800e:	1d0a      	adds	r2, r1, #4
   88010:	f853 5d04 	ldr.w	r5, [r3, #-4]!
   88014:	f852 1d04 	ldr.w	r1, [r2, #-4]!
   88018:	428d      	cmp	r5, r1
   8801a:	d003      	beq.n	88024 <__mcmp+0x30>
   8801c:	d205      	bcs.n	8802a <__mcmp+0x36>
   8801e:	f04f 30ff 	mov.w	r0, #4294967295
   88022:	bd30      	pop	{r4, r5, pc}
   88024:	429c      	cmp	r4, r3
   88026:	d3f3      	bcc.n	88010 <__mcmp+0x1c>
   88028:	bd30      	pop	{r4, r5, pc}
   8802a:	2001      	movs	r0, #1
   8802c:	bd30      	pop	{r4, r5, pc}

0008802e <__mdiff>:
   8802e:	e92d 47f0 	stmdb	sp!, {r4, r5, r6, r7, r8, r9, sl, lr}
   88032:	4606      	mov	r6, r0
   88034:	460c      	mov	r4, r1
   88036:	4608      	mov	r0, r1
   88038:	4611      	mov	r1, r2
   8803a:	4615      	mov	r5, r2
   8803c:	f7ff ffda 	bl	87ff4 <__mcmp>
   88040:	1e07      	subs	r7, r0, #0
   88042:	d108      	bne.n	88056 <__mdiff+0x28>
   88044:	4639      	mov	r1, r7
   88046:	4630      	mov	r0, r6
   88048:	f7ff fdaa 	bl	87ba0 <_Balloc>
   8804c:	2101      	movs	r1, #1
   8804e:	6101      	str	r1, [r0, #16]
   88050:	6147      	str	r7, [r0, #20]
   88052:	e8bd 87f0 	ldmia.w	sp!, {r4, r5, r6, r7, r8, r9, sl, pc}
   88056:	db01      	blt.n	8805c <__mdiff+0x2e>
   88058:	2700      	movs	r7, #0
   8805a:	e003      	b.n	88064 <__mdiff+0x36>
   8805c:	4623      	mov	r3, r4
   8805e:	2701      	movs	r7, #1
   88060:	462c      	mov	r4, r5
   88062:	461d      	mov	r5, r3
   88064:	6861      	ldr	r1, [r4, #4]
   88066:	4630      	mov	r0, r6
   88068:	f7ff fd9a 	bl	87ba0 <_Balloc>
   8806c:	692a      	ldr	r2, [r5, #16]
   8806e:	6923      	ldr	r3, [r4, #16]
   88070:	eb05 0182 	add.w	r1, r5, r2, lsl #2
   88074:	eb04 0c83 	add.w	ip, r4, r3, lsl #2
   88078:	60c7      	str	r7, [r0, #12]
   8807a:	f10c 0c14 	add.w	ip, ip, #20
   8807e:	f101 0814 	add.w	r8, r1, #20
   88082:	3414      	adds	r4, #20
   88084:	3514      	adds	r5, #20
   88086:	f100 0714 	add.w	r7, r0, #20
   8808a:	2200      	movs	r2, #0
   8808c:	f854 6b04 	ldr.w	r6, [r4], #4
   88090:	f855 1b04 	ldr.w	r1, [r5], #4
   88094:	fa1f f986 	uxth.w	r9, r6
   88098:	444a      	add	r2, r9
   8809a:	fa1f fa81 	uxth.w	sl, r1
   8809e:	0c09      	lsrs	r1, r1, #16
   880a0:	ebca 0e02 	rsb	lr, sl, r2
   880a4:	ebc1 4616 	rsb	r6, r1, r6, lsr #16
   880a8:	eb06 412e 	add.w	r1, r6, lr, asr #16
   880ac:	fa1f f98e 	uxth.w	r9, lr
   880b0:	140a      	asrs	r2, r1, #16
   880b2:	ea49 4101 	orr.w	r1, r9, r1, lsl #16
   880b6:	f847 1b04 	str.w	r1, [r7], #4
   880ba:	45a8      	cmp	r8, r5
   880bc:	4626      	mov	r6, r4
   880be:	4639      	mov	r1, r7
   880c0:	d8e4      	bhi.n	8808c <__mdiff+0x5e>
   880c2:	4566      	cmp	r6, ip
   880c4:	d20d      	bcs.n	880e2 <__mdiff+0xb4>
   880c6:	f856 4b04 	ldr.w	r4, [r6], #4
   880ca:	b2a5      	uxth	r5, r4
   880cc:	18ad      	adds	r5, r5, r2
   880ce:	0c22      	lsrs	r2, r4, #16
   880d0:	eb02 4425 	add.w	r4, r2, r5, asr #16
   880d4:	b2ad      	uxth	r5, r5
   880d6:	1422      	asrs	r2, r4, #16
   880d8:	ea45 4404 	orr.w	r4, r5, r4, lsl #16
   880dc:	f841 4b04 	str.w	r4, [r1], #4
   880e0:	e7ef      	b.n	880c2 <__mdiff+0x94>
   880e2:	f851 2d04 	ldr.w	r2, [r1, #-4]!
   880e6:	b90a      	cbnz	r2, 880ec <__mdiff+0xbe>
   880e8:	3b01      	subs	r3, #1
   880ea:	e7fa      	b.n	880e2 <__mdiff+0xb4>
   880ec:	6103      	str	r3, [r0, #16]
   880ee:	e8bd 87f0 	ldmia.w	sp!, {r4, r5, r6, r7, r8, r9, sl, pc}

000880f2 <__ulp>:
   880f2:	4b0f      	ldr	r3, [pc, #60]	; (88130 <__ulp+0x3e>)
   880f4:	400b      	ands	r3, r1
   880f6:	f1a3 7050 	sub.w	r0, r3, #54525952	; 0x3400000
   880fa:	2800      	cmp	r0, #0
   880fc:	dd01      	ble.n	88102 <__ulp+0x10>
   880fe:	4601      	mov	r1, r0
   88100:	e008      	b.n	88114 <__ulp+0x22>
   88102:	4241      	negs	r1, r0
   88104:	150b      	asrs	r3, r1, #20
   88106:	2100      	movs	r1, #0
   88108:	2b13      	cmp	r3, #19
   8810a:	dc05      	bgt.n	88118 <__ulp+0x26>
   8810c:	f44f 2000 	mov.w	r0, #524288	; 0x80000
   88110:	fa40 f103 	asr.w	r1, r0, r3
   88114:	2000      	movs	r0, #0
   88116:	4770      	bx	lr
   88118:	2b32      	cmp	r3, #50	; 0x32
   8811a:	f04f 0201 	mov.w	r2, #1
   8811e:	bfda      	itte	le
   88120:	f1c3 0333 	rsble	r3, r3, #51	; 0x33
   88124:	fa02 f303 	lslle.w	r3, r2, r3
   88128:	4613      	movgt	r3, r2
   8812a:	4618      	mov	r0, r3
   8812c:	4770      	bx	lr
   8812e:	bf00      	nop
   88130:	7ff00000 	.word	0x7ff00000

00088134 <__b2d>:
   88134:	e92d 43f8 	stmdb	sp!, {r3, r4, r5, r6, r7, r8, r9, lr}
   88138:	6903      	ldr	r3, [r0, #16]
   8813a:	4689      	mov	r9, r1
   8813c:	1d19      	adds	r1, r3, #4
   8813e:	eb00 0881 	add.w	r8, r0, r1, lsl #2
   88142:	4646      	mov	r6, r8
   88144:	f856 4b04 	ldr.w	r4, [r6], #4
   88148:	f100 0714 	add.w	r7, r0, #20
   8814c:	4620      	mov	r0, r4
   8814e:	f7ff fdd4 	bl	87cfa <__hi0bits>
   88152:	f1c0 0220 	rsb	r2, r0, #32
   88156:	280a      	cmp	r0, #10
   88158:	4645      	mov	r5, r8
   8815a:	f8c9 2000 	str.w	r2, [r9]
   8815e:	dc14      	bgt.n	8818a <__b2d+0x56>
   88160:	f1c0 010b 	rsb	r1, r0, #11
   88164:	fa24 f501 	lsr.w	r5, r4, r1
   88168:	45b8      	cmp	r8, r7
   8816a:	f045 557f 	orr.w	r5, r5, #1069547520	; 0x3fc00000
   8816e:	f445 1340 	orr.w	r3, r5, #3145728	; 0x300000
   88172:	bf8c      	ite	hi
   88174:	f856 5c08 	ldrhi.w	r5, [r6, #-8]
   88178:	2500      	movls	r5, #0
   8817a:	3015      	adds	r0, #21
   8817c:	fa25 f201 	lsr.w	r2, r5, r1
   88180:	fa04 f400 	lsl.w	r4, r4, r0
   88184:	ea42 0004 	orr.w	r0, r2, r4
   88188:	e025      	b.n	881d6 <__b2d+0xa2>
   8818a:	45b8      	cmp	r8, r7
   8818c:	d903      	bls.n	88196 <__b2d+0x62>
   8818e:	3d04      	subs	r5, #4
   88190:	f856 1c08 	ldr.w	r1, [r6, #-8]
   88194:	e000      	b.n	88198 <__b2d+0x64>
   88196:	2100      	movs	r1, #0
   88198:	f1b0 060b 	subs.w	r6, r0, #11
   8819c:	d016      	beq.n	881cc <__b2d+0x98>
   8819e:	fa04 f406 	lsl.w	r4, r4, r6
   881a2:	f1c0 022b 	rsb	r2, r0, #43	; 0x2b
   881a6:	fa21 fc02 	lsr.w	ip, r1, r2
   881aa:	f044 547f 	orr.w	r4, r4, #1069547520	; 0x3fc00000
   881ae:	f444 1440 	orr.w	r4, r4, #3145728	; 0x300000
   881b2:	42bd      	cmp	r5, r7
   881b4:	ea44 030c 	orr.w	r3, r4, ip
   881b8:	bf8c      	ite	hi
   881ba:	f855 4c04 	ldrhi.w	r4, [r5, #-4]
   881be:	2400      	movls	r4, #0
   881c0:	fa24 f002 	lsr.w	r0, r4, r2
   881c4:	fa01 f106 	lsl.w	r1, r1, r6
   881c8:	4308      	orrs	r0, r1
   881ca:	e004      	b.n	881d6 <__b2d+0xa2>
   881cc:	f044 547f 	orr.w	r4, r4, #1069547520	; 0x3fc00000
   881d0:	f444 1340 	orr.w	r3, r4, #3145728	; 0x300000
   881d4:	4608      	mov	r0, r1
   881d6:	4619      	mov	r1, r3
   881d8:	e8bd 83f8 	ldmia.w	sp!, {r3, r4, r5, r6, r7, r8, r9, pc}

000881dc <__d2b>:
   881dc:	e92d 43f7 	stmdb	sp!, {r0, r1, r2, r4, r5, r6, r7, r8, r9, lr}
   881e0:	2101      	movs	r1, #1
   881e2:	461d      	mov	r5, r3
   881e4:	f8dd 9028 	ldr.w	r9, [sp, #40]	; 0x28
   881e8:	f8dd 802c 	ldr.w	r8, [sp, #44]	; 0x2c
   881ec:	4614      	mov	r4, r2
   881ee:	f7ff fcd7 	bl	87ba0 <_Balloc>
   881f2:	f3c5 570a 	ubfx	r7, r5, #20, #11
   881f6:	f025 437f 	bic.w	r3, r5, #4278190080	; 0xff000000
   881fa:	4606      	mov	r6, r0
   881fc:	f423 0070 	bic.w	r0, r3, #15728640	; 0xf00000
   88200:	b10f      	cbz	r7, 88206 <__d2b+0x2a>
   88202:	f440 1080 	orr.w	r0, r0, #1048576	; 0x100000
   88206:	9001      	str	r0, [sp, #4]
   88208:	b1dc      	cbz	r4, 88242 <__d2b+0x66>
   8820a:	aa02      	add	r2, sp, #8
   8820c:	4668      	mov	r0, sp
   8820e:	f842 4d08 	str.w	r4, [r2, #-8]!
   88212:	f7ff fd91 	bl	87d38 <__lo0bits>
   88216:	9c00      	ldr	r4, [sp, #0]
   88218:	b150      	cbz	r0, 88230 <__d2b+0x54>
   8821a:	9a01      	ldr	r2, [sp, #4]
   8821c:	f1c0 0320 	rsb	r3, r0, #32
   88220:	fa02 f103 	lsl.w	r1, r2, r3
   88224:	fa22 f200 	lsr.w	r2, r2, r0
   88228:	430c      	orrs	r4, r1
   8822a:	6174      	str	r4, [r6, #20]
   8822c:	9201      	str	r2, [sp, #4]
   8822e:	e000      	b.n	88232 <__d2b+0x56>
   88230:	6174      	str	r4, [r6, #20]
   88232:	9a01      	ldr	r2, [sp, #4]
   88234:	2a00      	cmp	r2, #0
   88236:	bf0c      	ite	eq
   88238:	2401      	moveq	r4, #1
   8823a:	2402      	movne	r4, #2
   8823c:	61b2      	str	r2, [r6, #24]
   8823e:	6134      	str	r4, [r6, #16]
   88240:	e007      	b.n	88252 <__d2b+0x76>
   88242:	a801      	add	r0, sp, #4
   88244:	f7ff fd78 	bl	87d38 <__lo0bits>
   88248:	9901      	ldr	r1, [sp, #4]
   8824a:	2401      	movs	r4, #1
   8824c:	6171      	str	r1, [r6, #20]
   8824e:	6134      	str	r4, [r6, #16]
   88250:	3020      	adds	r0, #32
   88252:	b13f      	cbz	r7, 88264 <__d2b+0x88>
   88254:	f2a7 4733 	subw	r7, r7, #1075	; 0x433
   88258:	183f      	adds	r7, r7, r0
   8825a:	f8c9 7000 	str.w	r7, [r9]
   8825e:	f1c0 0135 	rsb	r1, r0, #53	; 0x35
   88262:	e00a      	b.n	8827a <__d2b+0x9e>
   88264:	eb06 0384 	add.w	r3, r6, r4, lsl #2
   88268:	f2a0 4032 	subw	r0, r0, #1074	; 0x432
   8826c:	f8c9 0000 	str.w	r0, [r9]
   88270:	6918      	ldr	r0, [r3, #16]
   88272:	f7ff fd42 	bl	87cfa <__hi0bits>
   88276:	0164      	lsls	r4, r4, #5
   88278:	1a21      	subs	r1, r4, r0
   8827a:	f8c8 1000 	str.w	r1, [r8]
   8827e:	4630      	mov	r0, r6
   88280:	e8bd 83fe 	ldmia.w	sp!, {r1, r2, r3, r4, r5, r6, r7, r8, r9, pc}

00088284 <__ratio>:
   88284:	e92d 41f3 	stmdb	sp!, {r0, r1, r4, r5, r6, r7, r8, lr}
   88288:	460e      	mov	r6, r1
   8828a:	4669      	mov	r1, sp
   8828c:	4680      	mov	r8, r0
   8828e:	f7ff ff51 	bl	88134 <__b2d>
   88292:	460d      	mov	r5, r1
   88294:	4604      	mov	r4, r0
   88296:	a901      	add	r1, sp, #4
   88298:	4630      	mov	r0, r6
   8829a:	f7ff ff4b 	bl	88134 <__b2d>
   8829e:	9f00      	ldr	r7, [sp, #0]
   882a0:	460b      	mov	r3, r1
   882a2:	9901      	ldr	r1, [sp, #4]
   882a4:	4602      	mov	r2, r0
   882a6:	1a7f      	subs	r7, r7, r1
   882a8:	f8d8 0010 	ldr.w	r0, [r8, #16]
   882ac:	6931      	ldr	r1, [r6, #16]
   882ae:	1a40      	subs	r0, r0, r1
   882b0:	eb07 1140 	add.w	r1, r7, r0, lsl #5
   882b4:	2900      	cmp	r1, #0
   882b6:	bfd6      	itet	le
   882b8:	eba3 5101 	suble.w	r1, r3, r1, lsl #20
   882bc:	eb05 5501 	addgt.w	r5, r5, r1, lsl #20
   882c0:	460b      	movle	r3, r1
   882c2:	4620      	mov	r0, r4
   882c4:	4629      	mov	r1, r5
   882c6:	f7fb ff85 	bl	841d4 <__aeabi_ddiv>
   882ca:	e8bd 81fc 	ldmia.w	sp!, {r2, r3, r4, r5, r6, r7, r8, pc}

000882ce <_mprec_log10>:
   882ce:	2817      	cmp	r0, #23
   882d0:	b510      	push	{r4, lr}
   882d2:	4604      	mov	r4, r0
   882d4:	dc05      	bgt.n	882e2 <_mprec_log10+0x14>
   882d6:	4b07      	ldr	r3, [pc, #28]	; (882f4 <_mprec_log10+0x26>)
   882d8:	eb03 04c0 	add.w	r4, r3, r0, lsl #3
   882dc:	e9d4 0104 	ldrd	r0, r1, [r4, #16]
   882e0:	bd10      	pop	{r4, pc}
   882e2:	4905      	ldr	r1, [pc, #20]	; (882f8 <_mprec_log10+0x2a>)
   882e4:	2000      	movs	r0, #0
   882e6:	2200      	movs	r2, #0
   882e8:	4b04      	ldr	r3, [pc, #16]	; (882fc <_mprec_log10+0x2e>)
   882ea:	f7fb fe49 	bl	83f80 <__aeabi_dmul>
   882ee:	3c01      	subs	r4, #1
   882f0:	d1f9      	bne.n	882e6 <_mprec_log10+0x18>
   882f2:	bd10      	pop	{r4, pc}
   882f4:	00089cd0 	.word	0x00089cd0
   882f8:	3ff00000 	.word	0x3ff00000
   882fc:	40240000 	.word	0x40240000

00088300 <__copybits>:
   88300:	3901      	subs	r1, #1
   88302:	114b      	asrs	r3, r1, #5
   88304:	b510      	push	{r4, lr}
   88306:	1c59      	adds	r1, r3, #1
   88308:	6913      	ldr	r3, [r2, #16]
   8830a:	eb00 0181 	add.w	r1, r0, r1, lsl #2
   8830e:	eb02 0383 	add.w	r3, r2, r3, lsl #2
   88312:	3314      	adds	r3, #20
   88314:	3214      	adds	r2, #20
   88316:	429a      	cmp	r2, r3
   88318:	d204      	bcs.n	88324 <__copybits+0x24>
   8831a:	f852 4b04 	ldr.w	r4, [r2], #4
   8831e:	f840 4b04 	str.w	r4, [r0], #4
   88322:	e7f8      	b.n	88316 <__copybits+0x16>
   88324:	4288      	cmp	r0, r1
   88326:	d203      	bcs.n	88330 <__copybits+0x30>
   88328:	2200      	movs	r2, #0
   8832a:	f840 2b04 	str.w	r2, [r0], #4
   8832e:	e7f9      	b.n	88324 <__copybits+0x24>
   88330:	bd10      	pop	{r4, pc}

00088332 <__any_on>:
   88332:	6902      	ldr	r2, [r0, #16]
   88334:	114b      	asrs	r3, r1, #5
   88336:	4293      	cmp	r3, r2
   88338:	b530      	push	{r4, r5, lr}
   8833a:	f100 0414 	add.w	r4, r0, #20
   8833e:	dc0d      	bgt.n	8835c <__any_on+0x2a>
   88340:	da0d      	bge.n	8835e <__any_on+0x2c>
   88342:	f011 011f 	ands.w	r1, r1, #31
   88346:	d00a      	beq.n	8835e <__any_on+0x2c>
   88348:	eb00 0583 	add.w	r5, r0, r3, lsl #2
   8834c:	696a      	ldr	r2, [r5, #20]
   8834e:	fa22 f501 	lsr.w	r5, r2, r1
   88352:	fa05 f101 	lsl.w	r1, r5, r1
   88356:	4291      	cmp	r1, r2
   88358:	d10f      	bne.n	8837a <__any_on+0x48>
   8835a:	e000      	b.n	8835e <__any_on+0x2c>
   8835c:	4613      	mov	r3, r2
   8835e:	eb00 0083 	add.w	r0, r0, r3, lsl #2
   88362:	3014      	adds	r0, #20
   88364:	42a0      	cmp	r0, r4
   88366:	4602      	mov	r2, r0
   88368:	d905      	bls.n	88376 <__any_on+0x44>
   8836a:	f852 1c04 	ldr.w	r1, [r2, #-4]
   8836e:	3804      	subs	r0, #4
   88370:	2900      	cmp	r1, #0
   88372:	d0f7      	beq.n	88364 <__any_on+0x32>
   88374:	e001      	b.n	8837a <__any_on+0x48>
   88376:	2000      	movs	r0, #0
   88378:	bd30      	pop	{r4, r5, pc}
   8837a:	2001      	movs	r0, #1
   8837c:	bd30      	pop	{r4, r5, pc}
   8837e:	bf00      	nop

00088380 <_realloc_r>:
   88380:	e92d 4ff8 	stmdb	sp!, {r3, r4, r5, r6, r7, r8, r9, sl, fp, lr}
   88384:	4681      	mov	r9, r0
   88386:	4616      	mov	r6, r2
   88388:	460c      	mov	r4, r1
   8838a:	b921      	cbnz	r1, 88396 <_realloc_r+0x16>
   8838c:	4611      	mov	r1, r2
   8838e:	e8bd 4ff8 	ldmia.w	sp!, {r3, r4, r5, r6, r7, r8, r9, sl, fp, lr}
   88392:	f7ff b979 	b.w	87688 <_malloc_r>
   88396:	f7ff fc01 	bl	87b9c <__malloc_lock>
   8839a:	f106 070b 	add.w	r7, r6, #11
   8839e:	f854 5c04 	ldr.w	r5, [r4, #-4]
   883a2:	2f16      	cmp	r7, #22
   883a4:	f1a4 0b08 	sub.w	fp, r4, #8
   883a8:	f025 0803 	bic.w	r8, r5, #3
   883ac:	d903      	bls.n	883b6 <_realloc_r+0x36>
   883ae:	f037 0707 	bics.w	r7, r7, #7
   883b2:	d501      	bpl.n	883b8 <_realloc_r+0x38>
   883b4:	e002      	b.n	883bc <_realloc_r+0x3c>
   883b6:	2710      	movs	r7, #16
   883b8:	42b7      	cmp	r7, r6
   883ba:	d204      	bcs.n	883c6 <_realloc_r+0x46>
   883bc:	200c      	movs	r0, #12
   883be:	f8c9 0000 	str.w	r0, [r9]
   883c2:	2600      	movs	r6, #0
   883c4:	e145      	b.n	88652 <_realloc_r+0x2d2>
   883c6:	45b8      	cmp	r8, r7
   883c8:	f280 811a 	bge.w	88600 <_realloc_r+0x280>
   883cc:	4aa2      	ldr	r2, [pc, #648]	; (88658 <_realloc_r+0x2d8>)
   883ce:	eb0b 0308 	add.w	r3, fp, r8
   883d2:	6891      	ldr	r1, [r2, #8]
   883d4:	428b      	cmp	r3, r1
   883d6:	d006      	beq.n	883e6 <_realloc_r+0x66>
   883d8:	6858      	ldr	r0, [r3, #4]
   883da:	f020 0201 	bic.w	r2, r0, #1
   883de:	1898      	adds	r0, r3, r2
   883e0:	6842      	ldr	r2, [r0, #4]
   883e2:	07d0      	lsls	r0, r2, #31
   883e4:	d426      	bmi.n	88434 <_realloc_r+0xb4>
   883e6:	685a      	ldr	r2, [r3, #4]
   883e8:	428b      	cmp	r3, r1
   883ea:	f022 0003 	bic.w	r0, r2, #3
   883ee:	eb00 0a08 	add.w	sl, r0, r8
   883f2:	d118      	bne.n	88426 <_realloc_r+0xa6>
   883f4:	f107 0210 	add.w	r2, r7, #16
   883f8:	4592      	cmp	sl, r2
   883fa:	db1d      	blt.n	88438 <_realloc_r+0xb8>
   883fc:	ebc7 0a0a 	rsb	sl, r7, sl
   88400:	eb0b 0507 	add.w	r5, fp, r7
   88404:	f04a 0101 	orr.w	r1, sl, #1
   88408:	6069      	str	r1, [r5, #4]
   8840a:	f854 2c04 	ldr.w	r2, [r4, #-4]
   8840e:	4e92      	ldr	r6, [pc, #584]	; (88658 <_realloc_r+0x2d8>)
   88410:	f002 0301 	and.w	r3, r2, #1
   88414:	431f      	orrs	r7, r3
   88416:	60b5      	str	r5, [r6, #8]
   88418:	f844 7c04 	str.w	r7, [r4, #-4]
   8841c:	4648      	mov	r0, r9
   8841e:	f7ff fbbe 	bl	87b9e <__malloc_unlock>
   88422:	4626      	mov	r6, r4
   88424:	e115      	b.n	88652 <_realloc_r+0x2d2>
   88426:	45ba      	cmp	sl, r7
   88428:	db06      	blt.n	88438 <_realloc_r+0xb8>
   8842a:	68dd      	ldr	r5, [r3, #12]
   8842c:	689e      	ldr	r6, [r3, #8]
   8842e:	60f5      	str	r5, [r6, #12]
   88430:	60ae      	str	r6, [r5, #8]
   88432:	e0e6      	b.n	88602 <_realloc_r+0x282>
   88434:	2000      	movs	r0, #0
   88436:	4603      	mov	r3, r0
   88438:	07ea      	lsls	r2, r5, #31
   8843a:	f100 8091 	bmi.w	88560 <_realloc_r+0x1e0>
   8843e:	f854 5c08 	ldr.w	r5, [r4, #-8]
   88442:	ebc5 050b 	rsb	r5, r5, fp
   88446:	686a      	ldr	r2, [r5, #4]
   88448:	f022 0203 	bic.w	r2, r2, #3
   8844c:	2b00      	cmp	r3, #0
   8844e:	d051      	beq.n	884f4 <_realloc_r+0x174>
   88450:	eb02 0a08 	add.w	sl, r2, r8
   88454:	428b      	cmp	r3, r1
   88456:	4482      	add	sl, r0
   88458:	d145      	bne.n	884e6 <_realloc_r+0x166>
   8845a:	f107 0310 	add.w	r3, r7, #16
   8845e:	459a      	cmp	sl, r3
   88460:	db48      	blt.n	884f4 <_realloc_r+0x174>
   88462:	462e      	mov	r6, r5
   88464:	68e9      	ldr	r1, [r5, #12]
   88466:	f856 3f08 	ldr.w	r3, [r6, #8]!
   8846a:	f1a8 0204 	sub.w	r2, r8, #4
   8846e:	2a24      	cmp	r2, #36	; 0x24
   88470:	60d9      	str	r1, [r3, #12]
   88472:	608b      	str	r3, [r1, #8]
   88474:	d825      	bhi.n	884c2 <_realloc_r+0x142>
   88476:	2a13      	cmp	r2, #19
   88478:	d91b      	bls.n	884b2 <_realloc_r+0x132>
   8847a:	6821      	ldr	r1, [r4, #0]
   8847c:	2a1b      	cmp	r2, #27
   8847e:	60a9      	str	r1, [r5, #8]
   88480:	6863      	ldr	r3, [r4, #4]
   88482:	60eb      	str	r3, [r5, #12]
   88484:	d803      	bhi.n	8848e <_realloc_r+0x10e>
   88486:	f105 0010 	add.w	r0, r5, #16
   8848a:	3408      	adds	r4, #8
   8848c:	e012      	b.n	884b4 <_realloc_r+0x134>
   8848e:	68a0      	ldr	r0, [r4, #8]
   88490:	2a24      	cmp	r2, #36	; 0x24
   88492:	6128      	str	r0, [r5, #16]
   88494:	68e1      	ldr	r1, [r4, #12]
   88496:	6169      	str	r1, [r5, #20]
   88498:	d003      	beq.n	884a2 <_realloc_r+0x122>
   8849a:	f105 0018 	add.w	r0, r5, #24
   8849e:	3410      	adds	r4, #16
   884a0:	e008      	b.n	884b4 <_realloc_r+0x134>
   884a2:	6922      	ldr	r2, [r4, #16]
   884a4:	f105 0020 	add.w	r0, r5, #32
   884a8:	61aa      	str	r2, [r5, #24]
   884aa:	6963      	ldr	r3, [r4, #20]
   884ac:	3418      	adds	r4, #24
   884ae:	61eb      	str	r3, [r5, #28]
   884b0:	e000      	b.n	884b4 <_realloc_r+0x134>
   884b2:	4630      	mov	r0, r6
   884b4:	6821      	ldr	r1, [r4, #0]
   884b6:	6001      	str	r1, [r0, #0]
   884b8:	6862      	ldr	r2, [r4, #4]
   884ba:	6042      	str	r2, [r0, #4]
   884bc:	68a3      	ldr	r3, [r4, #8]
   884be:	6083      	str	r3, [r0, #8]
   884c0:	e003      	b.n	884ca <_realloc_r+0x14a>
   884c2:	4630      	mov	r0, r6
   884c4:	4621      	mov	r1, r4
   884c6:	f7ff fb4f 	bl	87b68 <memmove>
   884ca:	ebc7 0a0a 	rsb	sl, r7, sl
   884ce:	19e8      	adds	r0, r5, r7
   884d0:	f04a 0201 	orr.w	r2, sl, #1
   884d4:	6042      	str	r2, [r0, #4]
   884d6:	686b      	ldr	r3, [r5, #4]
   884d8:	495f      	ldr	r1, [pc, #380]	; (88658 <_realloc_r+0x2d8>)
   884da:	6088      	str	r0, [r1, #8]
   884dc:	f003 0001 	and.w	r0, r3, #1
   884e0:	4307      	orrs	r7, r0
   884e2:	606f      	str	r7, [r5, #4]
   884e4:	e088      	b.n	885f8 <_realloc_r+0x278>
   884e6:	45ba      	cmp	sl, r7
   884e8:	db04      	blt.n	884f4 <_realloc_r+0x174>
   884ea:	68d9      	ldr	r1, [r3, #12]
   884ec:	6898      	ldr	r0, [r3, #8]
   884ee:	60c1      	str	r1, [r0, #12]
   884f0:	6088      	str	r0, [r1, #8]
   884f2:	e003      	b.n	884fc <_realloc_r+0x17c>
   884f4:	eb02 0a08 	add.w	sl, r2, r8
   884f8:	45ba      	cmp	sl, r7
   884fa:	db31      	blt.n	88560 <_realloc_r+0x1e0>
   884fc:	4628      	mov	r0, r5
   884fe:	68eb      	ldr	r3, [r5, #12]
   88500:	f850 1f08 	ldr.w	r1, [r0, #8]!
   88504:	f1a8 0204 	sub.w	r2, r8, #4
   88508:	2a24      	cmp	r2, #36	; 0x24
   8850a:	60cb      	str	r3, [r1, #12]
   8850c:	6099      	str	r1, [r3, #8]
   8850e:	d823      	bhi.n	88558 <_realloc_r+0x1d8>
   88510:	2a13      	cmp	r2, #19
   88512:	d91a      	bls.n	8854a <_realloc_r+0x1ca>
   88514:	6820      	ldr	r0, [r4, #0]
   88516:	2a1b      	cmp	r2, #27
   88518:	60a8      	str	r0, [r5, #8]
   8851a:	6866      	ldr	r6, [r4, #4]
   8851c:	60ee      	str	r6, [r5, #12]
   8851e:	d803      	bhi.n	88528 <_realloc_r+0x1a8>
   88520:	f105 0010 	add.w	r0, r5, #16
   88524:	3408      	adds	r4, #8
   88526:	e010      	b.n	8854a <_realloc_r+0x1ca>
   88528:	68a3      	ldr	r3, [r4, #8]
   8852a:	2a24      	cmp	r2, #36	; 0x24
   8852c:	612b      	str	r3, [r5, #16]
   8852e:	68e1      	ldr	r1, [r4, #12]
   88530:	6169      	str	r1, [r5, #20]
   88532:	d003      	beq.n	8853c <_realloc_r+0x1bc>
   88534:	f105 0018 	add.w	r0, r5, #24
   88538:	3410      	adds	r4, #16
   8853a:	e006      	b.n	8854a <_realloc_r+0x1ca>
   8853c:	6922      	ldr	r2, [r4, #16]
   8853e:	61aa      	str	r2, [r5, #24]
   88540:	6960      	ldr	r0, [r4, #20]
   88542:	3418      	adds	r4, #24
   88544:	61e8      	str	r0, [r5, #28]
   88546:	f105 0020 	add.w	r0, r5, #32
   8854a:	6826      	ldr	r6, [r4, #0]
   8854c:	6006      	str	r6, [r0, #0]
   8854e:	6863      	ldr	r3, [r4, #4]
   88550:	6043      	str	r3, [r0, #4]
   88552:	68a1      	ldr	r1, [r4, #8]
   88554:	6081      	str	r1, [r0, #8]
   88556:	e055      	b.n	88604 <_realloc_r+0x284>
   88558:	4621      	mov	r1, r4
   8855a:	f7ff fb05 	bl	87b68 <memmove>
   8855e:	e051      	b.n	88604 <_realloc_r+0x284>
   88560:	4631      	mov	r1, r6
   88562:	4648      	mov	r0, r9
   88564:	f7ff f890 	bl	87688 <_malloc_r>
   88568:	4606      	mov	r6, r0
   8856a:	2800      	cmp	r0, #0
   8856c:	d044      	beq.n	885f8 <_realloc_r+0x278>
   8856e:	f854 1c04 	ldr.w	r1, [r4, #-4]
   88572:	f1a0 0208 	sub.w	r2, r0, #8
   88576:	f021 0301 	bic.w	r3, r1, #1
   8857a:	eb0b 0103 	add.w	r1, fp, r3
   8857e:	428a      	cmp	r2, r1
   88580:	d106      	bne.n	88590 <_realloc_r+0x210>
   88582:	f850 6c04 	ldr.w	r6, [r0, #-4]
   88586:	f026 0503 	bic.w	r5, r6, #3
   8858a:	eb05 0a08 	add.w	sl, r5, r8
   8858e:	e038      	b.n	88602 <_realloc_r+0x282>
   88590:	f1a8 0204 	sub.w	r2, r8, #4
   88594:	2a24      	cmp	r2, #36	; 0x24
   88596:	d828      	bhi.n	885ea <_realloc_r+0x26a>
   88598:	2a13      	cmp	r2, #19
   8859a:	d91e      	bls.n	885da <_realloc_r+0x25a>
   8859c:	6823      	ldr	r3, [r4, #0]
   8859e:	2a1b      	cmp	r2, #27
   885a0:	6003      	str	r3, [r0, #0]
   885a2:	6861      	ldr	r1, [r4, #4]
   885a4:	6041      	str	r1, [r0, #4]
   885a6:	d804      	bhi.n	885b2 <_realloc_r+0x232>
   885a8:	f100 0008 	add.w	r0, r0, #8
   885ac:	f104 0208 	add.w	r2, r4, #8
   885b0:	e014      	b.n	885dc <_realloc_r+0x25c>
   885b2:	68a0      	ldr	r0, [r4, #8]
   885b4:	2a24      	cmp	r2, #36	; 0x24
   885b6:	60b0      	str	r0, [r6, #8]
   885b8:	68e3      	ldr	r3, [r4, #12]
   885ba:	60f3      	str	r3, [r6, #12]
   885bc:	d004      	beq.n	885c8 <_realloc_r+0x248>
   885be:	f106 0010 	add.w	r0, r6, #16
   885c2:	f104 0210 	add.w	r2, r4, #16
   885c6:	e009      	b.n	885dc <_realloc_r+0x25c>
   885c8:	6922      	ldr	r2, [r4, #16]
   885ca:	f106 0018 	add.w	r0, r6, #24
   885ce:	6132      	str	r2, [r6, #16]
   885d0:	6961      	ldr	r1, [r4, #20]
   885d2:	f104 0218 	add.w	r2, r4, #24
   885d6:	6171      	str	r1, [r6, #20]
   885d8:	e000      	b.n	885dc <_realloc_r+0x25c>
   885da:	4622      	mov	r2, r4
   885dc:	6813      	ldr	r3, [r2, #0]
   885de:	6003      	str	r3, [r0, #0]
   885e0:	6851      	ldr	r1, [r2, #4]
   885e2:	6041      	str	r1, [r0, #4]
   885e4:	6892      	ldr	r2, [r2, #8]
   885e6:	6082      	str	r2, [r0, #8]
   885e8:	e002      	b.n	885f0 <_realloc_r+0x270>
   885ea:	4621      	mov	r1, r4
   885ec:	f7ff fabc 	bl	87b68 <memmove>
   885f0:	4648      	mov	r0, r9
   885f2:	4621      	mov	r1, r4
   885f4:	f7fe f9ea 	bl	869cc <_free_r>
   885f8:	4648      	mov	r0, r9
   885fa:	f7ff fad0 	bl	87b9e <__malloc_unlock>
   885fe:	e028      	b.n	88652 <_realloc_r+0x2d2>
   88600:	46c2      	mov	sl, r8
   88602:	465d      	mov	r5, fp
   88604:	ebc7 000a 	rsb	r0, r7, sl
   88608:	280f      	cmp	r0, #15
   8860a:	686a      	ldr	r2, [r5, #4]
   8860c:	d911      	bls.n	88632 <_realloc_r+0x2b2>
   8860e:	f002 0601 	and.w	r6, r2, #1
   88612:	19e9      	adds	r1, r5, r7
   88614:	f040 0301 	orr.w	r3, r0, #1
   88618:	4337      	orrs	r7, r6
   8861a:	606f      	str	r7, [r5, #4]
   8861c:	1808      	adds	r0, r1, r0
   8861e:	604b      	str	r3, [r1, #4]
   88620:	6842      	ldr	r2, [r0, #4]
   88622:	3108      	adds	r1, #8
   88624:	f042 0601 	orr.w	r6, r2, #1
   88628:	6046      	str	r6, [r0, #4]
   8862a:	4648      	mov	r0, r9
   8862c:	f7fe f9ce 	bl	869cc <_free_r>
   88630:	e00a      	b.n	88648 <_realloc_r+0x2c8>
   88632:	f002 0601 	and.w	r6, r2, #1
   88636:	ea4a 0306 	orr.w	r3, sl, r6
   8863a:	606b      	str	r3, [r5, #4]
   8863c:	eb05 010a 	add.w	r1, r5, sl
   88640:	6848      	ldr	r0, [r1, #4]
   88642:	f040 0201 	orr.w	r2, r0, #1
   88646:	604a      	str	r2, [r1, #4]
   88648:	4648      	mov	r0, r9
   8864a:	f7ff faa8 	bl	87b9e <__malloc_unlock>
   8864e:	f105 0608 	add.w	r6, r5, #8
   88652:	4630      	mov	r0, r6
   88654:	e8bd 8ff8 	ldmia.w	sp!, {r3, r4, r5, r6, r7, r8, r9, sl, fp, pc}
   88658:	200704f0 	.word	0x200704f0

0008865c <lflush>:
   8865c:	8983      	ldrh	r3, [r0, #12]
   8865e:	f003 0109 	and.w	r1, r3, #9
   88662:	2909      	cmp	r1, #9
   88664:	d101      	bne.n	8866a <lflush+0xe>
   88666:	f7fd bfba 	b.w	865de <fflush>
   8866a:	2000      	movs	r0, #0
   8866c:	4770      	bx	lr

0008866e <__srefill_r>:
   8866e:	b570      	push	{r4, r5, r6, lr}
   88670:	460c      	mov	r4, r1
   88672:	4605      	mov	r5, r0
   88674:	b118      	cbz	r0, 8867e <__srefill_r+0x10>
   88676:	6b83      	ldr	r3, [r0, #56]	; 0x38
   88678:	b90b      	cbnz	r3, 8867e <__srefill_r+0x10>
   8867a:	f7fe f80b 	bl	86694 <__sinit>
   8867e:	89a0      	ldrh	r0, [r4, #12]
   88680:	f400 5200 	and.w	r2, r0, #8192	; 0x2000
   88684:	b211      	sxth	r1, r2
   88686:	b931      	cbnz	r1, 88696 <__srefill_r+0x28>
   88688:	f440 5300 	orr.w	r3, r0, #8192	; 0x2000
   8868c:	6e60      	ldr	r0, [r4, #100]	; 0x64
   8868e:	81a3      	strh	r3, [r4, #12]
   88690:	f420 5200 	bic.w	r2, r0, #8192	; 0x2000
   88694:	6662      	str	r2, [r4, #100]	; 0x64
   88696:	89a3      	ldrh	r3, [r4, #12]
   88698:	2100      	movs	r1, #0
   8869a:	f003 0020 	and.w	r0, r3, #32
   8869e:	b202      	sxth	r2, r0
   886a0:	6061      	str	r1, [r4, #4]
   886a2:	2a00      	cmp	r2, #0
   886a4:	d152      	bne.n	8874c <__srefill_r+0xde>
   886a6:	f003 0104 	and.w	r1, r3, #4
   886aa:	b208      	sxth	r0, r1
   886ac:	b9d8      	cbnz	r0, 886e6 <__srefill_r+0x78>
   886ae:	f003 0010 	and.w	r0, r3, #16
   886b2:	b202      	sxth	r2, r0
   886b4:	b912      	cbnz	r2, 886bc <__srefill_r+0x4e>
   886b6:	2109      	movs	r1, #9
   886b8:	6029      	str	r1, [r5, #0]
   886ba:	e044      	b.n	88746 <__srefill_r+0xd8>
   886bc:	f003 0308 	and.w	r3, r3, #8
   886c0:	b219      	sxth	r1, r3
   886c2:	b159      	cbz	r1, 886dc <__srefill_r+0x6e>
   886c4:	4628      	mov	r0, r5
   886c6:	4621      	mov	r1, r4
   886c8:	f7fd fef2 	bl	864b0 <_fflush_r>
   886cc:	2800      	cmp	r0, #0
   886ce:	d13d      	bne.n	8874c <__srefill_r+0xde>
   886d0:	89a6      	ldrh	r6, [r4, #12]
   886d2:	60a0      	str	r0, [r4, #8]
   886d4:	f026 0208 	bic.w	r2, r6, #8
   886d8:	81a2      	strh	r2, [r4, #12]
   886da:	61a0      	str	r0, [r4, #24]
   886dc:	89a0      	ldrh	r0, [r4, #12]
   886de:	f040 0304 	orr.w	r3, r0, #4
   886e2:	81a3      	strh	r3, [r4, #12]
   886e4:	e010      	b.n	88708 <__srefill_r+0x9a>
   886e6:	6b21      	ldr	r1, [r4, #48]	; 0x30
   886e8:	b171      	cbz	r1, 88708 <__srefill_r+0x9a>
   886ea:	f104 0340 	add.w	r3, r4, #64	; 0x40
   886ee:	4299      	cmp	r1, r3
   886f0:	d002      	beq.n	886f8 <__srefill_r+0x8a>
   886f2:	4628      	mov	r0, r5
   886f4:	f7fe f96a 	bl	869cc <_free_r>
   886f8:	6be2      	ldr	r2, [r4, #60]	; 0x3c
   886fa:	2000      	movs	r0, #0
   886fc:	6320      	str	r0, [r4, #48]	; 0x30
   886fe:	6062      	str	r2, [r4, #4]
   88700:	b112      	cbz	r2, 88708 <__srefill_r+0x9a>
   88702:	6ba1      	ldr	r1, [r4, #56]	; 0x38
   88704:	6021      	str	r1, [r4, #0]
   88706:	bd70      	pop	{r4, r5, r6, pc}
   88708:	6921      	ldr	r1, [r4, #16]
   8870a:	b919      	cbnz	r1, 88714 <__srefill_r+0xa6>
   8870c:	4628      	mov	r0, r5
   8870e:	4621      	mov	r1, r4
   88710:	f7fe ff3e 	bl	87590 <__smakebuf_r>
   88714:	89a6      	ldrh	r6, [r4, #12]
   88716:	07b3      	lsls	r3, r6, #30
   88718:	d004      	beq.n	88724 <__srefill_r+0xb6>
   8871a:	4a0f      	ldr	r2, [pc, #60]	; (88758 <__srefill_r+0xea>)
   8871c:	490f      	ldr	r1, [pc, #60]	; (8875c <__srefill_r+0xee>)
   8871e:	6810      	ldr	r0, [r2, #0]
   88720:	f7fe fb65 	bl	86dee <_fwalk>
   88724:	6922      	ldr	r2, [r4, #16]
   88726:	6a26      	ldr	r6, [r4, #32]
   88728:	6022      	str	r2, [r4, #0]
   8872a:	4628      	mov	r0, r5
   8872c:	69e1      	ldr	r1, [r4, #28]
   8872e:	6963      	ldr	r3, [r4, #20]
   88730:	47b0      	blx	r6
   88732:	2800      	cmp	r0, #0
   88734:	6060      	str	r0, [r4, #4]
   88736:	dc0c      	bgt.n	88752 <__srefill_r+0xe4>
   88738:	89a3      	ldrh	r3, [r4, #12]
   8873a:	d102      	bne.n	88742 <__srefill_r+0xd4>
   8873c:	f043 0220 	orr.w	r2, r3, #32
   88740:	e003      	b.n	8874a <__srefill_r+0xdc>
   88742:	2000      	movs	r0, #0
   88744:	6060      	str	r0, [r4, #4]
   88746:	f043 0240 	orr.w	r2, r3, #64	; 0x40
   8874a:	81a2      	strh	r2, [r4, #12]
   8874c:	f04f 30ff 	mov.w	r0, #4294967295
   88750:	bd70      	pop	{r4, r5, r6, pc}
   88752:	2000      	movs	r0, #0
   88754:	bd70      	pop	{r4, r5, r6, pc}
   88756:	bf00      	nop
   88758:	00089b14 	.word	0x00089b14
   8875c:	0008865d 	.word	0x0008865d

00088760 <__fpclassifyd>:
   88760:	460b      	mov	r3, r1
   88762:	b111      	cbz	r1, 8876a <__fpclassifyd+0xa>
   88764:	f1b1 4f00 	cmp.w	r1, #2147483648	; 0x80000000
   88768:	d100      	bne.n	8876c <__fpclassifyd+0xc>
   8876a:	b1e0      	cbz	r0, 887a6 <__fpclassifyd+0x46>
   8876c:	4a12      	ldr	r2, [pc, #72]	; (887b8 <__fpclassifyd+0x58>)
   8876e:	f5a3 1180 	sub.w	r1, r3, #1048576	; 0x100000
   88772:	4291      	cmp	r1, r2
   88774:	d919      	bls.n	887aa <__fpclassifyd+0x4a>
   88776:	f103 41ff 	add.w	r1, r3, #2139095040	; 0x7f800000
   8877a:	f501 01e0 	add.w	r1, r1, #7340032	; 0x700000
   8877e:	4291      	cmp	r1, r2
   88780:	d913      	bls.n	887aa <__fpclassifyd+0x4a>
   88782:	4a0e      	ldr	r2, [pc, #56]	; (887bc <__fpclassifyd+0x5c>)
   88784:	4293      	cmp	r3, r2
   88786:	d912      	bls.n	887ae <__fpclassifyd+0x4e>
   88788:	f103 4100 	add.w	r1, r3, #2147483648	; 0x80000000
   8878c:	4291      	cmp	r1, r2
   8878e:	d90e      	bls.n	887ae <__fpclassifyd+0x4e>
   88790:	4a0b      	ldr	r2, [pc, #44]	; (887c0 <__fpclassifyd+0x60>)
   88792:	4293      	cmp	r3, r2
   88794:	d002      	beq.n	8879c <__fpclassifyd+0x3c>
   88796:	f513 1f80 	cmn.w	r3, #1048576	; 0x100000
   8879a:	d10a      	bne.n	887b2 <__fpclassifyd+0x52>
   8879c:	f1d0 0001 	rsbs	r0, r0, #1
   887a0:	bf38      	it	cc
   887a2:	2000      	movcc	r0, #0
   887a4:	4770      	bx	lr
   887a6:	2002      	movs	r0, #2
   887a8:	4770      	bx	lr
   887aa:	2004      	movs	r0, #4
   887ac:	4770      	bx	lr
   887ae:	2003      	movs	r0, #3
   887b0:	4770      	bx	lr
   887b2:	2000      	movs	r0, #0
   887b4:	4770      	bx	lr
   887b6:	bf00      	nop
   887b8:	7fdfffff 	.word	0x7fdfffff
   887bc:	000fffff 	.word	0x000fffff
   887c0:	7ff00000 	.word	0x7ff00000

000887c4 <_sbrk_r>:
   887c4:	b538      	push	{r3, r4, r5, lr}
   887c6:	4c06      	ldr	r4, [pc, #24]	; (887e0 <_sbrk_r+0x1c>)
   887c8:	2300      	movs	r3, #0
   887ca:	4605      	mov	r5, r0
   887cc:	4608      	mov	r0, r1
   887ce:	6023      	str	r3, [r4, #0]
   887d0:	f7fb f998 	bl	83b04 <_sbrk>
   887d4:	1c43      	adds	r3, r0, #1
   887d6:	d102      	bne.n	887de <_sbrk_r+0x1a>
   887d8:	6821      	ldr	r1, [r4, #0]
   887da:	b101      	cbz	r1, 887de <_sbrk_r+0x1a>
   887dc:	6029      	str	r1, [r5, #0]
   887de:	bd38      	pop	{r3, r4, r5, pc}
   887e0:	2007adf8 	.word	0x2007adf8

000887e4 <__sccl>:
   887e4:	b5f0      	push	{r4, r5, r6, r7, lr}
   887e6:	780b      	ldrb	r3, [r1, #0]
   887e8:	2b5e      	cmp	r3, #94	; 0x5e
   887ea:	d002      	beq.n	887f2 <__sccl+0xe>
   887ec:	3101      	adds	r1, #1
   887ee:	2400      	movs	r4, #0
   887f0:	e002      	b.n	887f8 <__sccl+0x14>
   887f2:	784b      	ldrb	r3, [r1, #1]
   887f4:	2401      	movs	r4, #1
   887f6:	3102      	adds	r1, #2
   887f8:	2200      	movs	r2, #0
   887fa:	5484      	strb	r4, [r0, r2]
   887fc:	3201      	adds	r2, #1
   887fe:	f5b2 7f80 	cmp.w	r2, #256	; 0x100
   88802:	d1fa      	bne.n	887fa <__sccl+0x16>
   88804:	b90b      	cbnz	r3, 8880a <__sccl+0x26>
   88806:	1e4a      	subs	r2, r1, #1
   88808:	e01a      	b.n	88840 <__sccl+0x5c>
   8880a:	f1c4 0701 	rsb	r7, r4, #1
   8880e:	b2fe      	uxtb	r6, r7
   88810:	54c6      	strb	r6, [r0, r3]
   88812:	460a      	mov	r2, r1
   88814:	4611      	mov	r1, r2
   88816:	f811 4b01 	ldrb.w	r4, [r1], #1
   8881a:	2c2d      	cmp	r4, #45	; 0x2d
   8881c:	d004      	beq.n	88828 <__sccl+0x44>
   8881e:	2c5d      	cmp	r4, #93	; 0x5d
   88820:	d00d      	beq.n	8883e <__sccl+0x5a>
   88822:	b16c      	cbz	r4, 88840 <__sccl+0x5c>
   88824:	4623      	mov	r3, r4
   88826:	e7f2      	b.n	8880e <__sccl+0x2a>
   88828:	7855      	ldrb	r5, [r2, #1]
   8882a:	2d5d      	cmp	r5, #93	; 0x5d
   8882c:	d0fa      	beq.n	88824 <__sccl+0x40>
   8882e:	429d      	cmp	r5, r3
   88830:	dbf8      	blt.n	88824 <__sccl+0x40>
   88832:	3202      	adds	r2, #2
   88834:	3301      	adds	r3, #1
   88836:	42ab      	cmp	r3, r5
   88838:	54c6      	strb	r6, [r0, r3]
   8883a:	dbfb      	blt.n	88834 <__sccl+0x50>
   8883c:	e7ea      	b.n	88814 <__sccl+0x30>
   8883e:	460a      	mov	r2, r1
   88840:	4610      	mov	r0, r2
   88842:	bdf0      	pop	{r4, r5, r6, r7, pc}

00088844 <nanf>:
   88844:	4800      	ldr	r0, [pc, #0]	; (88848 <nanf+0x4>)
   88846:	4770      	bx	lr
   88848:	7fc00000 	.word	0x7fc00000

0008884c <__sread>:
   8884c:	b510      	push	{r4, lr}
   8884e:	460c      	mov	r4, r1
   88850:	f9b1 100e 	ldrsh.w	r1, [r1, #14]
   88854:	f000 fd14 	bl	89280 <_read_r>
   88858:	2800      	cmp	r0, #0
   8885a:	db03      	blt.n	88864 <__sread+0x18>
   8885c:	6d22      	ldr	r2, [r4, #80]	; 0x50
   8885e:	1813      	adds	r3, r2, r0
   88860:	6523      	str	r3, [r4, #80]	; 0x50
   88862:	bd10      	pop	{r4, pc}
   88864:	89a3      	ldrh	r3, [r4, #12]
   88866:	f423 5180 	bic.w	r1, r3, #4096	; 0x1000
   8886a:	81a1      	strh	r1, [r4, #12]
   8886c:	bd10      	pop	{r4, pc}

0008886e <__seofread>:
   8886e:	2000      	movs	r0, #0
   88870:	4770      	bx	lr

00088872 <__swrite>:
   88872:	e92d 41f0 	stmdb	sp!, {r4, r5, r6, r7, r8, lr}
   88876:	461d      	mov	r5, r3
   88878:	898b      	ldrh	r3, [r1, #12]
   8887a:	460c      	mov	r4, r1
   8887c:	f403 7180 	and.w	r1, r3, #256	; 0x100
   88880:	4616      	mov	r6, r2
   88882:	b20a      	sxth	r2, r1
   88884:	4607      	mov	r7, r0
   88886:	b12a      	cbz	r2, 88894 <__swrite+0x22>
   88888:	f9b4 100e 	ldrsh.w	r1, [r4, #14]
   8888c:	2200      	movs	r2, #0
   8888e:	2302      	movs	r3, #2
   88890:	f000 fce4 	bl	8925c <_lseek_r>
   88894:	89a0      	ldrh	r0, [r4, #12]
   88896:	f9b4 100e 	ldrsh.w	r1, [r4, #14]
   8889a:	f420 5380 	bic.w	r3, r0, #4096	; 0x1000
   8889e:	81a3      	strh	r3, [r4, #12]
   888a0:	4638      	mov	r0, r7
   888a2:	4632      	mov	r2, r6
   888a4:	462b      	mov	r3, r5
   888a6:	e8bd 41f0 	ldmia.w	sp!, {r4, r5, r6, r7, r8, lr}
   888aa:	f000 bc1b 	b.w	890e4 <_write_r>

000888ae <__sseek>:
   888ae:	b510      	push	{r4, lr}
   888b0:	460c      	mov	r4, r1
   888b2:	f9b1 100e 	ldrsh.w	r1, [r1, #14]
   888b6:	f000 fcd1 	bl	8925c <_lseek_r>
   888ba:	1c43      	adds	r3, r0, #1
   888bc:	89a3      	ldrh	r3, [r4, #12]
   888be:	d103      	bne.n	888c8 <__sseek+0x1a>
   888c0:	f423 5280 	bic.w	r2, r3, #4096	; 0x1000
   888c4:	81a2      	strh	r2, [r4, #12]
   888c6:	bd10      	pop	{r4, pc}
   888c8:	f443 5180 	orr.w	r1, r3, #4096	; 0x1000
   888cc:	81a1      	strh	r1, [r4, #12]
   888ce:	6520      	str	r0, [r4, #80]	; 0x50
   888d0:	bd10      	pop	{r4, pc}

000888d2 <__sclose>:
   888d2:	f9b1 100e 	ldrsh.w	r1, [r1, #14]
   888d6:	f000 bc45 	b.w	89164 <_close_r>

000888da <strcmp>:
   888da:	f810 2b01 	ldrb.w	r2, [r0], #1
   888de:	f811 3b01 	ldrb.w	r3, [r1], #1
   888e2:	2a01      	cmp	r2, #1
   888e4:	bf28      	it	cs
   888e6:	429a      	cmpcs	r2, r3
   888e8:	d0f7      	beq.n	888da <strcmp>
   888ea:	eba2 0003 	sub.w	r0, r2, r3
   888ee:	4770      	bx	lr

000888f0 <_strtol_r>:
   888f0:	e92d 4ff7 	stmdb	sp!, {r0, r1, r2, r4, r5, r6, r7, r8, r9, sl, fp, lr}
   888f4:	9001      	str	r0, [sp, #4]
   888f6:	4840      	ldr	r0, [pc, #256]	; (889f8 <_strtol_r+0x108>)
   888f8:	f8d0 9000 	ldr.w	r9, [r0]
   888fc:	4608      	mov	r0, r1
   888fe:	4604      	mov	r4, r0
   88900:	f814 5b01 	ldrb.w	r5, [r4], #1
   88904:	eb09 0605 	add.w	r6, r9, r5
   88908:	7877      	ldrb	r7, [r6, #1]
   8890a:	4620      	mov	r0, r4
   8890c:	f007 0608 	and.w	r6, r7, #8
   88910:	b2f7      	uxtb	r7, r6
   88912:	2f00      	cmp	r7, #0
   88914:	d1f3      	bne.n	888fe <_strtol_r+0xe>
   88916:	2d2d      	cmp	r5, #45	; 0x2d
   88918:	d103      	bne.n	88922 <_strtol_r+0x32>
   8891a:	f814 5b01 	ldrb.w	r5, [r4], #1
   8891e:	2701      	movs	r7, #1
   88920:	e004      	b.n	8892c <_strtol_r+0x3c>
   88922:	2d2b      	cmp	r5, #43	; 0x2b
   88924:	bf04      	itt	eq
   88926:	4624      	moveq	r4, r4
   88928:	f814 5b01 	ldrbeq.w	r5, [r4], #1
   8892c:	2b00      	cmp	r3, #0
   8892e:	d05c      	beq.n	889ea <_strtol_r+0xfa>
   88930:	2b10      	cmp	r3, #16
   88932:	d107      	bne.n	88944 <_strtol_r+0x54>
   88934:	2d30      	cmp	r5, #48	; 0x30
   88936:	d105      	bne.n	88944 <_strtol_r+0x54>
   88938:	7825      	ldrb	r5, [r4, #0]
   8893a:	2d78      	cmp	r5, #120	; 0x78
   8893c:	d14e      	bne.n	889dc <_strtol_r+0xec>
   8893e:	7865      	ldrb	r5, [r4, #1]
   88940:	2310      	movs	r3, #16
   88942:	3402      	adds	r4, #2
   88944:	2f00      	cmp	r7, #0
   88946:	bf0c      	ite	eq
   88948:	f06f 4000 	mvneq.w	r0, #2147483648	; 0x80000000
   8894c:	f04f 4000 	movne.w	r0, #2147483648	; 0x80000000
   88950:	fbb0 faf3 	udiv	sl, r0, r3
   88954:	2600      	movs	r6, #0
   88956:	fb03 081a 	mls	r8, r3, sl, r0
   8895a:	4630      	mov	r0, r6
   8895c:	eb09 0c05 	add.w	ip, r9, r5
   88960:	f89c c001 	ldrb.w	ip, [ip, #1]
   88964:	f00c 0b04 	and.w	fp, ip, #4
   88968:	fa5f fb8b 	uxtb.w	fp, fp
   8896c:	f1bb 0f00 	cmp.w	fp, #0
   88970:	d001      	beq.n	88976 <_strtol_r+0x86>
   88972:	3d30      	subs	r5, #48	; 0x30
   88974:	e00b      	b.n	8898e <_strtol_r+0x9e>
   88976:	f01c 0c03 	ands.w	ip, ip, #3
   8897a:	d01b      	beq.n	889b4 <_strtol_r+0xc4>
   8897c:	f1bc 0f01 	cmp.w	ip, #1
   88980:	bf14      	ite	ne
   88982:	f04f 0c57 	movne.w	ip, #87	; 0x57
   88986:	f04f 0c37 	moveq.w	ip, #55	; 0x37
   8898a:	ebcc 0505 	rsb	r5, ip, r5
   8898e:	429d      	cmp	r5, r3
   88990:	da10      	bge.n	889b4 <_strtol_r+0xc4>
   88992:	f1b6 3fff 	cmp.w	r6, #4294967295
   88996:	d00a      	beq.n	889ae <_strtol_r+0xbe>
   88998:	4550      	cmp	r0, sl
   8899a:	d806      	bhi.n	889aa <_strtol_r+0xba>
   8899c:	d101      	bne.n	889a2 <_strtol_r+0xb2>
   8899e:	4545      	cmp	r5, r8
   889a0:	dc03      	bgt.n	889aa <_strtol_r+0xba>
   889a2:	fb03 5000 	mla	r0, r3, r0, r5
   889a6:	2601      	movs	r6, #1
   889a8:	e001      	b.n	889ae <_strtol_r+0xbe>
   889aa:	f04f 36ff 	mov.w	r6, #4294967295
   889ae:	f814 5b01 	ldrb.w	r5, [r4], #1
   889b2:	e7d3      	b.n	8895c <_strtol_r+0x6c>
   889b4:	1c73      	adds	r3, r6, #1
   889b6:	d10a      	bne.n	889ce <_strtol_r+0xde>
   889b8:	2f00      	cmp	r7, #0
   889ba:	9901      	ldr	r1, [sp, #4]
   889bc:	bf0c      	ite	eq
   889be:	f06f 4000 	mvneq.w	r0, #2147483648	; 0x80000000
   889c2:	f04f 4000 	movne.w	r0, #2147483648	; 0x80000000
   889c6:	2322      	movs	r3, #34	; 0x22
   889c8:	600b      	str	r3, [r1, #0]
   889ca:	b922      	cbnz	r2, 889d6 <_strtol_r+0xe6>
   889cc:	e011      	b.n	889f2 <_strtol_r+0x102>
   889ce:	b107      	cbz	r7, 889d2 <_strtol_r+0xe2>
   889d0:	4240      	negs	r0, r0
   889d2:	b172      	cbz	r2, 889f2 <_strtol_r+0x102>
   889d4:	b106      	cbz	r6, 889d8 <_strtol_r+0xe8>
   889d6:	1e61      	subs	r1, r4, #1
   889d8:	6011      	str	r1, [r2, #0]
   889da:	e00a      	b.n	889f2 <_strtol_r+0x102>
   889dc:	2d58      	cmp	r5, #88	; 0x58
   889de:	d0ae      	beq.n	8893e <_strtol_r+0x4e>
   889e0:	2530      	movs	r5, #48	; 0x30
   889e2:	2b00      	cmp	r3, #0
   889e4:	d1ae      	bne.n	88944 <_strtol_r+0x54>
   889e6:	2308      	movs	r3, #8
   889e8:	e7ac      	b.n	88944 <_strtol_r+0x54>
   889ea:	2d30      	cmp	r5, #48	; 0x30
   889ec:	d0a4      	beq.n	88938 <_strtol_r+0x48>
   889ee:	230a      	movs	r3, #10
   889f0:	e7a8      	b.n	88944 <_strtol_r+0x54>
   889f2:	e8bd 8ffe 	ldmia.w	sp!, {r1, r2, r3, r4, r5, r6, r7, r8, r9, sl, fp, pc}
   889f6:	bf00      	nop
   889f8:	20070470 	.word	0x20070470

000889fc <strtol>:
   889fc:	b530      	push	{r4, r5, lr}
   889fe:	4613      	mov	r3, r2
   88a00:	4a04      	ldr	r2, [pc, #16]	; (88a14 <strtol+0x18>)
   88a02:	4605      	mov	r5, r0
   88a04:	460c      	mov	r4, r1
   88a06:	6810      	ldr	r0, [r2, #0]
   88a08:	4629      	mov	r1, r5
   88a0a:	4622      	mov	r2, r4
   88a0c:	e8bd 4030 	ldmia.w	sp!, {r4, r5, lr}
   88a10:	f7ff bf6e 	b.w	888f0 <_strtol_r>
   88a14:	20070018 	.word	0x20070018

00088a18 <_strtoll_r>:
   88a18:	e92d 4ff0 	stmdb	sp!, {r4, r5, r6, r7, r8, r9, sl, fp, lr}
   88a1c:	4698      	mov	r8, r3
   88a1e:	4b61      	ldr	r3, [pc, #388]	; (88ba4 <_strtoll_r+0x18c>)
   88a20:	b089      	sub	sp, #36	; 0x24
   88a22:	9007      	str	r0, [sp, #28]
   88a24:	6818      	ldr	r0, [r3, #0]
   88a26:	9104      	str	r1, [sp, #16]
   88a28:	4694      	mov	ip, r2
   88a2a:	9005      	str	r0, [sp, #20]
   88a2c:	460e      	mov	r6, r1
   88a2e:	f816 7b01 	ldrb.w	r7, [r6], #1
   88a32:	9c05      	ldr	r4, [sp, #20]
   88a34:	4631      	mov	r1, r6
   88a36:	19e2      	adds	r2, r4, r7
   88a38:	f892 a001 	ldrb.w	sl, [r2, #1]
   88a3c:	f00a 0508 	and.w	r5, sl, #8
   88a40:	b2eb      	uxtb	r3, r5
   88a42:	2b00      	cmp	r3, #0
   88a44:	d1f2      	bne.n	88a2c <_strtoll_r+0x14>
   88a46:	2f2d      	cmp	r7, #45	; 0x2d
   88a48:	d104      	bne.n	88a54 <_strtoll_r+0x3c>
   88a4a:	f816 7b01 	ldrb.w	r7, [r6], #1
   88a4e:	f04f 0a01 	mov.w	sl, #1
   88a52:	e005      	b.n	88a60 <_strtoll_r+0x48>
   88a54:	2f2b      	cmp	r7, #43	; 0x2b
   88a56:	bf04      	itt	eq
   88a58:	4636      	moveq	r6, r6
   88a5a:	f816 7b01 	ldrbeq.w	r7, [r6], #1
   88a5e:	469a      	mov	sl, r3
   88a60:	f1b8 0f00 	cmp.w	r8, #0
   88a64:	f000 8092 	beq.w	88b8c <_strtoll_r+0x174>
   88a68:	f1b8 0f10 	cmp.w	r8, #16
   88a6c:	d108      	bne.n	88a80 <_strtoll_r+0x68>
   88a6e:	2f30      	cmp	r7, #48	; 0x30
   88a70:	d106      	bne.n	88a80 <_strtoll_r+0x68>
   88a72:	7837      	ldrb	r7, [r6, #0]
   88a74:	2f78      	cmp	r7, #120	; 0x78
   88a76:	d17e      	bne.n	88b76 <_strtoll_r+0x15e>
   88a78:	7877      	ldrb	r7, [r6, #1]
   88a7a:	f04f 0810 	mov.w	r8, #16
   88a7e:	3602      	adds	r6, #2
   88a80:	f1ba 0f00 	cmp.w	sl, #0
   88a84:	d003      	beq.n	88a8e <_strtoll_r+0x76>
   88a86:	2400      	movs	r4, #0
   88a88:	f04f 4500 	mov.w	r5, #2147483648	; 0x80000000
   88a8c:	e003      	b.n	88a96 <_strtoll_r+0x7e>
   88a8e:	f04f 34ff 	mov.w	r4, #4294967295
   88a92:	f06f 4500 	mvn.w	r5, #2147483648	; 0x80000000
   88a96:	ea4f 7be8 	mov.w	fp, r8, asr #31
   88a9a:	4620      	mov	r0, r4
   88a9c:	4629      	mov	r1, r5
   88a9e:	4642      	mov	r2, r8
   88aa0:	465b      	mov	r3, fp
   88aa2:	f8cd c004 	str.w	ip, [sp, #4]
   88aa6:	f000 fcf5 	bl	89494 <__aeabi_uldivmod>
   88aaa:	465b      	mov	r3, fp
   88aac:	9206      	str	r2, [sp, #24]
   88aae:	4620      	mov	r0, r4
   88ab0:	4642      	mov	r2, r8
   88ab2:	4629      	mov	r1, r5
   88ab4:	f000 fcee 	bl	89494 <__aeabi_uldivmod>
   88ab8:	f8dd c004 	ldr.w	ip, [sp, #4]
   88abc:	9103      	str	r1, [sp, #12]
   88abe:	46c1      	mov	r9, r8
   88ac0:	9002      	str	r0, [sp, #8]
   88ac2:	2100      	movs	r1, #0
   88ac4:	2200      	movs	r2, #0
   88ac6:	2300      	movs	r3, #0
   88ac8:	9805      	ldr	r0, [sp, #20]
   88aca:	19c4      	adds	r4, r0, r7
   88acc:	7860      	ldrb	r0, [r4, #1]
   88ace:	f000 0404 	and.w	r4, r0, #4
   88ad2:	b2e4      	uxtb	r4, r4
   88ad4:	b10c      	cbz	r4, 88ada <_strtoll_r+0xc2>
   88ad6:	3f30      	subs	r7, #48	; 0x30
   88ad8:	e007      	b.n	88aea <_strtoll_r+0xd2>
   88ada:	f010 0003 	ands.w	r0, r0, #3
   88ade:	d026      	beq.n	88b2e <_strtoll_r+0x116>
   88ae0:	2801      	cmp	r0, #1
   88ae2:	bf14      	ite	ne
   88ae4:	2057      	movne	r0, #87	; 0x57
   88ae6:	2037      	moveq	r0, #55	; 0x37
   88ae8:	1a3f      	subs	r7, r7, r0
   88aea:	4547      	cmp	r7, r8
   88aec:	da1f      	bge.n	88b2e <_strtoll_r+0x116>
   88aee:	1c4c      	adds	r4, r1, #1
   88af0:	d01a      	beq.n	88b28 <_strtoll_r+0x110>
   88af2:	e9dd 0102 	ldrd	r0, r1, [sp, #8]
   88af6:	4299      	cmp	r1, r3
   88af8:	bf08      	it	eq
   88afa:	4290      	cmpeq	r0, r2
   88afc:	d312      	bcc.n	88b24 <_strtoll_r+0x10c>
   88afe:	428b      	cmp	r3, r1
   88b00:	bf08      	it	eq
   88b02:	4282      	cmpeq	r2, r0
   88b04:	d102      	bne.n	88b0c <_strtoll_r+0xf4>
   88b06:	9906      	ldr	r1, [sp, #24]
   88b08:	428f      	cmp	r7, r1
   88b0a:	dc0b      	bgt.n	88b24 <_strtoll_r+0x10c>
   88b0c:	fb02 f40b 	mul.w	r4, r2, fp
   88b10:	fb09 4003 	mla	r0, r9, r3, r4
   88b14:	fba2 2309 	umull	r2, r3, r2, r9
   88b18:	19d2      	adds	r2, r2, r7
   88b1a:	4403      	add	r3, r0
   88b1c:	eb43 73e7 	adc.w	r3, r3, r7, asr #31
   88b20:	2101      	movs	r1, #1
   88b22:	e001      	b.n	88b28 <_strtoll_r+0x110>
   88b24:	f04f 31ff 	mov.w	r1, #4294967295
   88b28:	f816 7b01 	ldrb.w	r7, [r6], #1
   88b2c:	e7cc      	b.n	88ac8 <_strtoll_r+0xb0>
   88b2e:	1c48      	adds	r0, r1, #1
   88b30:	d111      	bne.n	88b56 <_strtoll_r+0x13e>
   88b32:	f1ba 0f00 	cmp.w	sl, #0
   88b36:	d003      	beq.n	88b40 <_strtoll_r+0x128>
   88b38:	2200      	movs	r2, #0
   88b3a:	f04f 4300 	mov.w	r3, #2147483648	; 0x80000000
   88b3e:	e003      	b.n	88b48 <_strtoll_r+0x130>
   88b40:	f04f 32ff 	mov.w	r2, #4294967295
   88b44:	f06f 4300 	mvn.w	r3, #2147483648	; 0x80000000
   88b48:	9c07      	ldr	r4, [sp, #28]
   88b4a:	2022      	movs	r0, #34	; 0x22
   88b4c:	6020      	str	r0, [r4, #0]
   88b4e:	f1bc 0f00 	cmp.w	ip, #0
   88b52:	d10a      	bne.n	88b6a <_strtoll_r+0x152>
   88b54:	e020      	b.n	88b98 <_strtoll_r+0x180>
   88b56:	f1ba 0f00 	cmp.w	sl, #0
   88b5a:	d002      	beq.n	88b62 <_strtoll_r+0x14a>
   88b5c:	4252      	negs	r2, r2
   88b5e:	eb63 0343 	sbc.w	r3, r3, r3, lsl #1
   88b62:	f1bc 0f00 	cmp.w	ip, #0
   88b66:	d017      	beq.n	88b98 <_strtoll_r+0x180>
   88b68:	b109      	cbz	r1, 88b6e <_strtoll_r+0x156>
   88b6a:	3e01      	subs	r6, #1
   88b6c:	9604      	str	r6, [sp, #16]
   88b6e:	9c04      	ldr	r4, [sp, #16]
   88b70:	f8cc 4000 	str.w	r4, [ip]
   88b74:	e010      	b.n	88b98 <_strtoll_r+0x180>
   88b76:	2f58      	cmp	r7, #88	; 0x58
   88b78:	f43f af7e 	beq.w	88a78 <_strtoll_r+0x60>
   88b7c:	2730      	movs	r7, #48	; 0x30
   88b7e:	f1b8 0f00 	cmp.w	r8, #0
   88b82:	f47f af7d 	bne.w	88a80 <_strtoll_r+0x68>
   88b86:	f04f 0808 	mov.w	r8, #8
   88b8a:	e779      	b.n	88a80 <_strtoll_r+0x68>
   88b8c:	2f30      	cmp	r7, #48	; 0x30
   88b8e:	f43f af70 	beq.w	88a72 <_strtoll_r+0x5a>
   88b92:	f04f 080a 	mov.w	r8, #10
   88b96:	e773      	b.n	88a80 <_strtoll_r+0x68>
   88b98:	4610      	mov	r0, r2
   88b9a:	4619      	mov	r1, r3
   88b9c:	b009      	add	sp, #36	; 0x24
   88b9e:	e8bd 8ff0 	ldmia.w	sp!, {r4, r5, r6, r7, r8, r9, sl, fp, pc}
   88ba2:	bf00      	nop
   88ba4:	20070470 	.word	0x20070470

00088ba8 <_strtoul_r>:
   88ba8:	e92d 4ff7 	stmdb	sp!, {r0, r1, r2, r4, r5, r6, r7, r8, r9, sl, fp, lr}
   88bac:	9001      	str	r0, [sp, #4]
   88bae:	483c      	ldr	r0, [pc, #240]	; (88ca0 <_strtoul_r+0xf8>)
   88bb0:	f8d0 9000 	ldr.w	r9, [r0]
   88bb4:	4608      	mov	r0, r1
   88bb6:	4604      	mov	r4, r0
   88bb8:	f814 5b01 	ldrb.w	r5, [r4], #1
   88bbc:	eb09 0605 	add.w	r6, r9, r5
   88bc0:	7877      	ldrb	r7, [r6, #1]
   88bc2:	4620      	mov	r0, r4
   88bc4:	f007 0608 	and.w	r6, r7, #8
   88bc8:	b2f7      	uxtb	r7, r6
   88bca:	2f00      	cmp	r7, #0
   88bcc:	d1f3      	bne.n	88bb6 <_strtoul_r+0xe>
   88bce:	2d2d      	cmp	r5, #45	; 0x2d
   88bd0:	d103      	bne.n	88bda <_strtoul_r+0x32>
   88bd2:	f814 5b01 	ldrb.w	r5, [r4], #1
   88bd6:	2701      	movs	r7, #1
   88bd8:	e004      	b.n	88be4 <_strtoul_r+0x3c>
   88bda:	2d2b      	cmp	r5, #43	; 0x2b
   88bdc:	bf04      	itt	eq
   88bde:	4624      	moveq	r4, r4
   88be0:	f814 5b01 	ldrbeq.w	r5, [r4], #1
   88be4:	2b00      	cmp	r3, #0
   88be6:	d055      	beq.n	88c94 <_strtoul_r+0xec>
   88be8:	2b10      	cmp	r3, #16
   88bea:	d107      	bne.n	88bfc <_strtoul_r+0x54>
   88bec:	2d30      	cmp	r5, #48	; 0x30
   88bee:	d105      	bne.n	88bfc <_strtoul_r+0x54>
   88bf0:	7825      	ldrb	r5, [r4, #0]
   88bf2:	2d78      	cmp	r5, #120	; 0x78
   88bf4:	d147      	bne.n	88c86 <_strtoul_r+0xde>
   88bf6:	7865      	ldrb	r5, [r4, #1]
   88bf8:	2310      	movs	r3, #16
   88bfa:	3402      	adds	r4, #2
   88bfc:	f04f 3aff 	mov.w	sl, #4294967295
   88c00:	fbba faf3 	udiv	sl, sl, r3
   88c04:	fb03 f00a 	mul.w	r0, r3, sl
   88c08:	2600      	movs	r6, #0
   88c0a:	ea6f 0800 	mvn.w	r8, r0
   88c0e:	4630      	mov	r0, r6
   88c10:	eb09 0c05 	add.w	ip, r9, r5
   88c14:	f89c c001 	ldrb.w	ip, [ip, #1]
   88c18:	f00c 0b04 	and.w	fp, ip, #4
   88c1c:	fa5f fb8b 	uxtb.w	fp, fp
   88c20:	f1bb 0f00 	cmp.w	fp, #0
   88c24:	d001      	beq.n	88c2a <_strtoul_r+0x82>
   88c26:	3d30      	subs	r5, #48	; 0x30
   88c28:	e00b      	b.n	88c42 <_strtoul_r+0x9a>
   88c2a:	f01c 0c03 	ands.w	ip, ip, #3
   88c2e:	d01b      	beq.n	88c68 <_strtoul_r+0xc0>
   88c30:	f1bc 0f01 	cmp.w	ip, #1
   88c34:	bf14      	ite	ne
   88c36:	f04f 0c57 	movne.w	ip, #87	; 0x57
   88c3a:	f04f 0c37 	moveq.w	ip, #55	; 0x37
   88c3e:	ebcc 0505 	rsb	r5, ip, r5
   88c42:	429d      	cmp	r5, r3
   88c44:	da10      	bge.n	88c68 <_strtoul_r+0xc0>
   88c46:	f1b6 3fff 	cmp.w	r6, #4294967295
   88c4a:	d00a      	beq.n	88c62 <_strtoul_r+0xba>
   88c4c:	4550      	cmp	r0, sl
   88c4e:	d806      	bhi.n	88c5e <_strtoul_r+0xb6>
   88c50:	d101      	bne.n	88c56 <_strtoul_r+0xae>
   88c52:	4545      	cmp	r5, r8
   88c54:	dc03      	bgt.n	88c5e <_strtoul_r+0xb6>
   88c56:	fb03 5000 	mla	r0, r3, r0, r5
   88c5a:	2601      	movs	r6, #1
   88c5c:	e001      	b.n	88c62 <_strtoul_r+0xba>
   88c5e:	f04f 36ff 	mov.w	r6, #4294967295
   88c62:	f814 5b01 	ldrb.w	r5, [r4], #1
   88c66:	e7d3      	b.n	88c10 <_strtoul_r+0x68>
   88c68:	1c73      	adds	r3, r6, #1
   88c6a:	d105      	bne.n	88c78 <_strtoul_r+0xd0>
   88c6c:	9901      	ldr	r1, [sp, #4]
   88c6e:	2322      	movs	r3, #34	; 0x22
   88c70:	600b      	str	r3, [r1, #0]
   88c72:	4630      	mov	r0, r6
   88c74:	b922      	cbnz	r2, 88c80 <_strtoul_r+0xd8>
   88c76:	e011      	b.n	88c9c <_strtoul_r+0xf4>
   88c78:	b107      	cbz	r7, 88c7c <_strtoul_r+0xd4>
   88c7a:	4240      	negs	r0, r0
   88c7c:	b172      	cbz	r2, 88c9c <_strtoul_r+0xf4>
   88c7e:	b106      	cbz	r6, 88c82 <_strtoul_r+0xda>
   88c80:	1e61      	subs	r1, r4, #1
   88c82:	6011      	str	r1, [r2, #0]
   88c84:	e00a      	b.n	88c9c <_strtoul_r+0xf4>
   88c86:	2d58      	cmp	r5, #88	; 0x58
   88c88:	d0b5      	beq.n	88bf6 <_strtoul_r+0x4e>
   88c8a:	2530      	movs	r5, #48	; 0x30
   88c8c:	2b00      	cmp	r3, #0
   88c8e:	d1b5      	bne.n	88bfc <_strtoul_r+0x54>
   88c90:	2308      	movs	r3, #8
   88c92:	e7b3      	b.n	88bfc <_strtoul_r+0x54>
   88c94:	2d30      	cmp	r5, #48	; 0x30
   88c96:	d0ab      	beq.n	88bf0 <_strtoul_r+0x48>
   88c98:	230a      	movs	r3, #10
   88c9a:	e7af      	b.n	88bfc <_strtoul_r+0x54>
   88c9c:	e8bd 8ffe 	ldmia.w	sp!, {r1, r2, r3, r4, r5, r6, r7, r8, r9, sl, fp, pc}
   88ca0:	20070470 	.word	0x20070470

00088ca4 <strtoul>:
   88ca4:	b530      	push	{r4, r5, lr}
   88ca6:	4613      	mov	r3, r2
   88ca8:	4a04      	ldr	r2, [pc, #16]	; (88cbc <strtoul+0x18>)
   88caa:	4605      	mov	r5, r0
   88cac:	460c      	mov	r4, r1
   88cae:	6810      	ldr	r0, [r2, #0]
   88cb0:	4629      	mov	r1, r5
   88cb2:	4622      	mov	r2, r4
   88cb4:	e8bd 4030 	ldmia.w	sp!, {r4, r5, lr}
   88cb8:	f7ff bf76 	b.w	88ba8 <_strtoul_r>
   88cbc:	20070018 	.word	0x20070018

00088cc0 <_strtoull_r>:
   88cc0:	e92d 4ff0 	stmdb	sp!, {r4, r5, r6, r7, r8, r9, sl, fp, lr}
   88cc4:	461e      	mov	r6, r3
   88cc6:	4b55      	ldr	r3, [pc, #340]	; (88e1c <_strtoull_r+0x15c>)
   88cc8:	b087      	sub	sp, #28
   88cca:	9005      	str	r0, [sp, #20]
   88ccc:	6818      	ldr	r0, [r3, #0]
   88cce:	468a      	mov	sl, r1
   88cd0:	4693      	mov	fp, r2
   88cd2:	9003      	str	r0, [sp, #12]
   88cd4:	460c      	mov	r4, r1
   88cd6:	f814 5b01 	ldrb.w	r5, [r4], #1
   88cda:	9a03      	ldr	r2, [sp, #12]
   88cdc:	4621      	mov	r1, r4
   88cde:	1957      	adds	r7, r2, r5
   88ce0:	f897 9001 	ldrb.w	r9, [r7, #1]
   88ce4:	f009 0308 	and.w	r3, r9, #8
   88ce8:	b2d8      	uxtb	r0, r3
   88cea:	2800      	cmp	r0, #0
   88cec:	d1f2      	bne.n	88cd4 <_strtoull_r+0x14>
   88cee:	2d2d      	cmp	r5, #45	; 0x2d
   88cf0:	d104      	bne.n	88cfc <_strtoull_r+0x3c>
   88cf2:	f814 5b01 	ldrb.w	r5, [r4], #1
   88cf6:	f04f 0901 	mov.w	r9, #1
   88cfa:	e005      	b.n	88d08 <_strtoull_r+0x48>
   88cfc:	2d2b      	cmp	r5, #43	; 0x2b
   88cfe:	bf04      	itt	eq
   88d00:	4624      	moveq	r4, r4
   88d02:	f814 5b01 	ldrbeq.w	r5, [r4], #1
   88d06:	4681      	mov	r9, r0
   88d08:	2e00      	cmp	r6, #0
   88d0a:	d07d      	beq.n	88e08 <_strtoull_r+0x148>
   88d0c:	2e10      	cmp	r6, #16
   88d0e:	d107      	bne.n	88d20 <_strtoull_r+0x60>
   88d10:	2d30      	cmp	r5, #48	; 0x30
   88d12:	d105      	bne.n	88d20 <_strtoull_r+0x60>
   88d14:	7825      	ldrb	r5, [r4, #0]
   88d16:	2d78      	cmp	r5, #120	; 0x78
   88d18:	d16f      	bne.n	88dfa <_strtoull_r+0x13a>
   88d1a:	7865      	ldrb	r5, [r4, #1]
   88d1c:	2610      	movs	r6, #16
   88d1e:	3402      	adds	r4, #2
   88d20:	ea4f 78e6 	mov.w	r8, r6, asr #31
   88d24:	4632      	mov	r2, r6
   88d26:	4643      	mov	r3, r8
   88d28:	f04f 30ff 	mov.w	r0, #4294967295
   88d2c:	f04f 31ff 	mov.w	r1, #4294967295
   88d30:	f000 fbb0 	bl	89494 <__aeabi_uldivmod>
   88d34:	4632      	mov	r2, r6
   88d36:	e88d 0003 	stmia.w	sp, {r0, r1}
   88d3a:	4643      	mov	r3, r8
   88d3c:	f04f 30ff 	mov.w	r0, #4294967295
   88d40:	f04f 31ff 	mov.w	r1, #4294967295
   88d44:	f000 fba6 	bl	89494 <__aeabi_uldivmod>
   88d48:	4637      	mov	r7, r6
   88d4a:	9204      	str	r2, [sp, #16]
   88d4c:	2100      	movs	r1, #0
   88d4e:	2200      	movs	r2, #0
   88d50:	2300      	movs	r3, #0
   88d52:	9803      	ldr	r0, [sp, #12]
   88d54:	eb00 0c05 	add.w	ip, r0, r5
   88d58:	f89c 0001 	ldrb.w	r0, [ip, #1]
   88d5c:	f000 0e04 	and.w	lr, r0, #4
   88d60:	fa5f fc8e 	uxtb.w	ip, lr
   88d64:	f1bc 0f00 	cmp.w	ip, #0
   88d68:	d001      	beq.n	88d6e <_strtoull_r+0xae>
   88d6a:	3d30      	subs	r5, #48	; 0x30
   88d6c:	e007      	b.n	88d7e <_strtoull_r+0xbe>
   88d6e:	f010 0003 	ands.w	r0, r0, #3
   88d72:	d026      	beq.n	88dc2 <_strtoull_r+0x102>
   88d74:	2801      	cmp	r0, #1
   88d76:	bf14      	ite	ne
   88d78:	2057      	movne	r0, #87	; 0x57
   88d7a:	2037      	moveq	r0, #55	; 0x37
   88d7c:	1a2d      	subs	r5, r5, r0
   88d7e:	42b5      	cmp	r5, r6
   88d80:	da1f      	bge.n	88dc2 <_strtoull_r+0x102>
   88d82:	1c48      	adds	r0, r1, #1
   88d84:	d01a      	beq.n	88dbc <_strtoull_r+0xfc>
   88d86:	e9dd 0100 	ldrd	r0, r1, [sp]
   88d8a:	4299      	cmp	r1, r3
   88d8c:	bf08      	it	eq
   88d8e:	4290      	cmpeq	r0, r2
   88d90:	d312      	bcc.n	88db8 <_strtoull_r+0xf8>
   88d92:	428b      	cmp	r3, r1
   88d94:	bf08      	it	eq
   88d96:	4282      	cmpeq	r2, r0
   88d98:	d102      	bne.n	88da0 <_strtoull_r+0xe0>
   88d9a:	9904      	ldr	r1, [sp, #16]
   88d9c:	428d      	cmp	r5, r1
   88d9e:	dc0b      	bgt.n	88db8 <_strtoull_r+0xf8>
   88da0:	fb02 f008 	mul.w	r0, r2, r8
   88da4:	fb07 0103 	mla	r1, r7, r3, r0
   88da8:	fba2 2307 	umull	r2, r3, r2, r7
   88dac:	18cb      	adds	r3, r1, r3
   88dae:	1952      	adds	r2, r2, r5
   88db0:	eb43 73e5 	adc.w	r3, r3, r5, asr #31
   88db4:	2101      	movs	r1, #1
   88db6:	e001      	b.n	88dbc <_strtoull_r+0xfc>
   88db8:	f04f 31ff 	mov.w	r1, #4294967295
   88dbc:	f814 5b01 	ldrb.w	r5, [r4], #1
   88dc0:	e7c7      	b.n	88d52 <_strtoull_r+0x92>
   88dc2:	1c48      	adds	r0, r1, #1
   88dc4:	d10a      	bne.n	88ddc <_strtoull_r+0x11c>
   88dc6:	9a05      	ldr	r2, [sp, #20]
   88dc8:	2022      	movs	r0, #34	; 0x22
   88dca:	6010      	str	r0, [r2, #0]
   88dcc:	f04f 33ff 	mov.w	r3, #4294967295
   88dd0:	f04f 32ff 	mov.w	r2, #4294967295
   88dd4:	f1bb 0f00 	cmp.w	fp, #0
   88dd8:	d10a      	bne.n	88df0 <_strtoull_r+0x130>
   88dda:	e019      	b.n	88e10 <_strtoull_r+0x150>
   88ddc:	f1b9 0f00 	cmp.w	r9, #0
   88de0:	d002      	beq.n	88de8 <_strtoull_r+0x128>
   88de2:	4252      	negs	r2, r2
   88de4:	eb63 0343 	sbc.w	r3, r3, r3, lsl #1
   88de8:	f1bb 0f00 	cmp.w	fp, #0
   88dec:	d010      	beq.n	88e10 <_strtoull_r+0x150>
   88dee:	b109      	cbz	r1, 88df4 <_strtoull_r+0x134>
   88df0:	f104 3aff 	add.w	sl, r4, #4294967295
   88df4:	f8cb a000 	str.w	sl, [fp]
   88df8:	e00a      	b.n	88e10 <_strtoull_r+0x150>
   88dfa:	2d58      	cmp	r5, #88	; 0x58
   88dfc:	d08d      	beq.n	88d1a <_strtoull_r+0x5a>
   88dfe:	2530      	movs	r5, #48	; 0x30
   88e00:	2e00      	cmp	r6, #0
   88e02:	d18d      	bne.n	88d20 <_strtoull_r+0x60>
   88e04:	2608      	movs	r6, #8
   88e06:	e78b      	b.n	88d20 <_strtoull_r+0x60>
   88e08:	2d30      	cmp	r5, #48	; 0x30
   88e0a:	d083      	beq.n	88d14 <_strtoull_r+0x54>
   88e0c:	260a      	movs	r6, #10
   88e0e:	e787      	b.n	88d20 <_strtoull_r+0x60>
   88e10:	4610      	mov	r0, r2
   88e12:	4619      	mov	r1, r3
   88e14:	b007      	add	sp, #28
   88e16:	e8bd 8ff0 	ldmia.w	sp!, {r4, r5, r6, r7, r8, r9, sl, fp, pc}
   88e1a:	bf00      	nop
   88e1c:	20070470 	.word	0x20070470

00088e20 <__submore>:
   88e20:	e92d 41f0 	stmdb	sp!, {r4, r5, r6, r7, r8, lr}
   88e24:	460c      	mov	r4, r1
   88e26:	6b09      	ldr	r1, [r1, #48]	; 0x30
   88e28:	f104 0340 	add.w	r3, r4, #64	; 0x40
   88e2c:	4299      	cmp	r1, r3
   88e2e:	d11c      	bne.n	88e6a <__submore+0x4a>
   88e30:	f44f 6180 	mov.w	r1, #1024	; 0x400
   88e34:	f7fe fc28 	bl	87688 <_malloc_r>
   88e38:	b918      	cbnz	r0, 88e42 <__submore+0x22>
   88e3a:	f04f 30ff 	mov.w	r0, #4294967295
   88e3e:	e8bd 81f0 	ldmia.w	sp!, {r4, r5, r6, r7, r8, pc}
   88e42:	f894 2042 	ldrb.w	r2, [r4, #66]	; 0x42
   88e46:	f44f 6180 	mov.w	r1, #1024	; 0x400
   88e4a:	6320      	str	r0, [r4, #48]	; 0x30
   88e4c:	6361      	str	r1, [r4, #52]	; 0x34
   88e4e:	f880 23ff 	strb.w	r2, [r0, #1023]	; 0x3ff
   88e52:	f894 3041 	ldrb.w	r3, [r4, #65]	; 0x41
   88e56:	f880 33fe 	strb.w	r3, [r0, #1022]	; 0x3fe
   88e5a:	f894 1040 	ldrb.w	r1, [r4, #64]	; 0x40
   88e5e:	f880 13fd 	strb.w	r1, [r0, #1021]	; 0x3fd
   88e62:	f200 30fd 	addw	r0, r0, #1021	; 0x3fd
   88e66:	6020      	str	r0, [r4, #0]
   88e68:	e012      	b.n	88e90 <__submore+0x70>
   88e6a:	6b66      	ldr	r6, [r4, #52]	; 0x34
   88e6c:	0077      	lsls	r7, r6, #1
   88e6e:	463a      	mov	r2, r7
   88e70:	f7ff fa86 	bl	88380 <_realloc_r>
   88e74:	4605      	mov	r5, r0
   88e76:	2800      	cmp	r0, #0
   88e78:	d0df      	beq.n	88e3a <__submore+0x1a>
   88e7a:	eb00 0806 	add.w	r8, r0, r6
   88e7e:	4640      	mov	r0, r8
   88e80:	4629      	mov	r1, r5
   88e82:	4632      	mov	r2, r6
   88e84:	f7fb fb84 	bl	84590 <memcpy>
   88e88:	f8c4 8000 	str.w	r8, [r4]
   88e8c:	6325      	str	r5, [r4, #48]	; 0x30
   88e8e:	6367      	str	r7, [r4, #52]	; 0x34
   88e90:	2000      	movs	r0, #0
   88e92:	e8bd 81f0 	ldmia.w	sp!, {r4, r5, r6, r7, r8, pc}

00088e96 <_ungetc_r>:
   88e96:	1c4b      	adds	r3, r1, #1
   88e98:	b570      	push	{r4, r5, r6, lr}
   88e9a:	4606      	mov	r6, r0
   88e9c:	460d      	mov	r5, r1
   88e9e:	4614      	mov	r4, r2
   88ea0:	d102      	bne.n	88ea8 <_ungetc_r+0x12>
   88ea2:	f04f 35ff 	mov.w	r5, #4294967295
   88ea6:	e062      	b.n	88f6e <_ungetc_r+0xd8>
   88ea8:	b118      	cbz	r0, 88eb2 <_ungetc_r+0x1c>
   88eaa:	6b83      	ldr	r3, [r0, #56]	; 0x38
   88eac:	b90b      	cbnz	r3, 88eb2 <_ungetc_r+0x1c>
   88eae:	f7fd fbf1 	bl	86694 <__sinit>
   88eb2:	89a0      	ldrh	r0, [r4, #12]
   88eb4:	f400 5200 	and.w	r2, r0, #8192	; 0x2000
   88eb8:	b211      	sxth	r1, r2
   88eba:	b931      	cbnz	r1, 88eca <_ungetc_r+0x34>
   88ebc:	f440 5300 	orr.w	r3, r0, #8192	; 0x2000
   88ec0:	6e60      	ldr	r0, [r4, #100]	; 0x64
   88ec2:	81a3      	strh	r3, [r4, #12]
   88ec4:	f420 5200 	bic.w	r2, r0, #8192	; 0x2000
   88ec8:	6662      	str	r2, [r4, #100]	; 0x64
   88eca:	89a1      	ldrh	r1, [r4, #12]
   88ecc:	f001 0004 	and.w	r0, r1, #4
   88ed0:	f021 0320 	bic.w	r3, r1, #32
   88ed4:	b202      	sxth	r2, r0
   88ed6:	81a3      	strh	r3, [r4, #12]
   88ed8:	b9c2      	cbnz	r2, 88f0c <_ungetc_r+0x76>
   88eda:	f001 0310 	and.w	r3, r1, #16
   88ede:	b218      	sxth	r0, r3
   88ee0:	2800      	cmp	r0, #0
   88ee2:	d0de      	beq.n	88ea2 <_ungetc_r+0xc>
   88ee4:	f001 0108 	and.w	r1, r1, #8
   88ee8:	b20a      	sxth	r2, r1
   88eea:	b15a      	cbz	r2, 88f04 <_ungetc_r+0x6e>
   88eec:	4630      	mov	r0, r6
   88eee:	4621      	mov	r1, r4
   88ef0:	f7fd fade 	bl	864b0 <_fflush_r>
   88ef4:	2800      	cmp	r0, #0
   88ef6:	d1d4      	bne.n	88ea2 <_ungetc_r+0xc>
   88ef8:	89a3      	ldrh	r3, [r4, #12]
   88efa:	60a0      	str	r0, [r4, #8]
   88efc:	f023 0108 	bic.w	r1, r3, #8
   88f00:	81a1      	strh	r1, [r4, #12]
   88f02:	61a0      	str	r0, [r4, #24]
   88f04:	89a0      	ldrh	r0, [r4, #12]
   88f06:	f040 0204 	orr.w	r2, r0, #4
   88f0a:	81a2      	strh	r2, [r4, #12]
   88f0c:	6b23      	ldr	r3, [r4, #48]	; 0x30
   88f0e:	b2ed      	uxtb	r5, r5
   88f10:	b183      	cbz	r3, 88f34 <_ungetc_r+0x9e>
   88f12:	6862      	ldr	r2, [r4, #4]
   88f14:	6b63      	ldr	r3, [r4, #52]	; 0x34
   88f16:	429a      	cmp	r2, r3
   88f18:	da05      	bge.n	88f26 <_ungetc_r+0x90>
   88f1a:	6821      	ldr	r1, [r4, #0]
   88f1c:	1e48      	subs	r0, r1, #1
   88f1e:	6020      	str	r0, [r4, #0]
   88f20:	f801 5c01 	strb.w	r5, [r1, #-1]
   88f24:	e011      	b.n	88f4a <_ungetc_r+0xb4>
   88f26:	4630      	mov	r0, r6
   88f28:	4621      	mov	r1, r4
   88f2a:	f7ff ff79 	bl	88e20 <__submore>
   88f2e:	2800      	cmp	r0, #0
   88f30:	d0f3      	beq.n	88f1a <_ungetc_r+0x84>
   88f32:	e7b6      	b.n	88ea2 <_ungetc_r+0xc>
   88f34:	6921      	ldr	r1, [r4, #16]
   88f36:	b159      	cbz	r1, 88f50 <_ungetc_r+0xba>
   88f38:	6820      	ldr	r0, [r4, #0]
   88f3a:	4288      	cmp	r0, r1
   88f3c:	d908      	bls.n	88f50 <_ungetc_r+0xba>
   88f3e:	f810 2c01 	ldrb.w	r2, [r0, #-1]
   88f42:	42aa      	cmp	r2, r5
   88f44:	d104      	bne.n	88f50 <_ungetc_r+0xba>
   88f46:	3801      	subs	r0, #1
   88f48:	6020      	str	r0, [r4, #0]
   88f4a:	6862      	ldr	r2, [r4, #4]
   88f4c:	1c51      	adds	r1, r2, #1
   88f4e:	e00d      	b.n	88f6c <_ungetc_r+0xd6>
   88f50:	6863      	ldr	r3, [r4, #4]
   88f52:	6821      	ldr	r1, [r4, #0]
   88f54:	63e3      	str	r3, [r4, #60]	; 0x3c
   88f56:	4623      	mov	r3, r4
   88f58:	f104 0040 	add.w	r0, r4, #64	; 0x40
   88f5c:	2203      	movs	r2, #3
   88f5e:	f803 5f42 	strb.w	r5, [r3, #66]!
   88f62:	63a1      	str	r1, [r4, #56]	; 0x38
   88f64:	6320      	str	r0, [r4, #48]	; 0x30
   88f66:	6362      	str	r2, [r4, #52]	; 0x34
   88f68:	6023      	str	r3, [r4, #0]
   88f6a:	2101      	movs	r1, #1
   88f6c:	6061      	str	r1, [r4, #4]
   88f6e:	4628      	mov	r0, r5
   88f70:	bd70      	pop	{r4, r5, r6, pc}

00088f72 <ungetc>:
   88f72:	460a      	mov	r2, r1
   88f74:	4902      	ldr	r1, [pc, #8]	; (88f80 <ungetc+0xe>)
   88f76:	4603      	mov	r3, r0
   88f78:	6808      	ldr	r0, [r1, #0]
   88f7a:	4619      	mov	r1, r3
   88f7c:	f7ff bf8b 	b.w	88e96 <_ungetc_r>
   88f80:	20070018 	.word	0x20070018

00088f84 <__swbuf_r>:
   88f84:	b570      	push	{r4, r5, r6, lr}
   88f86:	460d      	mov	r5, r1
   88f88:	4614      	mov	r4, r2
   88f8a:	4606      	mov	r6, r0
   88f8c:	b118      	cbz	r0, 88f96 <__swbuf_r+0x12>
   88f8e:	6b83      	ldr	r3, [r0, #56]	; 0x38
   88f90:	b90b      	cbnz	r3, 88f96 <__swbuf_r+0x12>
   88f92:	f7fd fb7f 	bl	86694 <__sinit>
   88f96:	89a1      	ldrh	r1, [r4, #12]
   88f98:	69a0      	ldr	r0, [r4, #24]
   88f9a:	f001 0208 	and.w	r2, r1, #8
   88f9e:	b213      	sxth	r3, r2
   88fa0:	60a0      	str	r0, [r4, #8]
   88fa2:	b10b      	cbz	r3, 88fa8 <__swbuf_r+0x24>
   88fa4:	6920      	ldr	r0, [r4, #16]
   88fa6:	b958      	cbnz	r0, 88fc0 <__swbuf_r+0x3c>
   88fa8:	4630      	mov	r0, r6
   88faa:	4621      	mov	r1, r4
   88fac:	f7fd fa14 	bl	863d8 <__swsetup_r>
   88fb0:	b130      	cbz	r0, 88fc0 <__swbuf_r+0x3c>
   88fb2:	89a5      	ldrh	r5, [r4, #12]
   88fb4:	2009      	movs	r0, #9
   88fb6:	f045 0140 	orr.w	r1, r5, #64	; 0x40
   88fba:	81a1      	strh	r1, [r4, #12]
   88fbc:	6030      	str	r0, [r6, #0]
   88fbe:	e017      	b.n	88ff0 <__swbuf_r+0x6c>
   88fc0:	89a1      	ldrh	r1, [r4, #12]
   88fc2:	b2ed      	uxtb	r5, r5
   88fc4:	f401 5200 	and.w	r2, r1, #8192	; 0x2000
   88fc8:	b213      	sxth	r3, r2
   88fca:	b933      	cbnz	r3, 88fda <__swbuf_r+0x56>
   88fcc:	f441 5000 	orr.w	r0, r1, #8192	; 0x2000
   88fd0:	6e61      	ldr	r1, [r4, #100]	; 0x64
   88fd2:	81a0      	strh	r0, [r4, #12]
   88fd4:	f421 5200 	bic.w	r2, r1, #8192	; 0x2000
   88fd8:	6662      	str	r2, [r4, #100]	; 0x64
   88fda:	6820      	ldr	r0, [r4, #0]
   88fdc:	6923      	ldr	r3, [r4, #16]
   88fde:	6961      	ldr	r1, [r4, #20]
   88fe0:	1ac0      	subs	r0, r0, r3
   88fe2:	4288      	cmp	r0, r1
   88fe4:	db07      	blt.n	88ff6 <__swbuf_r+0x72>
   88fe6:	4630      	mov	r0, r6
   88fe8:	4621      	mov	r1, r4
   88fea:	f7fd fa61 	bl	864b0 <_fflush_r>
   88fee:	b110      	cbz	r0, 88ff6 <__swbuf_r+0x72>
   88ff0:	f04f 35ff 	mov.w	r5, #4294967295
   88ff4:	e015      	b.n	89022 <__swbuf_r+0x9e>
   88ff6:	68a2      	ldr	r2, [r4, #8]
   88ff8:	6821      	ldr	r1, [r4, #0]
   88ffa:	1e53      	subs	r3, r2, #1
   88ffc:	60a3      	str	r3, [r4, #8]
   88ffe:	f801 5b01 	strb.w	r5, [r1], #1
   89002:	6962      	ldr	r2, [r4, #20]
   89004:	3001      	adds	r0, #1
   89006:	4290      	cmp	r0, r2
   89008:	6021      	str	r1, [r4, #0]
   8900a:	d004      	beq.n	89016 <__swbuf_r+0x92>
   8900c:	89a3      	ldrh	r3, [r4, #12]
   8900e:	07db      	lsls	r3, r3, #31
   89010:	d507      	bpl.n	89022 <__swbuf_r+0x9e>
   89012:	2d0a      	cmp	r5, #10
   89014:	d105      	bne.n	89022 <__swbuf_r+0x9e>
   89016:	4630      	mov	r0, r6
   89018:	4621      	mov	r1, r4
   8901a:	f7fd fa49 	bl	864b0 <_fflush_r>
   8901e:	2800      	cmp	r0, #0
   89020:	d1e6      	bne.n	88ff0 <__swbuf_r+0x6c>
   89022:	4628      	mov	r0, r5
   89024:	bd70      	pop	{r4, r5, r6, pc}

00089026 <__swbuf>:
   89026:	460a      	mov	r2, r1
   89028:	4902      	ldr	r1, [pc, #8]	; (89034 <__swbuf+0xe>)
   8902a:	4603      	mov	r3, r0
   8902c:	6808      	ldr	r0, [r1, #0]
   8902e:	4619      	mov	r1, r3
   89030:	f7ff bfa8 	b.w	88f84 <__swbuf_r>
   89034:	20070018 	.word	0x20070018

00089038 <_wcrtomb_r>:
   89038:	e92d 41f0 	stmdb	sp!, {r4, r5, r6, r7, r8, lr}
   8903c:	461d      	mov	r5, r3
   8903e:	4b10      	ldr	r3, [pc, #64]	; (89080 <_wcrtomb_r+0x48>)
   89040:	b086      	sub	sp, #24
   89042:	4604      	mov	r4, r0
   89044:	4690      	mov	r8, r2
   89046:	460e      	mov	r6, r1
   89048:	681f      	ldr	r7, [r3, #0]
   8904a:	b939      	cbnz	r1, 8905c <_wcrtomb_r+0x24>
   8904c:	f7fe fa7e 	bl	8754c <__locale_charset>
   89050:	9500      	str	r5, [sp, #0]
   89052:	4603      	mov	r3, r0
   89054:	a903      	add	r1, sp, #12
   89056:	4620      	mov	r0, r4
   89058:	4632      	mov	r2, r6
   8905a:	e006      	b.n	8906a <_wcrtomb_r+0x32>
   8905c:	f7fe fa76 	bl	8754c <__locale_charset>
   89060:	9500      	str	r5, [sp, #0]
   89062:	4603      	mov	r3, r0
   89064:	4631      	mov	r1, r6
   89066:	4620      	mov	r0, r4
   89068:	4642      	mov	r2, r8
   8906a:	47b8      	blx	r7
   8906c:	1c43      	adds	r3, r0, #1
   8906e:	d103      	bne.n	89078 <_wcrtomb_r+0x40>
   89070:	2100      	movs	r1, #0
   89072:	228a      	movs	r2, #138	; 0x8a
   89074:	6029      	str	r1, [r5, #0]
   89076:	6022      	str	r2, [r4, #0]
   89078:	b006      	add	sp, #24
   8907a:	e8bd 81f0 	ldmia.w	sp!, {r4, r5, r6, r7, r8, pc}
   8907e:	bf00      	nop
   89080:	20070904 	.word	0x20070904

00089084 <wcrtomb>:
   89084:	b530      	push	{r4, r5, lr}
   89086:	4613      	mov	r3, r2
   89088:	4a04      	ldr	r2, [pc, #16]	; (8909c <wcrtomb+0x18>)
   8908a:	4605      	mov	r5, r0
   8908c:	460c      	mov	r4, r1
   8908e:	6810      	ldr	r0, [r2, #0]
   89090:	4629      	mov	r1, r5
   89092:	4622      	mov	r2, r4
   89094:	e8bd 4030 	ldmia.w	sp!, {r4, r5, lr}
   89098:	f7ff bfce 	b.w	89038 <_wcrtomb_r>
   8909c:	20070018 	.word	0x20070018

000890a0 <__ascii_wctomb>:
   890a0:	b149      	cbz	r1, 890b6 <__ascii_wctomb+0x16>
   890a2:	2aff      	cmp	r2, #255	; 0xff
   890a4:	d904      	bls.n	890b0 <__ascii_wctomb+0x10>
   890a6:	238a      	movs	r3, #138	; 0x8a
   890a8:	6003      	str	r3, [r0, #0]
   890aa:	f04f 30ff 	mov.w	r0, #4294967295
   890ae:	4770      	bx	lr
   890b0:	700a      	strb	r2, [r1, #0]
   890b2:	2001      	movs	r0, #1
   890b4:	4770      	bx	lr
   890b6:	4608      	mov	r0, r1
   890b8:	4770      	bx	lr

000890ba <_wctomb_r>:
   890ba:	e92d 41f3 	stmdb	sp!, {r0, r1, r4, r5, r6, r7, r8, lr}
   890be:	4698      	mov	r8, r3
   890c0:	4b07      	ldr	r3, [pc, #28]	; (890e0 <_wctomb_r+0x26>)
   890c2:	4605      	mov	r5, r0
   890c4:	460f      	mov	r7, r1
   890c6:	4616      	mov	r6, r2
   890c8:	681c      	ldr	r4, [r3, #0]
   890ca:	f7fe fa3f 	bl	8754c <__locale_charset>
   890ce:	f8cd 8000 	str.w	r8, [sp]
   890d2:	4603      	mov	r3, r0
   890d4:	4639      	mov	r1, r7
   890d6:	4628      	mov	r0, r5
   890d8:	4632      	mov	r2, r6
   890da:	47a0      	blx	r4
   890dc:	e8bd 81fc 	ldmia.w	sp!, {r2, r3, r4, r5, r6, r7, r8, pc}
   890e0:	20070904 	.word	0x20070904

000890e4 <_write_r>:
   890e4:	b538      	push	{r3, r4, r5, lr}
   890e6:	4c07      	ldr	r4, [pc, #28]	; (89104 <_write_r+0x20>)
   890e8:	4605      	mov	r5, r0
   890ea:	2000      	movs	r0, #0
   890ec:	6020      	str	r0, [r4, #0]
   890ee:	4608      	mov	r0, r1
   890f0:	4611      	mov	r1, r2
   890f2:	461a      	mov	r2, r3
   890f4:	f7f9 fd02 	bl	82afc <_write>
   890f8:	1c43      	adds	r3, r0, #1
   890fa:	d102      	bne.n	89102 <_write_r+0x1e>
   890fc:	6823      	ldr	r3, [r4, #0]
   890fe:	b103      	cbz	r3, 89102 <_write_r+0x1e>
   89100:	602b      	str	r3, [r5, #0]
   89102:	bd38      	pop	{r3, r4, r5, pc}
   89104:	2007adf8 	.word	0x2007adf8

00089108 <_calloc_r>:
   89108:	b510      	push	{r4, lr}
   8910a:	4351      	muls	r1, r2
   8910c:	f7fe fabc 	bl	87688 <_malloc_r>
   89110:	4604      	mov	r4, r0
   89112:	b320      	cbz	r0, 8915e <_calloc_r+0x56>
   89114:	f850 2c04 	ldr.w	r2, [r0, #-4]
   89118:	f022 0103 	bic.w	r1, r2, #3
   8911c:	1f0a      	subs	r2, r1, #4
   8911e:	2a24      	cmp	r2, #36	; 0x24
   89120:	d81a      	bhi.n	89158 <_calloc_r+0x50>
   89122:	2a13      	cmp	r2, #19
   89124:	d912      	bls.n	8914c <_calloc_r+0x44>
   89126:	2300      	movs	r3, #0
   89128:	2a1b      	cmp	r2, #27
   8912a:	6003      	str	r3, [r0, #0]
   8912c:	6043      	str	r3, [r0, #4]
   8912e:	d802      	bhi.n	89136 <_calloc_r+0x2e>
   89130:	f100 0308 	add.w	r3, r0, #8
   89134:	e00b      	b.n	8914e <_calloc_r+0x46>
   89136:	2a24      	cmp	r2, #36	; 0x24
   89138:	6083      	str	r3, [r0, #8]
   8913a:	60c3      	str	r3, [r0, #12]
   8913c:	bf05      	ittet	eq
   8913e:	6103      	streq	r3, [r0, #16]
   89140:	6143      	streq	r3, [r0, #20]
   89142:	f100 0310 	addne.w	r3, r0, #16
   89146:	f100 0318 	addeq.w	r3, r0, #24
   8914a:	e000      	b.n	8914e <_calloc_r+0x46>
   8914c:	4603      	mov	r3, r0
   8914e:	2000      	movs	r0, #0
   89150:	6018      	str	r0, [r3, #0]
   89152:	6058      	str	r0, [r3, #4]
   89154:	6098      	str	r0, [r3, #8]
   89156:	e002      	b.n	8915e <_calloc_r+0x56>
   89158:	2100      	movs	r1, #0
   8915a:	f7fb fa22 	bl	845a2 <memset>
   8915e:	4620      	mov	r0, r4
   89160:	bd10      	pop	{r4, pc}
	...

00089164 <_close_r>:
   89164:	b538      	push	{r3, r4, r5, lr}
   89166:	4c06      	ldr	r4, [pc, #24]	; (89180 <_close_r+0x1c>)
   89168:	2300      	movs	r3, #0
   8916a:	4605      	mov	r5, r0
   8916c:	4608      	mov	r0, r1
   8916e:	6023      	str	r3, [r4, #0]
   89170:	f7fa fcee 	bl	83b50 <_close>
   89174:	1c43      	adds	r3, r0, #1
   89176:	d102      	bne.n	8917e <_close_r+0x1a>
   89178:	6821      	ldr	r1, [r4, #0]
   8917a:	b101      	cbz	r1, 8917e <_close_r+0x1a>
   8917c:	6029      	str	r1, [r5, #0]
   8917e:	bd38      	pop	{r3, r4, r5, pc}
   89180:	2007adf8 	.word	0x2007adf8

00089184 <_fclose_r>:
   89184:	b570      	push	{r4, r5, r6, lr}
   89186:	4605      	mov	r5, r0
   89188:	460c      	mov	r4, r1
   8918a:	2900      	cmp	r1, #0
   8918c:	d039      	beq.n	89202 <_fclose_r+0x7e>
   8918e:	f7fd fae5 	bl	8675c <__sfp_lock_acquire>
   89192:	b125      	cbz	r5, 8919e <_fclose_r+0x1a>
   89194:	6bab      	ldr	r3, [r5, #56]	; 0x38
   89196:	b913      	cbnz	r3, 8919e <_fclose_r+0x1a>
   89198:	4628      	mov	r0, r5
   8919a:	f7fd fa7b 	bl	86694 <__sinit>
   8919e:	f9b4 600c 	ldrsh.w	r6, [r4, #12]
   891a2:	b35e      	cbz	r6, 891fc <_fclose_r+0x78>
   891a4:	4628      	mov	r0, r5
   891a6:	4621      	mov	r1, r4
   891a8:	f7fd f982 	bl	864b0 <_fflush_r>
   891ac:	6ae2      	ldr	r2, [r4, #44]	; 0x2c
   891ae:	4606      	mov	r6, r0
   891b0:	b13a      	cbz	r2, 891c2 <_fclose_r+0x3e>
   891b2:	4628      	mov	r0, r5
   891b4:	69e1      	ldr	r1, [r4, #28]
   891b6:	4790      	blx	r2
   891b8:	ea36 0620 	bics.w	r6, r6, r0, asr #32
   891bc:	bf28      	it	cs
   891be:	f04f 36ff 	movcs.w	r6, #4294967295
   891c2:	89a0      	ldrh	r0, [r4, #12]
   891c4:	f000 0180 	and.w	r1, r0, #128	; 0x80
   891c8:	b20b      	sxth	r3, r1
   891ca:	b11b      	cbz	r3, 891d4 <_fclose_r+0x50>
   891cc:	4628      	mov	r0, r5
   891ce:	6921      	ldr	r1, [r4, #16]
   891d0:	f7fd fbfc 	bl	869cc <_free_r>
   891d4:	6b21      	ldr	r1, [r4, #48]	; 0x30
   891d6:	b141      	cbz	r1, 891ea <_fclose_r+0x66>
   891d8:	f104 0240 	add.w	r2, r4, #64	; 0x40
   891dc:	4291      	cmp	r1, r2
   891de:	d002      	beq.n	891e6 <_fclose_r+0x62>
   891e0:	4628      	mov	r0, r5
   891e2:	f7fd fbf3 	bl	869cc <_free_r>
   891e6:	2000      	movs	r0, #0
   891e8:	6320      	str	r0, [r4, #48]	; 0x30
   891ea:	6c61      	ldr	r1, [r4, #68]	; 0x44
   891ec:	b121      	cbz	r1, 891f8 <_fclose_r+0x74>
   891ee:	4628      	mov	r0, r5
   891f0:	f7fd fbec 	bl	869cc <_free_r>
   891f4:	2100      	movs	r1, #0
   891f6:	6461      	str	r1, [r4, #68]	; 0x44
   891f8:	2300      	movs	r3, #0
   891fa:	81a3      	strh	r3, [r4, #12]
   891fc:	f7fd faaf 	bl	8675e <__sfp_lock_release>
   89200:	e000      	b.n	89204 <_fclose_r+0x80>
   89202:	460e      	mov	r6, r1
   89204:	4630      	mov	r0, r6
   89206:	bd70      	pop	{r4, r5, r6, pc}

00089208 <fclose>:
   89208:	4b02      	ldr	r3, [pc, #8]	; (89214 <fclose+0xc>)
   8920a:	4601      	mov	r1, r0
   8920c:	6818      	ldr	r0, [r3, #0]
   8920e:	f7ff bfb9 	b.w	89184 <_fclose_r>
   89212:	bf00      	nop
   89214:	20070018 	.word	0x20070018

00089218 <_fstat_r>:
   89218:	b538      	push	{r3, r4, r5, lr}
   8921a:	4c07      	ldr	r4, [pc, #28]	; (89238 <_fstat_r+0x20>)
   8921c:	2300      	movs	r3, #0
   8921e:	4605      	mov	r5, r0
   89220:	4608      	mov	r0, r1
   89222:	4611      	mov	r1, r2
   89224:	6023      	str	r3, [r4, #0]
   89226:	f7fa fc97 	bl	83b58 <_fstat>
   8922a:	1c43      	adds	r3, r0, #1
   8922c:	d102      	bne.n	89234 <_fstat_r+0x1c>
   8922e:	6821      	ldr	r1, [r4, #0]
   89230:	b101      	cbz	r1, 89234 <_fstat_r+0x1c>
   89232:	6029      	str	r1, [r5, #0]
   89234:	bd38      	pop	{r3, r4, r5, pc}
   89236:	bf00      	nop
   89238:	2007adf8 	.word	0x2007adf8

0008923c <_isatty_r>:
   8923c:	b538      	push	{r3, r4, r5, lr}
   8923e:	4c06      	ldr	r4, [pc, #24]	; (89258 <_isatty_r+0x1c>)
   89240:	2300      	movs	r3, #0
   89242:	4605      	mov	r5, r0
   89244:	4608      	mov	r0, r1
   89246:	6023      	str	r3, [r4, #0]
   89248:	f7fa fc8c 	bl	83b64 <_isatty>
   8924c:	1c43      	adds	r3, r0, #1
   8924e:	d102      	bne.n	89256 <_isatty_r+0x1a>
   89250:	6821      	ldr	r1, [r4, #0]
   89252:	b101      	cbz	r1, 89256 <_isatty_r+0x1a>
   89254:	6029      	str	r1, [r5, #0]
   89256:	bd38      	pop	{r3, r4, r5, pc}
   89258:	2007adf8 	.word	0x2007adf8

0008925c <_lseek_r>:
   8925c:	b538      	push	{r3, r4, r5, lr}
   8925e:	4c07      	ldr	r4, [pc, #28]	; (8927c <_lseek_r+0x20>)
   89260:	4605      	mov	r5, r0
   89262:	2000      	movs	r0, #0
   89264:	6020      	str	r0, [r4, #0]
   89266:	4608      	mov	r0, r1
   89268:	4611      	mov	r1, r2
   8926a:	461a      	mov	r2, r3
   8926c:	f7fa fc7e 	bl	83b6c <_lseek>
   89270:	1c43      	adds	r3, r0, #1
   89272:	d102      	bne.n	8927a <_lseek_r+0x1e>
   89274:	6823      	ldr	r3, [r4, #0]
   89276:	b103      	cbz	r3, 8927a <_lseek_r+0x1e>
   89278:	602b      	str	r3, [r5, #0]
   8927a:	bd38      	pop	{r3, r4, r5, pc}
   8927c:	2007adf8 	.word	0x2007adf8

00089280 <_read_r>:
   89280:	b538      	push	{r3, r4, r5, lr}
   89282:	4c07      	ldr	r4, [pc, #28]	; (892a0 <_read_r+0x20>)
   89284:	4605      	mov	r5, r0
   89286:	2000      	movs	r0, #0
   89288:	6020      	str	r0, [r4, #0]
   8928a:	4608      	mov	r0, r1
   8928c:	4611      	mov	r1, r2
   8928e:	461a      	mov	r2, r3
   89290:	f7f7 f806 	bl	802a0 <_read>
   89294:	1c43      	adds	r3, r0, #1
   89296:	d102      	bne.n	8929e <_read_r+0x1e>
   89298:	6823      	ldr	r3, [r4, #0]
   8929a:	b103      	cbz	r3, 8929e <_read_r+0x1e>
   8929c:	602b      	str	r3, [r5, #0]
   8929e:	bd38      	pop	{r3, r4, r5, pc}
   892a0:	2007adf8 	.word	0x2007adf8

000892a4 <__gedf2>:
   892a4:	f04f 3cff 	mov.w	ip, #4294967295
   892a8:	e006      	b.n	892b8 <__cmpdf2+0x4>
   892aa:	bf00      	nop

000892ac <__ledf2>:
   892ac:	f04f 0c01 	mov.w	ip, #1
   892b0:	e002      	b.n	892b8 <__cmpdf2+0x4>
   892b2:	bf00      	nop

000892b4 <__cmpdf2>:
   892b4:	f04f 0c01 	mov.w	ip, #1
   892b8:	f84d cd04 	str.w	ip, [sp, #-4]!
   892bc:	ea4f 0c41 	mov.w	ip, r1, lsl #1
   892c0:	ea7f 5c6c 	mvns.w	ip, ip, asr #21
   892c4:	ea4f 0c43 	mov.w	ip, r3, lsl #1
   892c8:	bf18      	it	ne
   892ca:	ea7f 5c6c 	mvnsne.w	ip, ip, asr #21
   892ce:	d01b      	beq.n	89308 <__cmpdf2+0x54>
   892d0:	b001      	add	sp, #4
   892d2:	ea50 0c41 	orrs.w	ip, r0, r1, lsl #1
   892d6:	bf0c      	ite	eq
   892d8:	ea52 0c43 	orrseq.w	ip, r2, r3, lsl #1
   892dc:	ea91 0f03 	teqne	r1, r3
   892e0:	bf02      	ittt	eq
   892e2:	ea90 0f02 	teqeq	r0, r2
   892e6:	2000      	moveq	r0, #0
   892e8:	4770      	bxeq	lr
   892ea:	f110 0f00 	cmn.w	r0, #0
   892ee:	ea91 0f03 	teq	r1, r3
   892f2:	bf58      	it	pl
   892f4:	4299      	cmppl	r1, r3
   892f6:	bf08      	it	eq
   892f8:	4290      	cmpeq	r0, r2
   892fa:	bf2c      	ite	cs
   892fc:	17d8      	asrcs	r0, r3, #31
   892fe:	ea6f 70e3 	mvncc.w	r0, r3, asr #31
   89302:	f040 0001 	orr.w	r0, r0, #1
   89306:	4770      	bx	lr
   89308:	ea4f 0c41 	mov.w	ip, r1, lsl #1
   8930c:	ea7f 5c6c 	mvns.w	ip, ip, asr #21
   89310:	d102      	bne.n	89318 <__cmpdf2+0x64>
   89312:	ea50 3c01 	orrs.w	ip, r0, r1, lsl #12
   89316:	d107      	bne.n	89328 <__cmpdf2+0x74>
   89318:	ea4f 0c43 	mov.w	ip, r3, lsl #1
   8931c:	ea7f 5c6c 	mvns.w	ip, ip, asr #21
   89320:	d1d6      	bne.n	892d0 <__cmpdf2+0x1c>
   89322:	ea52 3c03 	orrs.w	ip, r2, r3, lsl #12
   89326:	d0d3      	beq.n	892d0 <__cmpdf2+0x1c>
   89328:	f85d 0b04 	ldr.w	r0, [sp], #4
   8932c:	4770      	bx	lr
   8932e:	bf00      	nop

00089330 <__aeabi_cdrcmple>:
   89330:	4684      	mov	ip, r0
   89332:	4610      	mov	r0, r2
   89334:	4662      	mov	r2, ip
   89336:	468c      	mov	ip, r1
   89338:	4619      	mov	r1, r3
   8933a:	4663      	mov	r3, ip
   8933c:	e000      	b.n	89340 <__aeabi_cdcmpeq>
   8933e:	bf00      	nop

00089340 <__aeabi_cdcmpeq>:
   89340:	b501      	push	{r0, lr}
   89342:	f7ff ffb7 	bl	892b4 <__cmpdf2>
   89346:	2800      	cmp	r0, #0
   89348:	bf48      	it	mi
   8934a:	f110 0f00 	cmnmi.w	r0, #0
   8934e:	bd01      	pop	{r0, pc}

00089350 <__aeabi_dcmpeq>:
   89350:	f84d ed08 	str.w	lr, [sp, #-8]!
   89354:	f7ff fff4 	bl	89340 <__aeabi_cdcmpeq>
   89358:	bf0c      	ite	eq
   8935a:	2001      	moveq	r0, #1
   8935c:	2000      	movne	r0, #0
   8935e:	f85d fb08 	ldr.w	pc, [sp], #8
   89362:	bf00      	nop

00089364 <__aeabi_dcmplt>:
   89364:	f84d ed08 	str.w	lr, [sp, #-8]!
   89368:	f7ff ffea 	bl	89340 <__aeabi_cdcmpeq>
   8936c:	bf34      	ite	cc
   8936e:	2001      	movcc	r0, #1
   89370:	2000      	movcs	r0, #0
   89372:	f85d fb08 	ldr.w	pc, [sp], #8
   89376:	bf00      	nop

00089378 <__aeabi_dcmple>:
   89378:	f84d ed08 	str.w	lr, [sp, #-8]!
   8937c:	f7ff ffe0 	bl	89340 <__aeabi_cdcmpeq>
   89380:	bf94      	ite	ls
   89382:	2001      	movls	r0, #1
   89384:	2000      	movhi	r0, #0
   89386:	f85d fb08 	ldr.w	pc, [sp], #8
   8938a:	bf00      	nop

0008938c <__aeabi_dcmpge>:
   8938c:	f84d ed08 	str.w	lr, [sp, #-8]!
   89390:	f7ff ffce 	bl	89330 <__aeabi_cdrcmple>
   89394:	bf94      	ite	ls
   89396:	2001      	movls	r0, #1
   89398:	2000      	movhi	r0, #0
   8939a:	f85d fb08 	ldr.w	pc, [sp], #8
   8939e:	bf00      	nop

000893a0 <__aeabi_dcmpgt>:
   893a0:	f84d ed08 	str.w	lr, [sp, #-8]!
   893a4:	f7ff ffc4 	bl	89330 <__aeabi_cdrcmple>
   893a8:	bf34      	ite	cc
   893aa:	2001      	movcc	r0, #1
   893ac:	2000      	movcs	r0, #0
   893ae:	f85d fb08 	ldr.w	pc, [sp], #8
   893b2:	bf00      	nop

000893b4 <__aeabi_d2uiz>:
   893b4:	004a      	lsls	r2, r1, #1
   893b6:	d211      	bcs.n	893dc <__aeabi_d2uiz+0x28>
   893b8:	f512 1200 	adds.w	r2, r2, #2097152	; 0x200000
   893bc:	d211      	bcs.n	893e2 <__aeabi_d2uiz+0x2e>
   893be:	d50d      	bpl.n	893dc <__aeabi_d2uiz+0x28>
   893c0:	f46f 7378 	mvn.w	r3, #992	; 0x3e0
   893c4:	ebb3 5262 	subs.w	r2, r3, r2, asr #21
   893c8:	d40e      	bmi.n	893e8 <__aeabi_d2uiz+0x34>
   893ca:	ea4f 23c1 	mov.w	r3, r1, lsl #11
   893ce:	f043 4300 	orr.w	r3, r3, #2147483648	; 0x80000000
   893d2:	ea43 5350 	orr.w	r3, r3, r0, lsr #21
   893d6:	fa23 f002 	lsr.w	r0, r3, r2
   893da:	4770      	bx	lr
   893dc:	f04f 0000 	mov.w	r0, #0
   893e0:	4770      	bx	lr
   893e2:	ea50 3001 	orrs.w	r0, r0, r1, lsl #12
   893e6:	d102      	bne.n	893ee <__aeabi_d2uiz+0x3a>
   893e8:	f04f 30ff 	mov.w	r0, #4294967295
   893ec:	4770      	bx	lr
   893ee:	f04f 0000 	mov.w	r0, #0
   893f2:	4770      	bx	lr

000893f4 <__aeabi_d2f>:
   893f4:	ea4f 0241 	mov.w	r2, r1, lsl #1
   893f8:	f1b2 43e0 	subs.w	r3, r2, #1879048192	; 0x70000000
   893fc:	bf24      	itt	cs
   893fe:	f5b3 1c00 	subscs.w	ip, r3, #2097152	; 0x200000
   89402:	f1dc 5cfe 	rsbscs	ip, ip, #532676608	; 0x1fc00000
   89406:	d90d      	bls.n	89424 <__aeabi_d2f+0x30>
   89408:	f001 4c00 	and.w	ip, r1, #2147483648	; 0x80000000
   8940c:	ea4f 02c0 	mov.w	r2, r0, lsl #3
   89410:	ea4c 7050 	orr.w	r0, ip, r0, lsr #29
   89414:	f1b2 4f00 	cmp.w	r2, #2147483648	; 0x80000000
   89418:	eb40 0083 	adc.w	r0, r0, r3, lsl #2
   8941c:	bf08      	it	eq
   8941e:	f020 0001 	biceq.w	r0, r0, #1
   89422:	4770      	bx	lr
   89424:	f011 4f80 	tst.w	r1, #1073741824	; 0x40000000
   89428:	d121      	bne.n	8946e <__aeabi_d2f+0x7a>
   8942a:	f113 7238 	adds.w	r2, r3, #48234496	; 0x2e00000
   8942e:	bfbc      	itt	lt
   89430:	f001 4000 	andlt.w	r0, r1, #2147483648	; 0x80000000
   89434:	4770      	bxlt	lr
   89436:	f441 1180 	orr.w	r1, r1, #1048576	; 0x100000
   8943a:	ea4f 5252 	mov.w	r2, r2, lsr #21
   8943e:	f1c2 0218 	rsb	r2, r2, #24
   89442:	f1c2 0c20 	rsb	ip, r2, #32
   89446:	fa10 f30c 	lsls.w	r3, r0, ip
   8944a:	fa20 f002 	lsr.w	r0, r0, r2
   8944e:	bf18      	it	ne
   89450:	f040 0001 	orrne.w	r0, r0, #1
   89454:	ea4f 23c1 	mov.w	r3, r1, lsl #11
   89458:	ea4f 23d3 	mov.w	r3, r3, lsr #11
   8945c:	fa03 fc0c 	lsl.w	ip, r3, ip
   89460:	ea40 000c 	orr.w	r0, r0, ip
   89464:	fa23 f302 	lsr.w	r3, r3, r2
   89468:	ea4f 0343 	mov.w	r3, r3, lsl #1
   8946c:	e7cc      	b.n	89408 <__aeabi_d2f+0x14>
   8946e:	ea7f 5362 	mvns.w	r3, r2, asr #21
   89472:	d107      	bne.n	89484 <__aeabi_d2f+0x90>
   89474:	ea50 3301 	orrs.w	r3, r0, r1, lsl #12
   89478:	bf1e      	ittt	ne
   8947a:	f04f 40fe 	movne.w	r0, #2130706432	; 0x7f000000
   8947e:	f440 0040 	orrne.w	r0, r0, #12582912	; 0xc00000
   89482:	4770      	bxne	lr
   89484:	f001 4000 	and.w	r0, r1, #2147483648	; 0x80000000
   89488:	f040 40fe 	orr.w	r0, r0, #2130706432	; 0x7f000000
   8948c:	f440 0000 	orr.w	r0, r0, #8388608	; 0x800000
   89490:	4770      	bx	lr
   89492:	bf00      	nop

00089494 <__aeabi_uldivmod>:
   89494:	b94b      	cbnz	r3, 894aa <__aeabi_uldivmod+0x16>
   89496:	b942      	cbnz	r2, 894aa <__aeabi_uldivmod+0x16>
   89498:	2900      	cmp	r1, #0
   8949a:	bf08      	it	eq
   8949c:	2800      	cmpeq	r0, #0
   8949e:	d002      	beq.n	894a6 <__aeabi_uldivmod+0x12>
   894a0:	f04f 31ff 	mov.w	r1, #4294967295
   894a4:	4608      	mov	r0, r1
   894a6:	f000 b83b 	b.w	89520 <__aeabi_idiv0>
   894aa:	b082      	sub	sp, #8
   894ac:	46ec      	mov	ip, sp
   894ae:	e92d 5000 	stmdb	sp!, {ip, lr}
   894b2:	f000 f81d 	bl	894f0 <__gnu_uldivmod_helper>
   894b6:	f8dd e004 	ldr.w	lr, [sp, #4]
   894ba:	b002      	add	sp, #8
   894bc:	bc0c      	pop	{r2, r3}
   894be:	4770      	bx	lr

000894c0 <__gnu_ldivmod_helper>:
   894c0:	e92d 41f0 	stmdb	sp!, {r4, r5, r6, r7, r8, lr}
   894c4:	4616      	mov	r6, r2
   894c6:	4698      	mov	r8, r3
   894c8:	4604      	mov	r4, r0
   894ca:	460d      	mov	r5, r1
   894cc:	f000 f82a 	bl	89524 <__divdi3>
   894d0:	fb06 fc01 	mul.w	ip, r6, r1
   894d4:	fba6 2300 	umull	r2, r3, r6, r0
   894d8:	fb00 c708 	mla	r7, r0, r8, ip
   894dc:	18fb      	adds	r3, r7, r3
   894de:	1aa2      	subs	r2, r4, r2
   894e0:	eb65 0303 	sbc.w	r3, r5, r3
   894e4:	9c06      	ldr	r4, [sp, #24]
   894e6:	e9c4 2300 	strd	r2, r3, [r4]
   894ea:	e8bd 81f0 	ldmia.w	sp!, {r4, r5, r6, r7, r8, pc}
   894ee:	bf00      	nop

000894f0 <__gnu_uldivmod_helper>:
   894f0:	e92d 41f0 	stmdb	sp!, {r4, r5, r6, r7, r8, lr}
   894f4:	4690      	mov	r8, r2
   894f6:	4606      	mov	r6, r0
   894f8:	460f      	mov	r7, r1
   894fa:	461d      	mov	r5, r3
   894fc:	f000 f970 	bl	897e0 <__udivdi3>
   89500:	fb00 f305 	mul.w	r3, r0, r5
   89504:	fba0 4508 	umull	r4, r5, r0, r8
   89508:	fb08 3801 	mla	r8, r8, r1, r3
   8950c:	9b06      	ldr	r3, [sp, #24]
   8950e:	4445      	add	r5, r8
   89510:	1b34      	subs	r4, r6, r4
   89512:	eb67 0505 	sbc.w	r5, r7, r5
   89516:	e9c3 4500 	strd	r4, r5, [r3]
   8951a:	e8bd 81f0 	ldmia.w	sp!, {r4, r5, r6, r7, r8, pc}
   8951e:	bf00      	nop

00089520 <__aeabi_idiv0>:
   89520:	4770      	bx	lr
   89522:	bf00      	nop

00089524 <__divdi3>:
   89524:	2900      	cmp	r1, #0
   89526:	e92d 0ff0 	stmdb	sp!, {r4, r5, r6, r7, r8, r9, sl, fp}
   8952a:	461d      	mov	r5, r3
   8952c:	f2c0 809d 	blt.w	8966a <__divdi3+0x146>
   89530:	2400      	movs	r4, #0
   89532:	2d00      	cmp	r5, #0
   89534:	f2c0 8094 	blt.w	89660 <__divdi3+0x13c>
   89538:	4680      	mov	r8, r0
   8953a:	460f      	mov	r7, r1
   8953c:	4694      	mov	ip, r2
   8953e:	461e      	mov	r6, r3
   89540:	bbe3      	cbnz	r3, 895bc <__divdi3+0x98>
   89542:	428a      	cmp	r2, r1
   89544:	d955      	bls.n	895f2 <__divdi3+0xce>
   89546:	fab2 f782 	clz	r7, r2
   8954a:	b147      	cbz	r7, 8955e <__divdi3+0x3a>
   8954c:	f1c7 0520 	rsb	r5, r7, #32
   89550:	fa20 f605 	lsr.w	r6, r0, r5
   89554:	fa01 f107 	lsl.w	r1, r1, r7
   89558:	40ba      	lsls	r2, r7
   8955a:	40b8      	lsls	r0, r7
   8955c:	4331      	orrs	r1, r6
   8955e:	0c17      	lsrs	r7, r2, #16
   89560:	fbb1 f6f7 	udiv	r6, r1, r7
   89564:	fa1f fc82 	uxth.w	ip, r2
   89568:	fb07 1116 	mls	r1, r7, r6, r1
   8956c:	fb0c f506 	mul.w	r5, ip, r6
   89570:	0c03      	lsrs	r3, r0, #16
   89572:	ea43 4301 	orr.w	r3, r3, r1, lsl #16
   89576:	429d      	cmp	r5, r3
   89578:	d908      	bls.n	8958c <__divdi3+0x68>
   8957a:	1e71      	subs	r1, r6, #1
   8957c:	189b      	adds	r3, r3, r2
   8957e:	f080 8113 	bcs.w	897a8 <__divdi3+0x284>
   89582:	429d      	cmp	r5, r3
   89584:	f240 8110 	bls.w	897a8 <__divdi3+0x284>
   89588:	3e02      	subs	r6, #2
   8958a:	189b      	adds	r3, r3, r2
   8958c:	1b59      	subs	r1, r3, r5
   8958e:	fbb1 f5f7 	udiv	r5, r1, r7
   89592:	fb07 1315 	mls	r3, r7, r5, r1
   89596:	fb0c fc05 	mul.w	ip, ip, r5
   8959a:	b280      	uxth	r0, r0
   8959c:	ea40 4103 	orr.w	r1, r0, r3, lsl #16
   895a0:	458c      	cmp	ip, r1
   895a2:	d907      	bls.n	895b4 <__divdi3+0x90>
   895a4:	1e6b      	subs	r3, r5, #1
   895a6:	188a      	adds	r2, r1, r2
   895a8:	f080 8100 	bcs.w	897ac <__divdi3+0x288>
   895ac:	4594      	cmp	ip, r2
   895ae:	f240 80fd 	bls.w	897ac <__divdi3+0x288>
   895b2:	3d02      	subs	r5, #2
   895b4:	ea45 4106 	orr.w	r1, r5, r6, lsl #16
   895b8:	2500      	movs	r5, #0
   895ba:	e003      	b.n	895c4 <__divdi3+0xa0>
   895bc:	428b      	cmp	r3, r1
   895be:	d90c      	bls.n	895da <__divdi3+0xb6>
   895c0:	2500      	movs	r5, #0
   895c2:	4629      	mov	r1, r5
   895c4:	460a      	mov	r2, r1
   895c6:	462b      	mov	r3, r5
   895c8:	b114      	cbz	r4, 895d0 <__divdi3+0xac>
   895ca:	4252      	negs	r2, r2
   895cc:	eb63 0343 	sbc.w	r3, r3, r3, lsl #1
   895d0:	4610      	mov	r0, r2
   895d2:	4619      	mov	r1, r3
   895d4:	e8bd 0ff0 	ldmia.w	sp!, {r4, r5, r6, r7, r8, r9, sl, fp}
   895d8:	4770      	bx	lr
   895da:	fab3 f583 	clz	r5, r3
   895de:	2d00      	cmp	r5, #0
   895e0:	f040 8087 	bne.w	896f2 <__divdi3+0x1ce>
   895e4:	428b      	cmp	r3, r1
   895e6:	d301      	bcc.n	895ec <__divdi3+0xc8>
   895e8:	4282      	cmp	r2, r0
   895ea:	d8ea      	bhi.n	895c2 <__divdi3+0x9e>
   895ec:	2500      	movs	r5, #0
   895ee:	2101      	movs	r1, #1
   895f0:	e7e8      	b.n	895c4 <__divdi3+0xa0>
   895f2:	b912      	cbnz	r2, 895fa <__divdi3+0xd6>
   895f4:	2601      	movs	r6, #1
   895f6:	fbb6 f2f2 	udiv	r2, r6, r2
   895fa:	fab2 f682 	clz	r6, r2
   895fe:	2e00      	cmp	r6, #0
   89600:	d139      	bne.n	89676 <__divdi3+0x152>
   89602:	1a8e      	subs	r6, r1, r2
   89604:	0c13      	lsrs	r3, r2, #16
   89606:	fa1f fc82 	uxth.w	ip, r2
   8960a:	2501      	movs	r5, #1
   8960c:	fbb6 f7f3 	udiv	r7, r6, r3
   89610:	fb03 6117 	mls	r1, r3, r7, r6
   89614:	fb0c f807 	mul.w	r8, ip, r7
   89618:	ea4f 4910 	mov.w	r9, r0, lsr #16
   8961c:	ea49 4601 	orr.w	r6, r9, r1, lsl #16
   89620:	45b0      	cmp	r8, r6
   89622:	d906      	bls.n	89632 <__divdi3+0x10e>
   89624:	1e79      	subs	r1, r7, #1
   89626:	18b6      	adds	r6, r6, r2
   89628:	d202      	bcs.n	89630 <__divdi3+0x10c>
   8962a:	45b0      	cmp	r8, r6
   8962c:	f200 80d3 	bhi.w	897d6 <__divdi3+0x2b2>
   89630:	460f      	mov	r7, r1
   89632:	ebc8 0606 	rsb	r6, r8, r6
   89636:	fbb6 f1f3 	udiv	r1, r6, r3
   8963a:	fb03 6311 	mls	r3, r3, r1, r6
   8963e:	fb0c fc01 	mul.w	ip, ip, r1
   89642:	b280      	uxth	r0, r0
   89644:	ea40 4303 	orr.w	r3, r0, r3, lsl #16
   89648:	459c      	cmp	ip, r3
   8964a:	d906      	bls.n	8965a <__divdi3+0x136>
   8964c:	1e4e      	subs	r6, r1, #1
   8964e:	189a      	adds	r2, r3, r2
   89650:	d202      	bcs.n	89658 <__divdi3+0x134>
   89652:	4594      	cmp	ip, r2
   89654:	f200 80c2 	bhi.w	897dc <__divdi3+0x2b8>
   89658:	4631      	mov	r1, r6
   8965a:	ea41 4107 	orr.w	r1, r1, r7, lsl #16
   8965e:	e7b1      	b.n	895c4 <__divdi3+0xa0>
   89660:	43e4      	mvns	r4, r4
   89662:	4252      	negs	r2, r2
   89664:	eb63 0343 	sbc.w	r3, r3, r3, lsl #1
   89668:	e766      	b.n	89538 <__divdi3+0x14>
   8966a:	4240      	negs	r0, r0
   8966c:	eb61 0141 	sbc.w	r1, r1, r1, lsl #1
   89670:	f04f 34ff 	mov.w	r4, #4294967295
   89674:	e75d      	b.n	89532 <__divdi3+0xe>
   89676:	40b2      	lsls	r2, r6
   89678:	f1c6 0920 	rsb	r9, r6, #32
   8967c:	fa21 f709 	lsr.w	r7, r1, r9
   89680:	fa20 f909 	lsr.w	r9, r0, r9
   89684:	fa01 f106 	lsl.w	r1, r1, r6
   89688:	0c13      	lsrs	r3, r2, #16
   8968a:	fbb7 f8f3 	udiv	r8, r7, r3
   8968e:	fa1f fc82 	uxth.w	ip, r2
   89692:	fb03 7718 	mls	r7, r3, r8, r7
   89696:	fb0c f508 	mul.w	r5, ip, r8
   8969a:	ea49 0901 	orr.w	r9, r9, r1
   8969e:	ea4f 4119 	mov.w	r1, r9, lsr #16
   896a2:	ea41 4707 	orr.w	r7, r1, r7, lsl #16
   896a6:	40b0      	lsls	r0, r6
   896a8:	42bd      	cmp	r5, r7
   896aa:	d90a      	bls.n	896c2 <__divdi3+0x19e>
   896ac:	18bf      	adds	r7, r7, r2
   896ae:	f108 36ff 	add.w	r6, r8, #4294967295
   896b2:	f080 808e 	bcs.w	897d2 <__divdi3+0x2ae>
   896b6:	42bd      	cmp	r5, r7
   896b8:	f240 808b 	bls.w	897d2 <__divdi3+0x2ae>
   896bc:	f1a8 0802 	sub.w	r8, r8, #2
   896c0:	18bf      	adds	r7, r7, r2
   896c2:	1b79      	subs	r1, r7, r5
   896c4:	fbb1 f5f3 	udiv	r5, r1, r3
   896c8:	fb03 1715 	mls	r7, r3, r5, r1
   896cc:	fb0c f605 	mul.w	r6, ip, r5
   896d0:	fa1f f989 	uxth.w	r9, r9
   896d4:	ea49 4107 	orr.w	r1, r9, r7, lsl #16
   896d8:	428e      	cmp	r6, r1
   896da:	d906      	bls.n	896ea <__divdi3+0x1c6>
   896dc:	1e6f      	subs	r7, r5, #1
   896de:	1889      	adds	r1, r1, r2
   896e0:	d271      	bcs.n	897c6 <__divdi3+0x2a2>
   896e2:	428e      	cmp	r6, r1
   896e4:	d96f      	bls.n	897c6 <__divdi3+0x2a2>
   896e6:	3d02      	subs	r5, #2
   896e8:	1889      	adds	r1, r1, r2
   896ea:	1b8e      	subs	r6, r1, r6
   896ec:	ea45 4508 	orr.w	r5, r5, r8, lsl #16
   896f0:	e78c      	b.n	8960c <__divdi3+0xe8>
   896f2:	f1c5 0120 	rsb	r1, r5, #32
   896f6:	fa22 f301 	lsr.w	r3, r2, r1
   896fa:	fa06 f605 	lsl.w	r6, r6, r5
   896fe:	fa27 f201 	lsr.w	r2, r7, r1
   89702:	fa07 f705 	lsl.w	r7, r7, r5
   89706:	fa20 f101 	lsr.w	r1, r0, r1
   8970a:	431e      	orrs	r6, r3
   8970c:	ea4f 4916 	mov.w	r9, r6, lsr #16
   89710:	fbb2 f8f9 	udiv	r8, r2, r9
   89714:	fa1f fa86 	uxth.w	sl, r6
   89718:	fb09 2218 	mls	r2, r9, r8, r2
   8971c:	fb0a fb08 	mul.w	fp, sl, r8
   89720:	430f      	orrs	r7, r1
   89722:	0c3b      	lsrs	r3, r7, #16
   89724:	ea43 4202 	orr.w	r2, r3, r2, lsl #16
   89728:	4593      	cmp	fp, r2
   8972a:	fa0c fc05 	lsl.w	ip, ip, r5
   8972e:	d908      	bls.n	89742 <__divdi3+0x21e>
   89730:	1992      	adds	r2, r2, r6
   89732:	f108 31ff 	add.w	r1, r8, #4294967295
   89736:	d24a      	bcs.n	897ce <__divdi3+0x2aa>
   89738:	4593      	cmp	fp, r2
   8973a:	d948      	bls.n	897ce <__divdi3+0x2aa>
   8973c:	f1a8 0802 	sub.w	r8, r8, #2
   89740:	1992      	adds	r2, r2, r6
   89742:	ebcb 0302 	rsb	r3, fp, r2
   89746:	fbb3 f1f9 	udiv	r1, r3, r9
   8974a:	fb09 3211 	mls	r2, r9, r1, r3
   8974e:	fb0a fa01 	mul.w	sl, sl, r1
   89752:	b2bf      	uxth	r7, r7
   89754:	ea47 4302 	orr.w	r3, r7, r2, lsl #16
   89758:	459a      	cmp	sl, r3
   8975a:	d906      	bls.n	8976a <__divdi3+0x246>
   8975c:	1e4a      	subs	r2, r1, #1
   8975e:	199b      	adds	r3, r3, r6
   89760:	d233      	bcs.n	897ca <__divdi3+0x2a6>
   89762:	459a      	cmp	sl, r3
   89764:	d931      	bls.n	897ca <__divdi3+0x2a6>
   89766:	3902      	subs	r1, #2
   89768:	199b      	adds	r3, r3, r6
   8976a:	ea41 4108 	orr.w	r1, r1, r8, lsl #16
   8976e:	0c0f      	lsrs	r7, r1, #16
   89770:	fa1f f88c 	uxth.w	r8, ip
   89774:	fb08 f607 	mul.w	r6, r8, r7
   89778:	b28a      	uxth	r2, r1
   8977a:	ea4f 4c1c 	mov.w	ip, ip, lsr #16
   8977e:	fb08 f802 	mul.w	r8, r8, r2
   89782:	fb0c 6202 	mla	r2, ip, r2, r6
   89786:	fb0c fc07 	mul.w	ip, ip, r7
   8978a:	eb02 4218 	add.w	r2, r2, r8, lsr #16
   8978e:	4296      	cmp	r6, r2
   89790:	bf88      	it	hi
   89792:	f50c 3c80 	addhi.w	ip, ip, #65536	; 0x10000
   89796:	ebca 0303 	rsb	r3, sl, r3
   8979a:	eb0c 4c12 	add.w	ip, ip, r2, lsr #16
   8979e:	4563      	cmp	r3, ip
   897a0:	d30e      	bcc.n	897c0 <__divdi3+0x29c>
   897a2:	d005      	beq.n	897b0 <__divdi3+0x28c>
   897a4:	2500      	movs	r5, #0
   897a6:	e70d      	b.n	895c4 <__divdi3+0xa0>
   897a8:	460e      	mov	r6, r1
   897aa:	e6ef      	b.n	8958c <__divdi3+0x68>
   897ac:	461d      	mov	r5, r3
   897ae:	e701      	b.n	895b4 <__divdi3+0x90>
   897b0:	fa00 f005 	lsl.w	r0, r0, r5
   897b4:	fa1f f888 	uxth.w	r8, r8
   897b8:	eb08 4502 	add.w	r5, r8, r2, lsl #16
   897bc:	42a8      	cmp	r0, r5
   897be:	d2f1      	bcs.n	897a4 <__divdi3+0x280>
   897c0:	3901      	subs	r1, #1
   897c2:	2500      	movs	r5, #0
   897c4:	e6fe      	b.n	895c4 <__divdi3+0xa0>
   897c6:	463d      	mov	r5, r7
   897c8:	e78f      	b.n	896ea <__divdi3+0x1c6>
   897ca:	4611      	mov	r1, r2
   897cc:	e7cd      	b.n	8976a <__divdi3+0x246>
   897ce:	4688      	mov	r8, r1
   897d0:	e7b7      	b.n	89742 <__divdi3+0x21e>
   897d2:	46b0      	mov	r8, r6
   897d4:	e775      	b.n	896c2 <__divdi3+0x19e>
   897d6:	3f02      	subs	r7, #2
   897d8:	18b6      	adds	r6, r6, r2
   897da:	e72a      	b.n	89632 <__divdi3+0x10e>
   897dc:	3902      	subs	r1, #2
   897de:	e73c      	b.n	8965a <__divdi3+0x136>

000897e0 <__udivdi3>:
   897e0:	e92d 07f0 	stmdb	sp!, {r4, r5, r6, r7, r8, r9, sl}
   897e4:	4614      	mov	r4, r2
   897e6:	4605      	mov	r5, r0
   897e8:	460e      	mov	r6, r1
   897ea:	2b00      	cmp	r3, #0
   897ec:	d13d      	bne.n	8986a <__udivdi3+0x8a>
   897ee:	428a      	cmp	r2, r1
   897f0:	d949      	bls.n	89886 <__udivdi3+0xa6>
   897f2:	fab2 f782 	clz	r7, r2
   897f6:	b147      	cbz	r7, 8980a <__udivdi3+0x2a>
   897f8:	f1c7 0120 	rsb	r1, r7, #32
   897fc:	fa20 f201 	lsr.w	r2, r0, r1
   89800:	fa06 f607 	lsl.w	r6, r6, r7
   89804:	40bc      	lsls	r4, r7
   89806:	40bd      	lsls	r5, r7
   89808:	4316      	orrs	r6, r2
   8980a:	0c22      	lsrs	r2, r4, #16
   8980c:	fbb6 f0f2 	udiv	r0, r6, r2
   89810:	b2a1      	uxth	r1, r4
   89812:	fb02 6610 	mls	r6, r2, r0, r6
   89816:	fb01 f300 	mul.w	r3, r1, r0
   8981a:	0c2f      	lsrs	r7, r5, #16
   8981c:	ea47 4606 	orr.w	r6, r7, r6, lsl #16
   89820:	42b3      	cmp	r3, r6
   89822:	d908      	bls.n	89836 <__udivdi3+0x56>
   89824:	1e47      	subs	r7, r0, #1
   89826:	1936      	adds	r6, r6, r4
   89828:	f080 80fa 	bcs.w	89a20 <__udivdi3+0x240>
   8982c:	42b3      	cmp	r3, r6
   8982e:	f240 80f7 	bls.w	89a20 <__udivdi3+0x240>
   89832:	3802      	subs	r0, #2
   89834:	1936      	adds	r6, r6, r4
   89836:	1af6      	subs	r6, r6, r3
   89838:	fbb6 f3f2 	udiv	r3, r6, r2
   8983c:	fb02 6213 	mls	r2, r2, r3, r6
   89840:	fb01 f103 	mul.w	r1, r1, r3
   89844:	b2ad      	uxth	r5, r5
   89846:	ea45 4202 	orr.w	r2, r5, r2, lsl #16
   8984a:	4291      	cmp	r1, r2
   8984c:	d907      	bls.n	8985e <__udivdi3+0x7e>
   8984e:	1e5e      	subs	r6, r3, #1
   89850:	1912      	adds	r2, r2, r4
   89852:	f080 80e7 	bcs.w	89a24 <__udivdi3+0x244>
   89856:	4291      	cmp	r1, r2
   89858:	f240 80e4 	bls.w	89a24 <__udivdi3+0x244>
   8985c:	3b02      	subs	r3, #2
   8985e:	ea43 4000 	orr.w	r0, r3, r0, lsl #16
   89862:	2100      	movs	r1, #0
   89864:	e8bd 07f0 	ldmia.w	sp!, {r4, r5, r6, r7, r8, r9, sl}
   89868:	4770      	bx	lr
   8986a:	428b      	cmp	r3, r1
   8986c:	d843      	bhi.n	898f6 <__udivdi3+0x116>
   8986e:	fab3 f483 	clz	r4, r3
   89872:	2c00      	cmp	r4, #0
   89874:	d142      	bne.n	898fc <__udivdi3+0x11c>
   89876:	428b      	cmp	r3, r1
   89878:	d302      	bcc.n	89880 <__udivdi3+0xa0>
   8987a:	4282      	cmp	r2, r0
   8987c:	f200 80e1 	bhi.w	89a42 <__udivdi3+0x262>
   89880:	2100      	movs	r1, #0
   89882:	2001      	movs	r0, #1
   89884:	e7ee      	b.n	89864 <__udivdi3+0x84>
   89886:	b912      	cbnz	r2, 8988e <__udivdi3+0xae>
   89888:	2701      	movs	r7, #1
   8988a:	fbb7 f4f2 	udiv	r4, r7, r2
   8988e:	fab4 f284 	clz	r2, r4
   89892:	2a00      	cmp	r2, #0
   89894:	f040 8089 	bne.w	899aa <__udivdi3+0x1ca>
   89898:	1b0a      	subs	r2, r1, r4
   8989a:	0c23      	lsrs	r3, r4, #16
   8989c:	b2a7      	uxth	r7, r4
   8989e:	2101      	movs	r1, #1
   898a0:	fbb2 f6f3 	udiv	r6, r2, r3
   898a4:	fb03 2216 	mls	r2, r3, r6, r2
   898a8:	fb07 f006 	mul.w	r0, r7, r6
   898ac:	ea4f 4c15 	mov.w	ip, r5, lsr #16
   898b0:	ea4c 4202 	orr.w	r2, ip, r2, lsl #16
   898b4:	4290      	cmp	r0, r2
   898b6:	d907      	bls.n	898c8 <__udivdi3+0xe8>
   898b8:	1912      	adds	r2, r2, r4
   898ba:	f106 3cff 	add.w	ip, r6, #4294967295
   898be:	d202      	bcs.n	898c6 <__udivdi3+0xe6>
   898c0:	4290      	cmp	r0, r2
   898c2:	f200 80d0 	bhi.w	89a66 <__udivdi3+0x286>
   898c6:	4666      	mov	r6, ip
   898c8:	1a12      	subs	r2, r2, r0
   898ca:	fbb2 f0f3 	udiv	r0, r2, r3
   898ce:	fb03 2310 	mls	r3, r3, r0, r2
   898d2:	fb07 f700 	mul.w	r7, r7, r0
   898d6:	b2ad      	uxth	r5, r5
   898d8:	ea45 4303 	orr.w	r3, r5, r3, lsl #16
   898dc:	429f      	cmp	r7, r3
   898de:	d907      	bls.n	898f0 <__udivdi3+0x110>
   898e0:	1e42      	subs	r2, r0, #1
   898e2:	191b      	adds	r3, r3, r4
   898e4:	f080 80a0 	bcs.w	89a28 <__udivdi3+0x248>
   898e8:	429f      	cmp	r7, r3
   898ea:	f240 809d 	bls.w	89a28 <__udivdi3+0x248>
   898ee:	3802      	subs	r0, #2
   898f0:	ea40 4006 	orr.w	r0, r0, r6, lsl #16
   898f4:	e7b6      	b.n	89864 <__udivdi3+0x84>
   898f6:	2100      	movs	r1, #0
   898f8:	4608      	mov	r0, r1
   898fa:	e7b3      	b.n	89864 <__udivdi3+0x84>
   898fc:	f1c4 0620 	rsb	r6, r4, #32
   89900:	fa22 f706 	lsr.w	r7, r2, r6
   89904:	fa03 f304 	lsl.w	r3, r3, r4
   89908:	fa21 f506 	lsr.w	r5, r1, r6
   8990c:	fa01 f104 	lsl.w	r1, r1, r4
   89910:	fa20 f606 	lsr.w	r6, r0, r6
   89914:	433b      	orrs	r3, r7
   89916:	ea4f 4c13 	mov.w	ip, r3, lsr #16
   8991a:	fbb5 f7fc 	udiv	r7, r5, ip
   8991e:	fa1f f883 	uxth.w	r8, r3
   89922:	fb0c 5517 	mls	r5, ip, r7, r5
   89926:	fb08 f907 	mul.w	r9, r8, r7
   8992a:	ea46 0a01 	orr.w	sl, r6, r1
   8992e:	ea4f 411a 	mov.w	r1, sl, lsr #16
   89932:	ea41 4505 	orr.w	r5, r1, r5, lsl #16
   89936:	45a9      	cmp	r9, r5
   89938:	fa02 f204 	lsl.w	r2, r2, r4
   8993c:	d904      	bls.n	89948 <__udivdi3+0x168>
   8993e:	1e7e      	subs	r6, r7, #1
   89940:	18ed      	adds	r5, r5, r3
   89942:	f0c0 8081 	bcc.w	89a48 <__udivdi3+0x268>
   89946:	4637      	mov	r7, r6
   89948:	ebc9 0105 	rsb	r1, r9, r5
   8994c:	fbb1 f6fc 	udiv	r6, r1, ip
   89950:	fb0c 1516 	mls	r5, ip, r6, r1
   89954:	fb08 f806 	mul.w	r8, r8, r6
   89958:	fa1f fa8a 	uxth.w	sl, sl
   8995c:	ea4a 4105 	orr.w	r1, sl, r5, lsl #16
   89960:	4588      	cmp	r8, r1
   89962:	d903      	bls.n	8996c <__udivdi3+0x18c>
   89964:	1e75      	subs	r5, r6, #1
   89966:	18c9      	adds	r1, r1, r3
   89968:	d374      	bcc.n	89a54 <__udivdi3+0x274>
   8996a:	462e      	mov	r6, r5
   8996c:	ea46 4607 	orr.w	r6, r6, r7, lsl #16
   89970:	0c37      	lsrs	r7, r6, #16
   89972:	fa1f fc82 	uxth.w	ip, r2
   89976:	fb0c f507 	mul.w	r5, ip, r7
   8997a:	0c12      	lsrs	r2, r2, #16
   8997c:	b2b3      	uxth	r3, r6
   8997e:	fb0c fc03 	mul.w	ip, ip, r3
   89982:	fb02 5303 	mla	r3, r2, r3, r5
   89986:	fb02 f207 	mul.w	r2, r2, r7
   8998a:	eb03 431c 	add.w	r3, r3, ip, lsr #16
   8998e:	429d      	cmp	r5, r3
   89990:	bf88      	it	hi
   89992:	f502 3280 	addhi.w	r2, r2, #65536	; 0x10000
   89996:	ebc8 0101 	rsb	r1, r8, r1
   8999a:	eb02 4213 	add.w	r2, r2, r3, lsr #16
   8999e:	4291      	cmp	r1, r2
   899a0:	d34c      	bcc.n	89a3c <__udivdi3+0x25c>
   899a2:	d043      	beq.n	89a2c <__udivdi3+0x24c>
   899a4:	4630      	mov	r0, r6
   899a6:	2100      	movs	r1, #0
   899a8:	e75c      	b.n	89864 <__udivdi3+0x84>
   899aa:	4094      	lsls	r4, r2
   899ac:	f1c2 0520 	rsb	r5, r2, #32
   899b0:	fa21 f605 	lsr.w	r6, r1, r5
   899b4:	fa20 f505 	lsr.w	r5, r0, r5
   899b8:	fa01 f102 	lsl.w	r1, r1, r2
   899bc:	0c23      	lsrs	r3, r4, #16
   899be:	fbb6 fcf3 	udiv	ip, r6, r3
   899c2:	b2a7      	uxth	r7, r4
   899c4:	fb03 661c 	mls	r6, r3, ip, r6
   899c8:	fb07 f80c 	mul.w	r8, r7, ip
   899cc:	4329      	orrs	r1, r5
   899ce:	0c0d      	lsrs	r5, r1, #16
   899d0:	ea45 4606 	orr.w	r6, r5, r6, lsl #16
   899d4:	45b0      	cmp	r8, r6
   899d6:	fa00 f502 	lsl.w	r5, r0, r2
   899da:	d908      	bls.n	899ee <__udivdi3+0x20e>
   899dc:	1936      	adds	r6, r6, r4
   899de:	f10c 30ff 	add.w	r0, ip, #4294967295
   899e2:	d23e      	bcs.n	89a62 <__udivdi3+0x282>
   899e4:	45b0      	cmp	r8, r6
   899e6:	d93c      	bls.n	89a62 <__udivdi3+0x282>
   899e8:	f1ac 0c02 	sub.w	ip, ip, #2
   899ec:	1936      	adds	r6, r6, r4
   899ee:	ebc8 0206 	rsb	r2, r8, r6
   899f2:	fbb2 f0f3 	udiv	r0, r2, r3
   899f6:	fb03 2610 	mls	r6, r3, r0, r2
   899fa:	fb07 f800 	mul.w	r8, r7, r0
   899fe:	b289      	uxth	r1, r1
   89a00:	ea41 4206 	orr.w	r2, r1, r6, lsl #16
   89a04:	4590      	cmp	r8, r2
   89a06:	d906      	bls.n	89a16 <__udivdi3+0x236>
   89a08:	1e46      	subs	r6, r0, #1
   89a0a:	1912      	adds	r2, r2, r4
   89a0c:	d227      	bcs.n	89a5e <__udivdi3+0x27e>
   89a0e:	4590      	cmp	r8, r2
   89a10:	d925      	bls.n	89a5e <__udivdi3+0x27e>
   89a12:	3802      	subs	r0, #2
   89a14:	1912      	adds	r2, r2, r4
   89a16:	ebc8 0202 	rsb	r2, r8, r2
   89a1a:	ea40 410c 	orr.w	r1, r0, ip, lsl #16
   89a1e:	e73f      	b.n	898a0 <__udivdi3+0xc0>
   89a20:	4638      	mov	r0, r7
   89a22:	e708      	b.n	89836 <__udivdi3+0x56>
   89a24:	4633      	mov	r3, r6
   89a26:	e71a      	b.n	8985e <__udivdi3+0x7e>
   89a28:	4610      	mov	r0, r2
   89a2a:	e761      	b.n	898f0 <__udivdi3+0x110>
   89a2c:	fa00 f004 	lsl.w	r0, r0, r4
   89a30:	fa1f fc8c 	uxth.w	ip, ip
   89a34:	eb0c 4303 	add.w	r3, ip, r3, lsl #16
   89a38:	4298      	cmp	r0, r3
   89a3a:	d2b3      	bcs.n	899a4 <__udivdi3+0x1c4>
   89a3c:	1e70      	subs	r0, r6, #1
   89a3e:	2100      	movs	r1, #0
   89a40:	e710      	b.n	89864 <__udivdi3+0x84>
   89a42:	4621      	mov	r1, r4
   89a44:	4620      	mov	r0, r4
   89a46:	e70d      	b.n	89864 <__udivdi3+0x84>
   89a48:	45a9      	cmp	r9, r5
   89a4a:	f67f af7c 	bls.w	89946 <__udivdi3+0x166>
   89a4e:	3f02      	subs	r7, #2
   89a50:	18ed      	adds	r5, r5, r3
   89a52:	e779      	b.n	89948 <__udivdi3+0x168>
   89a54:	4588      	cmp	r8, r1
   89a56:	d988      	bls.n	8996a <__udivdi3+0x18a>
   89a58:	3e02      	subs	r6, #2
   89a5a:	18c9      	adds	r1, r1, r3
   89a5c:	e786      	b.n	8996c <__udivdi3+0x18c>
   89a5e:	4630      	mov	r0, r6
   89a60:	e7d9      	b.n	89a16 <__udivdi3+0x236>
   89a62:	4684      	mov	ip, r0
   89a64:	e7c3      	b.n	899ee <__udivdi3+0x20e>
   89a66:	3e02      	subs	r6, #2
   89a68:	1912      	adds	r2, r2, r4
   89a6a:	e72d      	b.n	898c8 <__udivdi3+0xe8>
   89a6c:	000a6425 	.word	0x000a6425
   89a70:	332e3025 	.word	0x332e3025
   89a74:	00000066 	.word	0x00000066
   89a78:	000a7325 	.word	0x000a7325
   89a7c:	00007325 	.word	0x00007325
   89a80:	6b736174 	.word	0x6b736174
   89a84:	746e6f43 	.word	0x746e6f43
   89a88:	6c6c6f72 	.word	0x6c6c6f72
   89a8c:	00007265 	.word	0x00007265
   89a90:	6c696146 	.word	0x6c696146
   89a94:	74206465 	.word	0x74206465
   89a98:	7263206f 	.word	0x7263206f
   89a9c:	65746165 	.word	0x65746165
   89aa0:	73617420 	.word	0x73617420
   89aa4:	00000a6b 	.word	0x00000a6b
   89aa8:	6b736174 	.word	0x6b736174
   89aac:	646e6553 	.word	0x646e6553
   89ab0:	00000000 	.word	0x00000000
   89ab4:	6b736174 	.word	0x6b736174
   89ab8:	65636552 	.word	0x65636552
   89abc:	00657669 	.word	0x00657669
   89ac0:	09097325 	.word	0x09097325
   89ac4:	25096325 	.word	0x25096325
   89ac8:	75250975 	.word	0x75250975
   89acc:	0d752509 	.word	0x0d752509
   89ad0:	0000000a 	.word	0x0000000a
   89ad4:	454c4449 	.word	0x454c4449
   89ad8:	00000000 	.word	0x00000000
   89adc:	00000a0d 	.word	0x00000a0d
   89ae0:	20726d54 	.word	0x20726d54
   89ae4:	00637653 	.word	0x00637653
   89ae8:	00000001 	.word	0x00000001
   89aec:	00000002 	.word	0x00000002
   89af0:	00000004 	.word	0x00000004
   89af4:	00000008 	.word	0x00000008
   89af8:	00000010 	.word	0x00000010
   89afc:	00000020 	.word	0x00000020
   89b00:	00000040 	.word	0x00000040
   89b04:	00000080 	.word	0x00000080
   89b08:	00000100 	.word	0x00000100
   89b0c:	00000200 	.word	0x00000200
   89b10:	00000400 	.word	0x00000400

00089b14 <_global_impure_ptr>:
   89b14:	20070020 00000043 00000000               .. C.......

00089b20 <tinytens>:
   89b20:	97d889bc 3c9cd2b2 d5a8a733 3949f623     .......<3...#.I9
   89b30:	44f4a73d 32a50ffd cf8c979d 255bba08     =..D...2......[%
   89b40:	64ac6f43 0e180628 6900666e 7974696e     Co.d(...nf.inity
   89b50:	006e6100                                .an.

00089b54 <blanks.6678>:
   89b54:	20202020 20202020 20202020 20202020                     

00089b64 <zeroes.6679>:
   89b64:	30303030 30303030 30303030 30303030     0000000000000000
   89b74:	33323130 37363534 42413938 46454443     0123456789ABCDEF
   89b84:	32313000 36353433 61393837 65646362     .0123456789abcde
   89b94:	000a0066                                         f.

00089b96 <basefix.6143>:
   89b96:	0001000a 00030002 00050004 00070006     ................
   89ba6:	00090008 000b000a 000d000c 000f000e     ................
   89bb6:	20000010                                         ..

00089bb8 <_ctype_>:
   89bb8:	20202000 20202020 28282020 20282828     .         ((((( 
   89bc8:	20202020 20202020 20202020 20202020                     
   89bd8:	10108820 10101010 10101010 10101010      ...............
   89be8:	04040410 04040404 10040404 10101010     ................
   89bf8:	41411010 41414141 01010101 01010101     ..AAAAAA........
   89c08:	01010101 01010101 01010101 10101010     ................
   89c18:	42421010 42424242 02020202 02020202     ..BBBBBB........
   89c28:	02020202 02020202 02020202 10101010     ................
   89c38:	00000020 00000000 00000000 00000000      ...............
	...
   89cb8:	32313000 36353433 00393837 49534f50     .0123456789.POSI
   89cc8:	002e0058 00000000                       X.......

00089cd0 <p05.5242>:
   89cd0:	00000005 00000019 0000007d 00000000     ........}.......

00089ce0 <__mprec_tens>:
   89ce0:	00000000 3ff00000 00000000 40240000     .......?......$@
   89cf0:	00000000 40590000 00000000 408f4000     ......Y@.....@.@
   89d00:	00000000 40c38800 00000000 40f86a00     .......@.....j.@
   89d10:	00000000 412e8480 00000000 416312d0     .......A......cA
   89d20:	00000000 4197d784 00000000 41cdcd65     .......A....e..A
   89d30:	20000000 4202a05f e8000000 42374876     ... _..B....vH7B
   89d40:	a2000000 426d1a94 e5400000 42a2309c     ......mB..@..0.B
   89d50:	1e900000 42d6bcc4 26340000 430c6bf5     .......B..4&.k.C
   89d60:	37e08000 4341c379 85d8a000 43763457     ...7y.AC....W4vC
   89d70:	674ec800 43abc16d 60913d00 43e158e4     ..Ngm..C.=.`.X.C
   89d80:	78b58c40 4415af1d d6e2ef50 444b1ae4     @..x...DP.....KD
   89d90:	064dd592 4480f0cf c7e14af6 44b52d02     ..M....D.J...-.D
   89da0:	79d99db4 44ea7843                       ...yCx.D

00089da8 <__mprec_tinytens>:
   89da8:	97d889bc 3c9cd2b2 d5a8a733 3949f623     .......<3...#.I9
   89db8:	44f4a73d 32a50ffd cf8c979d 255bba08     =..D...2......[%
   89dc8:	64ac6f43 0ac80628                       Co.d(...

00089dd0 <__mprec_bigtens>:
   89dd0:	37e08000 4341c379 b5056e17 4693b8b5     ...7y.AC.n.....F
   89de0:	e93ff9f5 4d384f03 f9301d32 5a827748     ..?..O8M2.0.Hw.Z
   89df0:	7f73bf3c 75154fdd                       <.s..O.u

00089df8 <_init>:
   89df8:	b5f8      	push	{r3, r4, r5, r6, r7, lr}
   89dfa:	bf00      	nop
   89dfc:	bcf8      	pop	{r3, r4, r5, r6, r7}
   89dfe:	bc08      	pop	{r3}
   89e00:	469e      	mov	lr, r3
   89e02:	4770      	bx	lr

00089e04 <__init_array_start>:
   89e04:	00086491 	.word	0x00086491

00089e08 <__frame_dummy_init_array_entry>:
   89e08:	0008016d                                m...

00089e0c <_fini>:
   89e0c:	b5f8      	push	{r3, r4, r5, r6, r7, lr}
   89e0e:	bf00      	nop
   89e10:	bcf8      	pop	{r3, r4, r5, r6, r7}
   89e12:	bc08      	pop	{r3}
   89e14:	469e      	mov	lr, r3
   89e16:	4770      	bx	lr

00089e18 <__fini_array_start>:
   89e18:	00080145 	.word	0x00080145
